
dry2:     file format elf64-littleriscv


Disassembly of section .text:

0000000000010000 <_ftext>:
   10000:	00015197          	auipc	gp,0x15
   10004:	bd018193          	addi	gp,gp,-1072 # 24bd0 <_gp>
   10008:	00014297          	auipc	t0,0x14
   1000c:	4c028293          	addi	t0,t0,1216 # 244c8 <Reg>
   10010:	00017317          	auipc	t1,0x17
   10014:	d9830313          	addi	t1,t1,-616 # 26da8 <_end>
   10018:	0002b023          	sd	zero,0(t0)
   1001c:	00828293          	addi	t0,t0,8
   10020:	fe62ece3          	bltu	t0,t1,10018 <_ftext+0x18>
   10024:	00001517          	auipc	a0,0x1
   10028:	bd450513          	addi	a0,a0,-1068 # 10bf8 <__libc_fini_array>
   1002c:	389000ef          	jal	10bb4 <atexit>
   10030:	425000ef          	jal	10c54 <__libc_init_array>
   10034:	00012503          	lw	a0,0(sp)
   10038:	00810593          	addi	a1,sp,8
   1003c:	00000613          	li	a2,0
   10040:	288000ef          	jal	102c8 <main>
   10044:	3850006f          	j	10bc8 <exit>

0000000000010048 <_fini>:
   10048:	00008067          	ret

000000000001004c <deregister_tm_clones>:
   1004c:	00024537          	lui	a0,0x24
   10050:	000247b7          	lui	a5,0x24
   10054:	3c850713          	addi	a4,a0,968 # 243c8 <__TMC_END__>
   10058:	3cf78793          	addi	a5,a5,975 # 243cf <__TMC_END__+0x7>
   1005c:	40e787b3          	sub	a5,a5,a4
   10060:	00e00713          	li	a4,14
   10064:	00f77c63          	bleu	a5,a4,1007c <deregister_tm_clones+0x30>
   10068:	00000337          	lui	t1,0x0
   1006c:	00030313          	mv	t1,t1
   10070:	00030663          	beqz	t1,1007c <deregister_tm_clones+0x30>
   10074:	3c850513          	addi	a0,a0,968
   10078:	00030067          	jr	t1
   1007c:	00008067          	ret

0000000000010080 <register_tm_clones>:
   10080:	00024537          	lui	a0,0x24
   10084:	000247b7          	lui	a5,0x24
   10088:	3c850593          	addi	a1,a0,968 # 243c8 <__TMC_END__>
   1008c:	3c878793          	addi	a5,a5,968 # 243c8 <__TMC_END__>
   10090:	40b787b3          	sub	a5,a5,a1
   10094:	4037d793          	srai	a5,a5,0x3
   10098:	03f7d593          	srli	a1,a5,0x3f
   1009c:	00f585b3          	add	a1,a1,a5
   100a0:	4015d593          	srai	a1,a1,0x1
   100a4:	00058c63          	beqz	a1,100bc <register_tm_clones+0x3c>
   100a8:	00000337          	lui	t1,0x0
   100ac:	00030313          	mv	t1,t1
   100b0:	00030663          	beqz	t1,100bc <register_tm_clones+0x3c>
   100b4:	3c850513          	addi	a0,a0,968
   100b8:	00030067          	jr	t1
   100bc:	00008067          	ret

00000000000100c0 <__do_global_dtors_aux>:
   100c0:	ff010113          	addi	sp,sp,-16
   100c4:	00813023          	sd	s0,0(sp)
   100c8:	9301c783          	lbu	a5,-1744(gp) # 24500 <_bss_start>
   100cc:	00113423          	sd	ra,8(sp)
   100d0:	02079663          	bnez	a5,100fc <__do_global_dtors_aux+0x3c>
   100d4:	f79ff0ef          	jal	1004c <deregister_tm_clones>
   100d8:	000007b7          	lui	a5,0x0
   100dc:	00078793          	mv	a5,a5
   100e0:	00078a63          	beqz	a5,100f4 <__do_global_dtors_aux+0x34>
   100e4:	00022537          	lui	a0,0x22
   100e8:	d3850513          	addi	a0,a0,-712 # 21d38 <__fini_array_end>
   100ec:	ffff0317          	auipc	t1,0xffff0
   100f0:	f14300e7          	jalr	t1,-236 # 0 <_ftext-0x10000>
   100f4:	00100793          	li	a5,1
   100f8:	92f18823          	sb	a5,-1744(gp) # 24500 <_bss_start>
   100fc:	00813083          	ld	ra,8(sp)
   10100:	00013403          	ld	s0,0(sp)
   10104:	01010113          	addi	sp,sp,16
   10108:	00008067          	ret

000000000001010c <frame_dummy>:
   1010c:	ff010113          	addi	sp,sp,-16
   10110:	000007b7          	lui	a5,0x0
   10114:	00113423          	sd	ra,8(sp)
   10118:	00078793          	mv	a5,a5
   1011c:	00078c63          	beqz	a5,10134 <frame_dummy+0x28>
   10120:	00022537          	lui	a0,0x22
   10124:	93818593          	addi	a1,gp,-1736 # 24508 <object.3092>
   10128:	d3850513          	addi	a0,a0,-712 # 21d38 <__fini_array_end>
   1012c:	ffff0317          	auipc	t1,0xffff0
   10130:	ed4300e7          	jalr	t1,-300 # 0 <_ftext-0x10000>
   10134:	000237b7          	lui	a5,0x23
   10138:	3c078513          	addi	a0,a5,960 # 233c0 <__JCR_END__>
   1013c:	00053783          	ld	a5,0(a0)
   10140:	00079863          	bnez	a5,10150 <frame_dummy+0x44>
   10144:	00813083          	ld	ra,8(sp)
   10148:	01010113          	addi	sp,sp,16
   1014c:	f35ff06f          	j	10080 <register_tm_clones>
   10150:	000007b7          	lui	a5,0x0
   10154:	00078793          	mv	a5,a5
   10158:	fe0786e3          	beqz	a5,10144 <frame_dummy+0x38>
   1015c:	000780e7          	jalr	a5
   10160:	fe5ff06f          	j	10144 <frame_dummy+0x38>

0000000000010164 <Proc_2>:
   10164:	000277b7          	lui	a5,0x27
   10168:	cac7c703          	lbu	a4,-852(a5) # 26cac <Ch_1_Glob>
   1016c:	04100793          	li	a5,65
   10170:	00f71e63          	bne	a4,a5,1018c <Proc_2+0x28>
   10174:	00052783          	lw	a5,0(a0)
   10178:	0097879b          	addiw	a5,a5,9
   1017c:	00027737          	lui	a4,0x27
   10180:	ca872703          	lw	a4,-856(a4) # 26ca8 <Int_Glob>
   10184:	40e787bb          	subw	a5,a5,a4
   10188:	00f52023          	sw	a5,0(a0)
   1018c:	00008067          	ret

0000000000010190 <Proc_3>:
   10190:	ff010113          	addi	sp,sp,-16
   10194:	00113423          	sd	ra,8(sp)
   10198:	000277b7          	lui	a5,0x27
   1019c:	cb07b783          	ld	a5,-848(a5) # 26cb0 <Ptr_Glob>
   101a0:	00078663          	beqz	a5,101ac <Proc_3+0x1c>
   101a4:	0007b783          	ld	a5,0(a5)
   101a8:	00f53023          	sd	a5,0(a0)
   101ac:	000277b7          	lui	a5,0x27
   101b0:	cb07b603          	ld	a2,-848(a5) # 26cb0 <Ptr_Glob>
   101b4:	01060613          	addi	a2,a2,16
   101b8:	000277b7          	lui	a5,0x27
   101bc:	ca87a583          	lw	a1,-856(a5) # 26ca8 <Int_Glob>
   101c0:	00a00513          	li	a0,10
   101c4:	0ad000ef          	jal	10a70 <Proc_7>
   101c8:	00813083          	ld	ra,8(sp)
   101cc:	01010113          	addi	sp,sp,16
   101d0:	00008067          	ret

00000000000101d4 <Proc_1>:
   101d4:	fe010113          	addi	sp,sp,-32
   101d8:	00113c23          	sd	ra,24(sp)
   101dc:	00813823          	sd	s0,16(sp)
   101e0:	00913423          	sd	s1,8(sp)
   101e4:	00050493          	mv	s1,a0
   101e8:	00053403          	ld	s0,0(a0)
   101ec:	03800613          	li	a2,56
   101f0:	000277b7          	lui	a5,0x27
   101f4:	cb07b583          	ld	a1,-848(a5) # 26cb0 <Ptr_Glob>
   101f8:	00040513          	mv	a0,s0
   101fc:	280010ef          	jal	1147c <memcpy>
   10200:	00500793          	li	a5,5
   10204:	00f4a823          	sw	a5,16(s1)
   10208:	00f42823          	sw	a5,16(s0)
   1020c:	0004b783          	ld	a5,0(s1)
   10210:	00f43023          	sd	a5,0(s0)
   10214:	00040513          	mv	a0,s0
   10218:	f79ff0ef          	jal	10190 <Proc_3>
   1021c:	00842783          	lw	a5,8(s0)
   10220:	02079e63          	bnez	a5,1025c <Proc_1+0x88>
   10224:	00600793          	li	a5,6
   10228:	00f42823          	sw	a5,16(s0)
   1022c:	00c40593          	addi	a1,s0,12
   10230:	00c4a503          	lw	a0,12(s1)
   10234:	7c8000ef          	jal	109fc <Proc_6>
   10238:	000277b7          	lui	a5,0x27
   1023c:	cb07b783          	ld	a5,-848(a5) # 26cb0 <Ptr_Glob>
   10240:	0007b783          	ld	a5,0(a5)
   10244:	00f43023          	sd	a5,0(s0)
   10248:	01040613          	addi	a2,s0,16
   1024c:	00a00593          	li	a1,10
   10250:	01042503          	lw	a0,16(s0)
   10254:	01d000ef          	jal	10a70 <Proc_7>
   10258:	0140006f          	j	1026c <Proc_1+0x98>
   1025c:	03800613          	li	a2,56
   10260:	0004b583          	ld	a1,0(s1)
   10264:	00048513          	mv	a0,s1
   10268:	214010ef          	jal	1147c <memcpy>
   1026c:	01813083          	ld	ra,24(sp)
   10270:	01013403          	ld	s0,16(sp)
   10274:	00813483          	ld	s1,8(sp)
   10278:	02010113          	addi	sp,sp,32
   1027c:	00008067          	ret

0000000000010280 <Proc_4>:
   10280:	000276b7          	lui	a3,0x27
   10284:	000277b7          	lui	a5,0x27
   10288:	cac7c783          	lbu	a5,-852(a5) # 26cac <Ch_1_Glob>
   1028c:	fbf7879b          	addiw	a5,a5,-65
   10290:	0017b793          	seqz	a5,a5
   10294:	d806a703          	lw	a4,-640(a3) # 26d80 <Bool_Glob>
   10298:	00e7e7b3          	or	a5,a5,a4
   1029c:	d8f6a023          	sw	a5,-640(a3)
   102a0:	04200713          	li	a4,66
   102a4:	000277b7          	lui	a5,0x27
   102a8:	cae786a3          	sb	a4,-851(a5) # 26cad <Ch_2_Glob>
   102ac:	00008067          	ret

00000000000102b0 <Proc_5>:
   102b0:	04100713          	li	a4,65
   102b4:	000277b7          	lui	a5,0x27
   102b8:	cae78623          	sb	a4,-852(a5) # 26cac <Ch_1_Glob>
   102bc:	000277b7          	lui	a5,0x27
   102c0:	d807a023          	sw	zero,-640(a5) # 26d80 <Bool_Glob>
   102c4:	00008067          	ret

00000000000102c8 <main>:
   102c8:	f3010113          	addi	sp,sp,-208
   102cc:	0c113423          	sd	ra,200(sp)
   102d0:	0c813023          	sd	s0,192(sp)
   102d4:	0a913c23          	sd	s1,184(sp)
   102d8:	0b213823          	sd	s2,176(sp)
   102dc:	0b313423          	sd	s3,168(sp)
   102e0:	0b413023          	sd	s4,160(sp)
   102e4:	09513c23          	sd	s5,152(sp)
   102e8:	09613823          	sd	s6,144(sp)
   102ec:	09713423          	sd	s7,136(sp)
   102f0:	09813023          	sd	s8,128(sp)
   102f4:	07913c23          	sd	s9,120(sp)
   102f8:	07a13823          	sd	s10,112(sp)
   102fc:	07b13423          	sd	s11,104(sp)
   10300:	03800513          	li	a0,56
   10304:	1f1000ef          	jal	10cf4 <malloc>
   10308:	00050493          	mv	s1,a0
   1030c:	000277b7          	lui	a5,0x27
   10310:	caa7b023          	sd	a0,-864(a5) # 26ca0 <Next_Ptr_Glob>
   10314:	03800513          	li	a0,56
   10318:	1dd000ef          	jal	10cf4 <malloc>
   1031c:	000277b7          	lui	a5,0x27
   10320:	caa7b823          	sd	a0,-848(a5) # 26cb0 <Ptr_Glob>
   10324:	00953023          	sd	s1,0(a0)
   10328:	00052423          	sw	zero,8(a0)
   1032c:	00200793          	li	a5,2
   10330:	00f52623          	sw	a5,12(a0)
   10334:	02800793          	li	a5,40
   10338:	00f52823          	sw	a5,16(a0)
   1033c:	000217b7          	lui	a5,0x21
   10340:	6207ae03          	lw	t3,1568(a5) # 21620 <zeroes.4123+0x10>
   10344:	62078793          	addi	a5,a5,1568
   10348:	0047a303          	lw	t1,4(a5)
   1034c:	0087a883          	lw	a7,8(a5)
   10350:	00c7a803          	lw	a6,12(a5)
   10354:	0107a583          	lw	a1,16(a5)
   10358:	0147a603          	lw	a2,20(a5)
   1035c:	0187a683          	lw	a3,24(a5)
   10360:	01c52a23          	sw	t3,20(a0)
   10364:	00652c23          	sw	t1,24(a0)
   10368:	01152e23          	sw	a7,28(a0)
   1036c:	03052023          	sw	a6,32(a0)
   10370:	02b52223          	sw	a1,36(a0)
   10374:	02c52423          	sw	a2,40(a0)
   10378:	02d52623          	sw	a3,44(a0)
   1037c:	01c7d683          	lhu	a3,28(a5)
   10380:	02d51823          	sh	a3,48(a0)
   10384:	01e7c783          	lbu	a5,30(a5)
   10388:	02f50923          	sb	a5,50(a0)
   1038c:	000227b7          	lui	a5,0x22
   10390:	c107b703          	ld	a4,-1008(a5) # 21c10 <zeroes.4123+0x600>
   10394:	02e13823          	sd	a4,48(sp)
   10398:	c1078793          	addi	a5,a5,-1008
   1039c:	0087b703          	ld	a4,8(a5)
   103a0:	02e13c23          	sd	a4,56(sp)
   103a4:	0107b703          	ld	a4,16(a5)
   103a8:	04e13023          	sd	a4,64(sp)
   103ac:	0187a703          	lw	a4,24(a5)
   103b0:	04e12423          	sw	a4,72(sp)
   103b4:	01c7d703          	lhu	a4,28(a5)
   103b8:	04e11623          	sh	a4,76(sp)
   103bc:	01e7c783          	lbu	a5,30(a5)
   103c0:	04f10723          	sb	a5,78(sp)
   103c4:	00a00493          	li	s1,10
   103c8:	0091aa23          	sw	s1,20(gp) # 24be4 <_gp+0x14>
   103cc:	00048513          	mv	a0,s1
   103d0:	270010ef          	jal	11640 <putchar>
   103d4:	00021537          	lui	a0,0x21
   103d8:	64050513          	addi	a0,a0,1600 # 21640 <zeroes.4123+0x30>
   103dc:	488010ef          	jal	11864 <puts>
   103e0:	00048513          	mv	a0,s1
   103e4:	25c010ef          	jal	11640 <putchar>
   103e8:	8f81a783          	lw	a5,-1800(gp) # 244c8 <Reg>
   103ec:	00078e63          	beqz	a5,10408 <main+0x140>
   103f0:	00021537          	lui	a0,0x21
   103f4:	67050513          	addi	a0,a0,1648 # 21670 <zeroes.4123+0x60>
   103f8:	46c010ef          	jal	11864 <puts>
   103fc:	00048513          	mv	a0,s1
   10400:	240010ef          	jal	11640 <putchar>
   10404:	0180006f          	j	1041c <main+0x154>
   10408:	00021537          	lui	a0,0x21
   1040c:	6a050513          	addi	a0,a0,1696 # 216a0 <zeroes.4123+0x90>
   10410:	454010ef          	jal	11864 <puts>
   10414:	00a00513          	li	a0,10
   10418:	228010ef          	jal	11640 <putchar>
   1041c:	00021537          	lui	a0,0x21
   10420:	6d050513          	addi	a0,a0,1744 # 216d0 <zeroes.4123+0xc0>
   10424:	1c4010ef          	jal	115e8 <printf>
   10428:	00c10593          	addi	a1,sp,12
   1042c:	00021537          	lui	a0,0x21
   10430:	70850513          	addi	a0,a0,1800 # 21708 <zeroes.4123+0xf8>
   10434:	43c010ef          	jal	11870 <scanf>
   10438:	00c12b83          	lw	s7,12(sp)
   1043c:	00a00513          	li	a0,10
   10440:	200010ef          	jal	11640 <putchar>
   10444:	000b8593          	mv	a1,s7
   10448:	00021537          	lui	a0,0x21
   1044c:	71050513          	addi	a0,a0,1808 # 21710 <zeroes.4123+0x100>
   10450:	198010ef          	jal	115e8 <printf>
   10454:	000274b7          	lui	s1,0x27
   10458:	d8848513          	addi	a0,s1,-632 # 26d88 <time_info>
   1045c:	0e0100ef          	jal	2053c <times>
   10460:	d884b703          	ld	a4,-632(s1)
   10464:	9ae1b823          	sd	a4,-1616(gp) # 24580 <Begin_Time>
   10468:	19705a63          	blez	s7,105fc <main+0x334>
   1046c:	00100a13          	li	s4,1
   10470:	00022d37          	lui	s10,0x22
   10474:	c30d3d83          	ld	s11,-976(s10) # 21c30 <zeroes.4123+0x620>
   10478:	00300493          	li	s1,3
   1047c:	00022c37          	lui	s8,0x22
   10480:	c50c3c83          	ld	s9,-944(s8) # 21c50 <zeroes.4123+0x640>
   10484:	e2dff0ef          	jal	102b0 <Proc_5>
   10488:	df9ff0ef          	jal	10280 <Proc_4>
   1048c:	00200413          	li	s0,2
   10490:	04812e23          	sw	s0,92(sp)
   10494:	01b13823          	sd	s11,16(sp)
   10498:	c30d0793          	addi	a5,s10,-976
   1049c:	0087b703          	ld	a4,8(a5)
   104a0:	00e13c23          	sd	a4,24(sp)
   104a4:	0107b703          	ld	a4,16(a5)
   104a8:	02e13023          	sd	a4,32(sp)
   104ac:	0187a703          	lw	a4,24(a5)
   104b0:	02e12423          	sw	a4,40(sp)
   104b4:	01c7d703          	lhu	a4,28(a5)
   104b8:	02e11623          	sh	a4,44(sp)
   104bc:	01e7c783          	lbu	a5,30(a5)
   104c0:	02f10723          	sb	a5,46(sp)
   104c4:	00100793          	li	a5,1
   104c8:	04f12a23          	sw	a5,84(sp)
   104cc:	01010593          	addi	a1,sp,16
   104d0:	03010513          	addi	a0,sp,48
   104d4:	664000ef          	jal	10b38 <Func_2>
   104d8:	00153513          	seqz	a0,a0
   104dc:	000277b7          	lui	a5,0x27
   104e0:	d8a7a023          	sw	a0,-640(a5) # 26d80 <Bool_Glob>
   104e4:	05c12503          	lw	a0,92(sp)
   104e8:	02a44863          	blt	s0,a0,10518 <main+0x250>
   104ec:	0025179b          	slliw	a5,a0,0x2
   104f0:	00a787bb          	addw	a5,a5,a0
   104f4:	ffd7879b          	addiw	a5,a5,-3
   104f8:	04f12c23          	sw	a5,88(sp)
   104fc:	05810613          	addi	a2,sp,88
   10500:	00048593          	mv	a1,s1
   10504:	56c000ef          	jal	10a70 <Proc_7>
   10508:	05c12503          	lw	a0,92(sp)
   1050c:	0015051b          	addiw	a0,a0,1
   10510:	04a12e23          	sw	a0,92(sp)
   10514:	fca45ce3          	ble	a0,s0,104ec <main+0x224>
   10518:	05812683          	lw	a3,88(sp)
   1051c:	00050613          	mv	a2,a0
   10520:	9b818593          	addi	a1,gp,-1608 # 24588 <Arr_2_Glob>
   10524:	000277b7          	lui	a5,0x27
   10528:	cb878513          	addi	a0,a5,-840 # 26cb8 <Arr_1_Glob>
   1052c:	554000ef          	jal	10a80 <Proc_8>
   10530:	000277b7          	lui	a5,0x27
   10534:	cb07b503          	ld	a0,-848(a5) # 26cb0 <Ptr_Glob>
   10538:	c9dff0ef          	jal	101d4 <Proc_1>
   1053c:	000277b7          	lui	a5,0x27
   10540:	cad7c703          	lbu	a4,-851(a5) # 26cad <Ch_2_Glob>
   10544:	00048a93          	mv	s5,s1
   10548:	04000793          	li	a5,64
   1054c:	06e7fe63          	bleu	a4,a5,105c8 <main+0x300>
   10550:	04100413          	li	s0,65
   10554:	04300993          	li	s3,67
   10558:	00027b37          	lui	s6,0x27
   1055c:	00027937          	lui	s2,0x27
   10560:	00098593          	mv	a1,s3
   10564:	00040513          	mv	a0,s0
   10568:	5ac000ef          	jal	10b14 <Func_1>
   1056c:	05412783          	lw	a5,84(sp)
   10570:	04f51463          	bne	a0,a5,105b8 <main+0x2f0>
   10574:	05410593          	addi	a1,sp,84
   10578:	00000513          	li	a0,0
   1057c:	480000ef          	jal	109fc <Proc_6>
   10580:	01913823          	sd	s9,16(sp)
   10584:	c50c0793          	addi	a5,s8,-944
   10588:	0087b703          	ld	a4,8(a5)
   1058c:	00e13c23          	sd	a4,24(sp)
   10590:	0107b703          	ld	a4,16(a5)
   10594:	02e13023          	sd	a4,32(sp)
   10598:	0187a703          	lw	a4,24(a5)
   1059c:	02e12423          	sw	a4,40(sp)
   105a0:	01c7d703          	lhu	a4,28(a5)
   105a4:	02e11623          	sh	a4,44(sp)
   105a8:	01e7c783          	lbu	a5,30(a5)
   105ac:	02f10723          	sb	a5,46(sp)
   105b0:	cb4b2423          	sw	s4,-856(s6) # 26ca8 <Int_Glob>
   105b4:	000a0a93          	mv	s5,s4
   105b8:	0014041b          	addiw	s0,s0,1
   105bc:	0ff47413          	andi	s0,s0,255
   105c0:	cad94783          	lbu	a5,-851(s2) # 26cad <Ch_2_Glob>
   105c4:	f887fee3          	bleu	s0,a5,10560 <main+0x298>
   105c8:	05c12783          	lw	a5,92(sp)
   105cc:	02fa8abb          	mulw	s5,s5,a5
   105d0:	05812903          	lw	s2,88(sp)
   105d4:	032ac43b          	divw	s0,s5,s2
   105d8:	04812e23          	sw	s0,92(sp)
   105dc:	05c10513          	addi	a0,sp,92
   105e0:	b85ff0ef          	jal	10164 <Proc_2>
   105e4:	001a0a1b          	addiw	s4,s4,1
   105e8:	e94bdee3          	ble	s4,s7,10484 <main+0x1bc>
   105ec:	412a8abb          	subw	s5,s5,s2
   105f0:	003a979b          	slliw	a5,s5,0x3
   105f4:	41578abb          	subw	s5,a5,s5
   105f8:	408a843b          	subw	s0,s5,s0
   105fc:	000274b7          	lui	s1,0x27
   10600:	d8848513          	addi	a0,s1,-632 # 26d88 <time_info>
   10604:	7390f0ef          	jal	2053c <times>
   10608:	000279b7          	lui	s3,0x27
   1060c:	d884b783          	ld	a5,-632(s1)
   10610:	c8f9bc23          	sd	a5,-872(s3) # 26c98 <End_Time>
   10614:	00021537          	lui	a0,0x21
   10618:	74050513          	addi	a0,a0,1856 # 21740 <zeroes.4123+0x130>
   1061c:	248010ef          	jal	11864 <puts>
   10620:	00a00513          	li	a0,10
   10624:	01c010ef          	jal	11640 <putchar>
   10628:	00021537          	lui	a0,0x21
   1062c:	75050513          	addi	a0,a0,1872 # 21750 <zeroes.4123+0x140>
   10630:	234010ef          	jal	11864 <puts>
   10634:	00a00513          	li	a0,10
   10638:	008010ef          	jal	11640 <putchar>
   1063c:	000277b7          	lui	a5,0x27
   10640:	ca87a583          	lw	a1,-856(a5) # 26ca8 <Int_Glob>
   10644:	00021537          	lui	a0,0x21
   10648:	78850513          	addi	a0,a0,1928 # 21788 <zeroes.4123+0x178>
   1064c:	79d000ef          	jal	115e8 <printf>
   10650:	00500593          	li	a1,5
   10654:	000214b7          	lui	s1,0x21
   10658:	7a848513          	addi	a0,s1,1960 # 217a8 <zeroes.4123+0x198>
   1065c:	78d000ef          	jal	115e8 <printf>
   10660:	000277b7          	lui	a5,0x27
   10664:	d807a583          	lw	a1,-640(a5) # 26d80 <Bool_Glob>
   10668:	00021537          	lui	a0,0x21
   1066c:	7c850513          	addi	a0,a0,1992 # 217c8 <zeroes.4123+0x1b8>
   10670:	779000ef          	jal	115e8 <printf>
   10674:	00100593          	li	a1,1
   10678:	7a848513          	addi	a0,s1,1960
   1067c:	76d000ef          	jal	115e8 <printf>
   10680:	000277b7          	lui	a5,0x27
   10684:	cac7c583          	lbu	a1,-852(a5) # 26cac <Ch_1_Glob>
   10688:	00021537          	lui	a0,0x21
   1068c:	7e850513          	addi	a0,a0,2024 # 217e8 <zeroes.4123+0x1d8>
   10690:	759000ef          	jal	115e8 <printf>
   10694:	04100593          	li	a1,65
   10698:	00022937          	lui	s2,0x22
   1069c:	80890513          	addi	a0,s2,-2040 # 21808 <zeroes.4123+0x1f8>
   106a0:	749000ef          	jal	115e8 <printf>
   106a4:	000277b7          	lui	a5,0x27
   106a8:	cad7c583          	lbu	a1,-851(a5) # 26cad <Ch_2_Glob>
   106ac:	00022537          	lui	a0,0x22
   106b0:	82850513          	addi	a0,a0,-2008 # 21828 <zeroes.4123+0x218>
   106b4:	735000ef          	jal	115e8 <printf>
   106b8:	04200593          	li	a1,66
   106bc:	80890513          	addi	a0,s2,-2040
   106c0:	729000ef          	jal	115e8 <printf>
   106c4:	000277b7          	lui	a5,0x27
   106c8:	cd87a583          	lw	a1,-808(a5) # 26cd8 <Arr_1_Glob+0x20>
   106cc:	00022537          	lui	a0,0x22
   106d0:	84850513          	addi	a0,a0,-1976 # 21848 <zeroes.4123+0x238>
   106d4:	715000ef          	jal	115e8 <printf>
   106d8:	00700593          	li	a1,7
   106dc:	7a848513          	addi	a0,s1,1960
   106e0:	709000ef          	jal	115e8 <printf>
   106e4:	0141a583          	lw	a1,20(gp) # 24be4 <_gp+0x14>
   106e8:	00022537          	lui	a0,0x22
   106ec:	86850513          	addi	a0,a0,-1944 # 21868 <zeroes.4123+0x258>
   106f0:	6f9000ef          	jal	115e8 <printf>
   106f4:	00022537          	lui	a0,0x22
   106f8:	88850513          	addi	a0,a0,-1912 # 21888 <zeroes.4123+0x278>
   106fc:	168010ef          	jal	11864 <puts>
   10700:	00022537          	lui	a0,0x22
   10704:	8b850513          	addi	a0,a0,-1864 # 218b8 <zeroes.4123+0x2a8>
   10708:	15c010ef          	jal	11864 <puts>
   1070c:	00027937          	lui	s2,0x27
   10710:	cb093783          	ld	a5,-848(s2) # 26cb0 <Ptr_Glob>
   10714:	0007a583          	lw	a1,0(a5)
   10718:	00022d37          	lui	s10,0x22
   1071c:	8c8d0513          	addi	a0,s10,-1848 # 218c8 <zeroes.4123+0x2b8>
   10720:	6c9000ef          	jal	115e8 <printf>
   10724:	00022537          	lui	a0,0x22
   10728:	8e850513          	addi	a0,a0,-1816 # 218e8 <zeroes.4123+0x2d8>
   1072c:	138010ef          	jal	11864 <puts>
   10730:	cb093783          	ld	a5,-848(s2)
   10734:	0087a583          	lw	a1,8(a5)
   10738:	00022cb7          	lui	s9,0x22
   1073c:	918c8513          	addi	a0,s9,-1768 # 21918 <zeroes.4123+0x308>
   10740:	6a9000ef          	jal	115e8 <printf>
   10744:	00000593          	li	a1,0
   10748:	7a848513          	addi	a0,s1,1960
   1074c:	69d000ef          	jal	115e8 <printf>
   10750:	cb093783          	ld	a5,-848(s2)
   10754:	00c7a583          	lw	a1,12(a5)
   10758:	00022c37          	lui	s8,0x22
   1075c:	938c0513          	addi	a0,s8,-1736 # 21938 <zeroes.4123+0x328>
   10760:	689000ef          	jal	115e8 <printf>
   10764:	00200593          	li	a1,2
   10768:	7a848513          	addi	a0,s1,1960
   1076c:	67d000ef          	jal	115e8 <printf>
   10770:	cb093783          	ld	a5,-848(s2)
   10774:	0107a583          	lw	a1,16(a5)
   10778:	00022b37          	lui	s6,0x22
   1077c:	958b0513          	addi	a0,s6,-1704 # 21958 <zeroes.4123+0x348>
   10780:	669000ef          	jal	115e8 <printf>
   10784:	01100593          	li	a1,17
   10788:	7a848513          	addi	a0,s1,1960
   1078c:	65d000ef          	jal	115e8 <printf>
   10790:	cb093583          	ld	a1,-848(s2)
   10794:	01458593          	addi	a1,a1,20
   10798:	00022ab7          	lui	s5,0x22
   1079c:	978a8513          	addi	a0,s5,-1672 # 21978 <zeroes.4123+0x368>
   107a0:	649000ef          	jal	115e8 <printf>
   107a4:	00022a37          	lui	s4,0x22
   107a8:	998a0513          	addi	a0,s4,-1640 # 21998 <zeroes.4123+0x388>
   107ac:	0b8010ef          	jal	11864 <puts>
   107b0:	00022537          	lui	a0,0x22
   107b4:	9d050513          	addi	a0,a0,-1584 # 219d0 <zeroes.4123+0x3c0>
   107b8:	0ac010ef          	jal	11864 <puts>
   107bc:	00027937          	lui	s2,0x27
   107c0:	ca093783          	ld	a5,-864(s2) # 26ca0 <Next_Ptr_Glob>
   107c4:	0007a583          	lw	a1,0(a5)
   107c8:	8c8d0513          	addi	a0,s10,-1848
   107cc:	61d000ef          	jal	115e8 <printf>
   107d0:	00022537          	lui	a0,0x22
   107d4:	9e050513          	addi	a0,a0,-1568 # 219e0 <zeroes.4123+0x3d0>
   107d8:	08c010ef          	jal	11864 <puts>
   107dc:	ca093783          	ld	a5,-864(s2)
   107e0:	0087a583          	lw	a1,8(a5)
   107e4:	918c8513          	addi	a0,s9,-1768
   107e8:	601000ef          	jal	115e8 <printf>
   107ec:	00000593          	li	a1,0
   107f0:	7a848513          	addi	a0,s1,1960
   107f4:	5f5000ef          	jal	115e8 <printf>
   107f8:	ca093783          	ld	a5,-864(s2)
   107fc:	00c7a583          	lw	a1,12(a5)
   10800:	938c0513          	addi	a0,s8,-1736
   10804:	5e5000ef          	jal	115e8 <printf>
   10808:	00100593          	li	a1,1
   1080c:	7a848513          	addi	a0,s1,1960
   10810:	5d9000ef          	jal	115e8 <printf>
   10814:	ca093783          	ld	a5,-864(s2)
   10818:	0107a583          	lw	a1,16(a5)
   1081c:	958b0513          	addi	a0,s6,-1704
   10820:	5c9000ef          	jal	115e8 <printf>
   10824:	01200593          	li	a1,18
   10828:	7a848513          	addi	a0,s1,1960
   1082c:	5bd000ef          	jal	115e8 <printf>
   10830:	ca093583          	ld	a1,-864(s2)
   10834:	01458593          	addi	a1,a1,20
   10838:	978a8513          	addi	a0,s5,-1672
   1083c:	5ad000ef          	jal	115e8 <printf>
   10840:	998a0513          	addi	a0,s4,-1640
   10844:	020010ef          	jal	11864 <puts>
   10848:	05c12583          	lw	a1,92(sp)
   1084c:	00022537          	lui	a0,0x22
   10850:	a2050513          	addi	a0,a0,-1504 # 21a20 <zeroes.4123+0x410>
   10854:	595000ef          	jal	115e8 <printf>
   10858:	00500593          	li	a1,5
   1085c:	7a848513          	addi	a0,s1,1960
   10860:	589000ef          	jal	115e8 <printf>
   10864:	00040593          	mv	a1,s0
   10868:	00022537          	lui	a0,0x22
   1086c:	a4050513          	addi	a0,a0,-1472 # 21a40 <zeroes.4123+0x430>
   10870:	579000ef          	jal	115e8 <printf>
   10874:	00d00593          	li	a1,13
   10878:	7a848513          	addi	a0,s1,1960
   1087c:	56d000ef          	jal	115e8 <printf>
   10880:	05812583          	lw	a1,88(sp)
   10884:	00022537          	lui	a0,0x22
   10888:	a6050513          	addi	a0,a0,-1440 # 21a60 <zeroes.4123+0x450>
   1088c:	55d000ef          	jal	115e8 <printf>
   10890:	00700593          	li	a1,7
   10894:	7a848513          	addi	a0,s1,1960
   10898:	551000ef          	jal	115e8 <printf>
   1089c:	05412583          	lw	a1,84(sp)
   108a0:	00022537          	lui	a0,0x22
   108a4:	a8050513          	addi	a0,a0,-1408 # 21a80 <zeroes.4123+0x470>
   108a8:	541000ef          	jal	115e8 <printf>
   108ac:	00100593          	li	a1,1
   108b0:	7a848513          	addi	a0,s1,1960
   108b4:	535000ef          	jal	115e8 <printf>
   108b8:	03010593          	addi	a1,sp,48
   108bc:	00022537          	lui	a0,0x22
   108c0:	aa050513          	addi	a0,a0,-1376 # 21aa0 <zeroes.4123+0x490>
   108c4:	525000ef          	jal	115e8 <printf>
   108c8:	00022537          	lui	a0,0x22
   108cc:	ac050513          	addi	a0,a0,-1344 # 21ac0 <zeroes.4123+0x4b0>
   108d0:	795000ef          	jal	11864 <puts>
   108d4:	01010593          	addi	a1,sp,16
   108d8:	00022537          	lui	a0,0x22
   108dc:	af850513          	addi	a0,a0,-1288 # 21af8 <zeroes.4123+0x4e8>
   108e0:	509000ef          	jal	115e8 <printf>
   108e4:	00022537          	lui	a0,0x22
   108e8:	b1850513          	addi	a0,a0,-1256 # 21b18 <zeroes.4123+0x508>
   108ec:	779000ef          	jal	11864 <puts>
   108f0:	00a00513          	li	a0,10
   108f4:	54d000ef          	jal	11640 <putchar>
   108f8:	c989b783          	ld	a5,-872(s3)
   108fc:	9b01b703          	ld	a4,-1616(gp) # 24580 <Begin_Time>
   10900:	40e787b3          	sub	a5,a5,a4
   10904:	9af1b423          	sd	a5,-1624(gp) # 24578 <User_Time>
   10908:	07700713          	li	a4,119
   1090c:	02f74463          	blt	a4,a5,10934 <main+0x66c>
   10910:	00022537          	lui	a0,0x22
   10914:	b5050513          	addi	a0,a0,-1200 # 21b50 <zeroes.4123+0x540>
   10918:	74d000ef          	jal	11864 <puts>
   1091c:	00022537          	lui	a0,0x22
   10920:	b8850513          	addi	a0,a0,-1144 # 21b88 <zeroes.4123+0x578>
   10924:	741000ef          	jal	11864 <puts>
   10928:	00a00513          	li	a0,10
   1092c:	515000ef          	jal	11640 <putchar>
   10930:	08c0006f          	j	109bc <main+0x6f4>
   10934:	d027f753          	fcvt.s.l	fa4,a5
   10938:	d00bf6d3          	fcvt.s.w	fa3,s7
   1093c:	000247b7          	lui	a5,0x24
   10940:	4207a787          	flw	fa5,1056(a5) # 24420 <__wctomb+0x10>
   10944:	10f6f7d3          	fmul.s	fa5,fa3,fa5
   10948:	420706d3          	fcvt.d.s	fa3,fa4
   1094c:	000247b7          	lui	a5,0x24
   10950:	4187b607          	fld	fa2,1048(a5) # 24418 <__wctomb+0x8>
   10954:	12c6f6d3          	fmul.d	fa3,fa3,fa2
   10958:	42078653          	fcvt.d.s	fa2,fa5
   1095c:	1ac6f6d3          	fdiv.d	fa3,fa3,fa2
   10960:	4016f6d3          	fcvt.s.d	fa3,fa3
   10964:	9ad1a027          	fsw	fa3,-1632(gp) # 24570 <Microseconds>
   10968:	18e7f7d3          	fdiv.s	fa5,fa5,fa4
   1096c:	9af1a227          	fsw	fa5,-1628(gp) # 24574 <Dhrystones_Per_Second>
   10970:	00022537          	lui	a0,0x22
   10974:	ba850513          	addi	a0,a0,-1112 # 21ba8 <zeroes.4123+0x598>
   10978:	471000ef          	jal	115e8 <printf>
   1097c:	9a01a787          	flw	fa5,-1632(gp) # 24570 <Microseconds>
   10980:	00022437          	lui	s0,0x22
   10984:	420787d3          	fcvt.d.s	fa5,fa5
   10988:	e20785d3          	fmv.x.d	a1,fa5
   1098c:	bd840513          	addi	a0,s0,-1064 # 21bd8 <zeroes.4123+0x5c8>
   10990:	459000ef          	jal	115e8 <printf>
   10994:	00022537          	lui	a0,0x22
   10998:	be050513          	addi	a0,a0,-1056 # 21be0 <zeroes.4123+0x5d0>
   1099c:	44d000ef          	jal	115e8 <printf>
   109a0:	9a41a787          	flw	fa5,-1628(gp) # 24574 <Dhrystones_Per_Second>
   109a4:	420787d3          	fcvt.d.s	fa5,fa5
   109a8:	e20785d3          	fmv.x.d	a1,fa5
   109ac:	bd840513          	addi	a0,s0,-1064
   109b0:	439000ef          	jal	115e8 <printf>
   109b4:	00a00513          	li	a0,10
   109b8:	489000ef          	jal	11640 <putchar>
   109bc:	00000513          	li	a0,0
   109c0:	0c813083          	ld	ra,200(sp)
   109c4:	0c013403          	ld	s0,192(sp)
   109c8:	0b813483          	ld	s1,184(sp)
   109cc:	0b013903          	ld	s2,176(sp)
   109d0:	0a813983          	ld	s3,168(sp)
   109d4:	0a013a03          	ld	s4,160(sp)
   109d8:	09813a83          	ld	s5,152(sp)
   109dc:	09013b03          	ld	s6,144(sp)
   109e0:	08813b83          	ld	s7,136(sp)
   109e4:	08013c03          	ld	s8,128(sp)
   109e8:	07813c83          	ld	s9,120(sp)
   109ec:	07013d03          	ld	s10,112(sp)
   109f0:	06813d83          	ld	s11,104(sp)
   109f4:	0d010113          	addi	sp,sp,208
   109f8:	00008067          	ret

00000000000109fc <Proc_6>:
   109fc:	00200793          	li	a5,2
   10a00:	04f50c63          	beq	a0,a5,10a58 <Proc_6+0x5c>
   10a04:	00300793          	li	a5,3
   10a08:	00f5a023          	sw	a5,0(a1)
   10a0c:	00100793          	li	a5,1
   10a10:	02f50263          	beq	a0,a5,10a34 <Proc_6+0x38>
   10a14:	00050c63          	beqz	a0,10a2c <Proc_6+0x30>
   10a18:	00200793          	li	a5,2
   10a1c:	02f50e63          	beq	a0,a5,10a58 <Proc_6+0x5c>
   10a20:	00400793          	li	a5,4
   10a24:	04f50063          	beq	a0,a5,10a64 <Proc_6+0x68>
   10a28:	00008067          	ret
   10a2c:	0005a023          	sw	zero,0(a1)
   10a30:	00008067          	ret
   10a34:	000277b7          	lui	a5,0x27
   10a38:	ca87a703          	lw	a4,-856(a5) # 26ca8 <Int_Glob>
   10a3c:	06400793          	li	a5,100
   10a40:	00e7d663          	ble	a4,a5,10a4c <Proc_6+0x50>
   10a44:	0005a023          	sw	zero,0(a1)
   10a48:	00008067          	ret
   10a4c:	00300793          	li	a5,3
   10a50:	00f5a023          	sw	a5,0(a1)
   10a54:	00008067          	ret
   10a58:	00100793          	li	a5,1
   10a5c:	00f5a023          	sw	a5,0(a1)
   10a60:	00008067          	ret
   10a64:	00200793          	li	a5,2
   10a68:	00f5a023          	sw	a5,0(a1)
   10a6c:	00008067          	ret

0000000000010a70 <Proc_7>:
   10a70:	0025051b          	addiw	a0,a0,2
   10a74:	00b505bb          	addw	a1,a0,a1
   10a78:	00b62023          	sw	a1,0(a2)
   10a7c:	00008067          	ret

0000000000010a80 <Proc_8>:
   10a80:	0056081b          	addiw	a6,a2,5
   10a84:	00080313          	mv	t1,a6
   10a88:	00231793          	slli	a5,t1,0x2
   10a8c:	00f50533          	add	a0,a0,a5
   10a90:	00d52023          	sw	a3,0(a0)
   10a94:	00d52223          	sw	a3,4(a0)
   10a98:	07052c23          	sw	a6,120(a0)
   10a9c:	0066089b          	addiw	a7,a2,6
   10aa0:	0308c463          	blt	a7,a6,10ac8 <Proc_8+0x48>
   10aa4:	0c800693          	li	a3,200
   10aa8:	02d306b3          	mul	a3,t1,a3
   10aac:	00d586b3          	add	a3,a1,a3
   10ab0:	00080713          	mv	a4,a6
   10ab4:	00271793          	slli	a5,a4,0x2
   10ab8:	00f687b3          	add	a5,a3,a5
   10abc:	0107a023          	sw	a6,0(a5)
   10ac0:	0017071b          	addiw	a4,a4,1
   10ac4:	fee8d8e3          	ble	a4,a7,10ab4 <Proc_8+0x34>
   10ac8:	0c800793          	li	a5,200
   10acc:	02f30333          	mul	t1,t1,a5
   10ad0:	00261793          	slli	a5,a2,0x2
   10ad4:	006787b3          	add	a5,a5,t1
   10ad8:	00f587b3          	add	a5,a1,a5
   10adc:	0107a703          	lw	a4,16(a5)
   10ae0:	0017071b          	addiw	a4,a4,1
   10ae4:	00e7a823          	sw	a4,16(a5)
   10ae8:	00052703          	lw	a4,0(a0)
   10aec:	00658333          	add	t1,a1,t1
   10af0:	000017b7          	lui	a5,0x1
   10af4:	00678333          	add	t1,a5,t1
   10af8:	00281813          	slli	a6,a6,0x2
   10afc:	01030833          	add	a6,t1,a6
   10b00:	fae82023          	sw	a4,-96(a6)
   10b04:	00500713          	li	a4,5
   10b08:	000277b7          	lui	a5,0x27
   10b0c:	cae7a423          	sw	a4,-856(a5) # 26ca8 <Int_Glob>
   10b10:	00008067          	ret

0000000000010b14 <Func_1>:
   10b14:	0ff57513          	andi	a0,a0,255
   10b18:	0ff5f593          	andi	a1,a1,255
   10b1c:	00b51a63          	bne	a0,a1,10b30 <Func_1+0x1c>
   10b20:	000277b7          	lui	a5,0x27
   10b24:	caa78623          	sb	a0,-852(a5) # 26cac <Ch_1_Glob>
   10b28:	00100513          	li	a0,1
   10b2c:	00008067          	ret
   10b30:	00000513          	li	a0,0
   10b34:	00008067          	ret

0000000000010b38 <Func_2>:
   10b38:	ff010113          	addi	sp,sp,-16
   10b3c:	00113423          	sd	ra,8(sp)
   10b40:	00813023          	sd	s0,0(sp)
   10b44:	00200413          	li	s0,2
   10b48:	00027637          	lui	a2,0x27
   10b4c:	00040693          	mv	a3,s0
   10b50:	00850733          	add	a4,a0,s0
   10b54:	00074703          	lbu	a4,0(a4)
   10b58:	008587b3          	add	a5,a1,s0
   10b5c:	0017c783          	lbu	a5,1(a5)
   10b60:	02e79863          	bne	a5,a4,10b90 <Func_2+0x58>
   10b64:	cae60623          	sb	a4,-852(a2) # 26cac <Ch_1_Glob>
   10b68:	fe86d4e3          	ble	s0,a3,10b50 <Func_2+0x18>
   10b6c:	599000ef          	jal	11904 <strcmp>
   10b70:	00a05c63          	blez	a0,10b88 <Func_2+0x50>
   10b74:	0074041b          	addiw	s0,s0,7
   10b78:	000277b7          	lui	a5,0x27
   10b7c:	ca87a423          	sw	s0,-856(a5) # 26ca8 <Int_Glob>
   10b80:	00100513          	li	a0,1
   10b84:	0140006f          	j	10b98 <Func_2+0x60>
   10b88:	00000513          	li	a0,0
   10b8c:	00c0006f          	j	10b98 <Func_2+0x60>
   10b90:	0014041b          	addiw	s0,s0,1
   10b94:	fd5ff06f          	j	10b68 <Func_2+0x30>
   10b98:	00813083          	ld	ra,8(sp)
   10b9c:	00013403          	ld	s0,0(sp)
   10ba0:	01010113          	addi	sp,sp,16
   10ba4:	00008067          	ret

0000000000010ba8 <Func_3>:
   10ba8:	ffe5051b          	addiw	a0,a0,-2
   10bac:	00153513          	seqz	a0,a0
   10bb0:	00008067          	ret

0000000000010bb4 <atexit>:
   10bb4:	00050593          	mv	a1,a0
   10bb8:	00000693          	li	a3,0
   10bbc:	00000613          	li	a2,0
   10bc0:	00000513          	li	a0,0
   10bc4:	12c0406f          	j	14cf0 <__register_exitproc>

0000000000010bc8 <exit>:
   10bc8:	ff010113          	addi	sp,sp,-16
   10bcc:	00000593          	li	a1,0
   10bd0:	00813023          	sd	s0,0(sp)
   10bd4:	00113423          	sd	ra,8(sp)
   10bd8:	00050413          	mv	s0,a0
   10bdc:	224040ef          	jal	14e00 <__call_exitprocs>
   10be0:	8081b503          	ld	a0,-2040(gp) # 243d8 <_global_impure_ptr>
   10be4:	05853783          	ld	a5,88(a0)
   10be8:	00078463          	beqz	a5,10bf0 <exit+0x28>
   10bec:	000780e7          	jalr	a5
   10bf0:	00040513          	mv	a0,s0
   10bf4:	2a10f0ef          	jal	20694 <_exit>

0000000000010bf8 <__libc_fini_array>:
   10bf8:	fe010113          	addi	sp,sp,-32
   10bfc:	00813823          	sd	s0,16(sp)
   10c00:	00913423          	sd	s1,8(sp)
   10c04:	00022437          	lui	s0,0x22
   10c08:	000224b7          	lui	s1,0x22
   10c0c:	d3048493          	addi	s1,s1,-720 # 21d30 <__init_array_end>
   10c10:	d3840413          	addi	s0,s0,-712 # 21d38 <__fini_array_end>
   10c14:	40940433          	sub	s0,s0,s1
   10c18:	ff840793          	addi	a5,s0,-8
   10c1c:	00113c23          	sd	ra,24(sp)
   10c20:	40345413          	srai	s0,s0,0x3
   10c24:	009784b3          	add	s1,a5,s1
   10c28:	00040c63          	beqz	s0,10c40 <__libc_fini_array+0x48>
   10c2c:	0004b783          	ld	a5,0(s1)
   10c30:	fff40413          	addi	s0,s0,-1
   10c34:	ff848493          	addi	s1,s1,-8
   10c38:	000780e7          	jalr	a5
   10c3c:	fe0418e3          	bnez	s0,10c2c <__libc_fini_array+0x34>
   10c40:	01813083          	ld	ra,24(sp)
   10c44:	01013403          	ld	s0,16(sp)
   10c48:	00813483          	ld	s1,8(sp)
   10c4c:	02010113          	addi	sp,sp,32
   10c50:	bf8ff06f          	j	10048 <_fini>

0000000000010c54 <__libc_init_array>:
   10c54:	fe010113          	addi	sp,sp,-32
   10c58:	00813823          	sd	s0,16(sp)
   10c5c:	000227b7          	lui	a5,0x22
   10c60:	00022437          	lui	s0,0x22
   10c64:	01213023          	sd	s2,0(sp)
   10c68:	d2878793          	addi	a5,a5,-728 # 21d28 <_etext>
   10c6c:	d2840913          	addi	s2,s0,-728 # 21d28 <_etext>
   10c70:	41278933          	sub	s2,a5,s2
   10c74:	00913423          	sd	s1,8(sp)
   10c78:	00113c23          	sd	ra,24(sp)
   10c7c:	40395913          	srai	s2,s2,0x3
   10c80:	d2840413          	addi	s0,s0,-728
   10c84:	00000493          	li	s1,0
   10c88:	00090c63          	beqz	s2,10ca0 <__libc_init_array+0x4c>
   10c8c:	00043783          	ld	a5,0(s0)
   10c90:	00148493          	addi	s1,s1,1
   10c94:	00840413          	addi	s0,s0,8
   10c98:	000780e7          	jalr	a5
   10c9c:	fe9918e3          	bne	s2,s1,10c8c <__libc_init_array+0x38>
   10ca0:	ba8ff0ef          	jal	10048 <_fini>
   10ca4:	00022437          	lui	s0,0x22
   10ca8:	000227b7          	lui	a5,0x22
   10cac:	d2840913          	addi	s2,s0,-728 # 21d28 <_etext>
   10cb0:	d3078793          	addi	a5,a5,-720 # 21d30 <__init_array_end>
   10cb4:	41278933          	sub	s2,a5,s2
   10cb8:	40395913          	srai	s2,s2,0x3
   10cbc:	d2840413          	addi	s0,s0,-728
   10cc0:	00000493          	li	s1,0
   10cc4:	00090c63          	beqz	s2,10cdc <__libc_init_array+0x88>
   10cc8:	00043783          	ld	a5,0(s0)
   10ccc:	00148493          	addi	s1,s1,1
   10cd0:	00840413          	addi	s0,s0,8
   10cd4:	000780e7          	jalr	a5
   10cd8:	fe9918e3          	bne	s2,s1,10cc8 <__libc_init_array+0x74>
   10cdc:	01813083          	ld	ra,24(sp)
   10ce0:	01013403          	ld	s0,16(sp)
   10ce4:	00813483          	ld	s1,8(sp)
   10ce8:	00013903          	ld	s2,0(sp)
   10cec:	02010113          	addi	sp,sp,32
   10cf0:	00008067          	ret

0000000000010cf4 <malloc>:
   10cf4:	00050593          	mv	a1,a0
   10cf8:	8101b503          	ld	a0,-2032(gp) # 243e0 <_impure_ptr>
   10cfc:	0100006f          	j	10d0c <_malloc_r>

0000000000010d00 <free>:
   10d00:	00050593          	mv	a1,a0
   10d04:	8101b503          	ld	a0,-2032(gp) # 243e0 <_impure_ptr>
   10d08:	74d0506f          	j	16c54 <_free_r>

0000000000010d0c <_malloc_r>:
   10d0c:	fa010113          	addi	sp,sp,-96
   10d10:	04913423          	sd	s1,72(sp)
   10d14:	03313c23          	sd	s3,56(sp)
   10d18:	04113c23          	sd	ra,88(sp)
   10d1c:	04813823          	sd	s0,80(sp)
   10d20:	05213023          	sd	s2,64(sp)
   10d24:	03413823          	sd	s4,48(sp)
   10d28:	03513423          	sd	s5,40(sp)
   10d2c:	03613023          	sd	s6,32(sp)
   10d30:	01713c23          	sd	s7,24(sp)
   10d34:	01813823          	sd	s8,16(sp)
   10d38:	01913423          	sd	s9,8(sp)
   10d3c:	01758493          	addi	s1,a1,23
   10d40:	02e00793          	li	a5,46
   10d44:	00050993          	mv	s3,a0
   10d48:	1c97fa63          	bleu	s1,a5,10f1c <_malloc_r+0x210>
   10d4c:	800007b7          	lui	a5,0x80000
   10d50:	ff04f493          	andi	s1,s1,-16
   10d54:	fff7c793          	not	a5,a5
   10d58:	2497ee63          	bltu	a5,s1,10fb4 <_malloc_r+0x2a8>
   10d5c:	24b4ec63          	bltu	s1,a1,10fb4 <_malloc_r+0x2a8>
   10d60:	03d000ef          	jal	1159c <__malloc_lock>
   10d64:	1f700793          	li	a5,503
   10d68:	7097f063          	bleu	s1,a5,11468 <_malloc_r+0x75c>
   10d6c:	0094d793          	srli	a5,s1,0x9
   10d70:	08000693          	li	a3,128
   10d74:	04000513          	li	a0,64
   10d78:	03f00593          	li	a1,63
   10d7c:	24079463          	bnez	a5,10fc4 <_malloc_r+0x2b8>
   10d80:	00024937          	lui	s2,0x24
   10d84:	b1890913          	addi	s2,s2,-1256 # 23b18 <__malloc_av_>
   10d88:	00369693          	slli	a3,a3,0x3
   10d8c:	00d906b3          	add	a3,s2,a3
   10d90:	0086b403          	ld	s0,8(a3)
   10d94:	ff068693          	addi	a3,a3,-16
   10d98:	24868663          	beq	a3,s0,10fe4 <_malloc_r+0x2d8>
   10d9c:	00843783          	ld	a5,8(s0)
   10da0:	01f00613          	li	a2,31
   10da4:	ffc7f793          	andi	a5,a5,-4
   10da8:	40978733          	sub	a4,a5,s1
   10dac:	02e64063          	blt	a2,a4,10dcc <_malloc_r+0xc0>
   10db0:	22075e63          	bgez	a4,10fec <_malloc_r+0x2e0>
   10db4:	01843403          	ld	s0,24(s0)
   10db8:	22868663          	beq	a3,s0,10fe4 <_malloc_r+0x2d8>
   10dbc:	00843783          	ld	a5,8(s0)
   10dc0:	ffc7f793          	andi	a5,a5,-4
   10dc4:	40978733          	sub	a4,a5,s1
   10dc8:	fee654e3          	ble	a4,a2,10db0 <_malloc_r+0xa4>
   10dcc:	00058693          	mv	a3,a1
   10dd0:	02093403          	ld	s0,32(s2)
   10dd4:	01090813          	addi	a6,s2,16
   10dd8:	47040a63          	beq	s0,a6,1124c <_malloc_r+0x540>
   10ddc:	00843783          	ld	a5,8(s0)
   10de0:	01f00613          	li	a2,31
   10de4:	ffc7f793          	andi	a5,a5,-4
   10de8:	40978733          	sub	a4,a5,s1
   10dec:	44e64a63          	blt	a2,a4,11240 <_malloc_r+0x534>
   10df0:	03093423          	sd	a6,40(s2)
   10df4:	03093023          	sd	a6,32(s2)
   10df8:	20075063          	bgez	a4,10ff8 <_malloc_r+0x2ec>
   10dfc:	1ff00713          	li	a4,511
   10e00:	3cf76c63          	bltu	a4,a5,111d8 <_malloc_r+0x4cc>
   10e04:	0037d793          	srli	a5,a5,0x3
   10e08:	0007879b          	sext.w	a5,a5
   10e0c:	0017861b          	addiw	a2,a5,1
   10e10:	0016161b          	slliw	a2,a2,0x1
   10e14:	00361613          	slli	a2,a2,0x3
   10e18:	00893703          	ld	a4,8(s2)
   10e1c:	00c90633          	add	a2,s2,a2
   10e20:	00063503          	ld	a0,0(a2)
   10e24:	4027d79b          	sraiw	a5,a5,0x2
   10e28:	00100593          	li	a1,1
   10e2c:	00f597b3          	sll	a5,a1,a5
   10e30:	00e7e7b3          	or	a5,a5,a4
   10e34:	ff060713          	addi	a4,a2,-16
   10e38:	00e43c23          	sd	a4,24(s0)
   10e3c:	00a43823          	sd	a0,16(s0)
   10e40:	00f93423          	sd	a5,8(s2)
   10e44:	00863023          	sd	s0,0(a2)
   10e48:	00853c23          	sd	s0,24(a0)
   10e4c:	4026d61b          	sraiw	a2,a3,0x2
   10e50:	00100713          	li	a4,1
   10e54:	00c71633          	sll	a2,a4,a2
   10e58:	1cc7e063          	bltu	a5,a2,11018 <_malloc_r+0x30c>
   10e5c:	00f67733          	and	a4,a2,a5
   10e60:	02071463          	bnez	a4,10e88 <_malloc_r+0x17c>
   10e64:	00161613          	slli	a2,a2,0x1
   10e68:	ffc6f693          	andi	a3,a3,-4
   10e6c:	00f67733          	and	a4,a2,a5
   10e70:	0046869b          	addiw	a3,a3,4
   10e74:	00071a63          	bnez	a4,10e88 <_malloc_r+0x17c>
   10e78:	00161613          	slli	a2,a2,0x1
   10e7c:	00f67733          	and	a4,a2,a5
   10e80:	0046869b          	addiw	a3,a3,4
   10e84:	fe070ae3          	beqz	a4,10e78 <_malloc_r+0x16c>
   10e88:	01f00513          	li	a0,31
   10e8c:	0016889b          	addiw	a7,a3,1
   10e90:	0018989b          	slliw	a7,a7,0x1
   10e94:	00389893          	slli	a7,a7,0x3
   10e98:	011908b3          	add	a7,s2,a7
   10e9c:	ff088893          	addi	a7,a7,-16
   10ea0:	00088593          	mv	a1,a7
   10ea4:	00068313          	mv	t1,a3
   10ea8:	0185b403          	ld	s0,24(a1)
   10eac:	00859a63          	bne	a1,s0,10ec0 <_malloc_r+0x1b4>
   10eb0:	3a40006f          	j	11254 <_malloc_r+0x548>
   10eb4:	3c075263          	bgez	a4,11278 <_malloc_r+0x56c>
   10eb8:	01843403          	ld	s0,24(s0)
   10ebc:	38858c63          	beq	a1,s0,11254 <_malloc_r+0x548>
   10ec0:	00843783          	ld	a5,8(s0)
   10ec4:	ffc7f793          	andi	a5,a5,-4
   10ec8:	40978733          	sub	a4,a5,s1
   10ecc:	fee554e3          	ble	a4,a0,10eb4 <_malloc_r+0x1a8>
   10ed0:	01843783          	ld	a5,24(s0)
   10ed4:	01043683          	ld	a3,16(s0)
   10ed8:	0014e613          	ori	a2,s1,1
   10edc:	00c43423          	sd	a2,8(s0)
   10ee0:	00f6bc23          	sd	a5,24(a3)
   10ee4:	00d7b823          	sd	a3,16(a5) # ffffffff80000010 <_end+0xffffffff7ffd9268>
   10ee8:	009404b3          	add	s1,s0,s1
   10eec:	02993423          	sd	s1,40(s2)
   10ef0:	02993023          	sd	s1,32(s2)
   10ef4:	00176793          	ori	a5,a4,1
   10ef8:	0104bc23          	sd	a6,24(s1)
   10efc:	0104b823          	sd	a6,16(s1)
   10f00:	00f4b423          	sd	a5,8(s1)
   10f04:	00e484b3          	add	s1,s1,a4
   10f08:	00098513          	mv	a0,s3
   10f0c:	00e4b023          	sd	a4,0(s1)
   10f10:	690000ef          	jal	115a0 <__malloc_unlock>
   10f14:	01040513          	addi	a0,s0,16
   10f18:	0680006f          	j	10f80 <_malloc_r+0x274>
   10f1c:	02000493          	li	s1,32
   10f20:	08b4ea63          	bltu	s1,a1,10fb4 <_malloc_r+0x2a8>
   10f24:	678000ef          	jal	1159c <__malloc_lock>
   10f28:	00a00793          	li	a5,10
   10f2c:	00400693          	li	a3,4
   10f30:	00024937          	lui	s2,0x24
   10f34:	b1890913          	addi	s2,s2,-1256 # 23b18 <__malloc_av_>
   10f38:	00379793          	slli	a5,a5,0x3
   10f3c:	00f907b3          	add	a5,s2,a5
   10f40:	0087b403          	ld	s0,8(a5)
   10f44:	ff078713          	addi	a4,a5,-16
   10f48:	32e40063          	beq	s0,a4,11268 <_malloc_r+0x55c>
   10f4c:	00843783          	ld	a5,8(s0)
   10f50:	01843683          	ld	a3,24(s0)
   10f54:	01043603          	ld	a2,16(s0)
   10f58:	ffc7f793          	andi	a5,a5,-4
   10f5c:	00f407b3          	add	a5,s0,a5
   10f60:	0087b703          	ld	a4,8(a5)
   10f64:	00d63c23          	sd	a3,24(a2)
   10f68:	00c6b823          	sd	a2,16(a3)
   10f6c:	00176713          	ori	a4,a4,1
   10f70:	00098513          	mv	a0,s3
   10f74:	00e7b423          	sd	a4,8(a5)
   10f78:	628000ef          	jal	115a0 <__malloc_unlock>
   10f7c:	01040513          	addi	a0,s0,16
   10f80:	05813083          	ld	ra,88(sp)
   10f84:	05013403          	ld	s0,80(sp)
   10f88:	04813483          	ld	s1,72(sp)
   10f8c:	04013903          	ld	s2,64(sp)
   10f90:	03813983          	ld	s3,56(sp)
   10f94:	03013a03          	ld	s4,48(sp)
   10f98:	02813a83          	ld	s5,40(sp)
   10f9c:	02013b03          	ld	s6,32(sp)
   10fa0:	01813b83          	ld	s7,24(sp)
   10fa4:	01013c03          	ld	s8,16(sp)
   10fa8:	00813c83          	ld	s9,8(sp)
   10fac:	06010113          	addi	sp,sp,96
   10fb0:	00008067          	ret
   10fb4:	00c00793          	li	a5,12
   10fb8:	00f9a023          	sw	a5,0(s3)
   10fbc:	00000513          	li	a0,0
   10fc0:	fc1ff06f          	j	10f80 <_malloc_r+0x274>
   10fc4:	00400713          	li	a4,4
   10fc8:	1ef76463          	bltu	a4,a5,111b0 <_malloc_r+0x4a4>
   10fcc:	0064d593          	srli	a1,s1,0x6
   10fd0:	0005859b          	sext.w	a1,a1
   10fd4:	0395851b          	addiw	a0,a1,57
   10fd8:	0015169b          	slliw	a3,a0,0x1
   10fdc:	0385859b          	addiw	a1,a1,56
   10fe0:	da1ff06f          	j	10d80 <_malloc_r+0x74>
   10fe4:	00050693          	mv	a3,a0
   10fe8:	de9ff06f          	j	10dd0 <_malloc_r+0xc4>
   10fec:	01843683          	ld	a3,24(s0)
   10ff0:	01043603          	ld	a2,16(s0)
   10ff4:	f69ff06f          	j	10f5c <_malloc_r+0x250>
   10ff8:	00f407b3          	add	a5,s0,a5
   10ffc:	0087b703          	ld	a4,8(a5)
   11000:	00098513          	mv	a0,s3
   11004:	00176713          	ori	a4,a4,1
   11008:	00e7b423          	sd	a4,8(a5)
   1100c:	594000ef          	jal	115a0 <__malloc_unlock>
   11010:	01040513          	addi	a0,s0,16
   11014:	f6dff06f          	j	10f80 <_malloc_r+0x274>
   11018:	01093403          	ld	s0,16(s2)
   1101c:	00843703          	ld	a4,8(s0)
   11020:	ffc77b93          	andi	s7,a4,-4
   11024:	009be863          	bltu	s7,s1,11034 <_malloc_r+0x328>
   11028:	409b87b3          	sub	a5,s7,s1
   1102c:	01f00713          	li	a4,31
   11030:	14f74c63          	blt	a4,a5,11188 <_malloc_r+0x47c>
   11034:	9101b783          	ld	a5,-1776(gp) # 244e0 <__malloc_top_pad>
   11038:	8181b683          	ld	a3,-2024(gp) # 243e8 <__malloc_sbrk_base>
   1103c:	fff00713          	li	a4,-1
   11040:	00f487b3          	add	a5,s1,a5
   11044:	01740a33          	add	s4,s0,s7
   11048:	02078b13          	addi	s6,a5,32
   1104c:	00e68c63          	beq	a3,a4,11064 <_malloc_r+0x358>
   11050:	00001b37          	lui	s6,0x1
   11054:	01fb0b13          	addi	s6,s6,31 # 101f <_ftext-0xefe1>
   11058:	01678b33          	add	s6,a5,s6
   1105c:	fffff7b7          	lui	a5,0xfffff
   11060:	00fb7b33          	and	s6,s6,a5
   11064:	000b0513          	mv	a0,s6
   11068:	5d80f0ef          	jal	20640 <sbrk>
   1106c:	fff00793          	li	a5,-1
   11070:	00050a93          	mv	s5,a0
   11074:	26f50263          	beq	a0,a5,112d8 <_malloc_r+0x5cc>
   11078:	25456e63          	bltu	a0,s4,112d4 <_malloc_r+0x5c8>
   1107c:	96818c13          	addi	s8,gp,-1688 # 24538 <__malloc_current_mallinfo>
   11080:	000c2783          	lw	a5,0(s8)
   11084:	00fb07bb          	addw	a5,s6,a5
   11088:	00fc2023          	sw	a5,0(s8)
   1108c:	355a0463          	beq	s4,s5,113d4 <_malloc_r+0x6c8>
   11090:	8181b683          	ld	a3,-2024(gp) # 243e8 <__malloc_sbrk_base>
   11094:	fff00713          	li	a4,-1
   11098:	36e68263          	beq	a3,a4,113fc <_malloc_r+0x6f0>
   1109c:	414a8a33          	sub	s4,s5,s4
   110a0:	00fa07bb          	addw	a5,s4,a5
   110a4:	00fc2023          	sw	a5,0(s8)
   110a8:	00faf713          	andi	a4,s5,15
   110ac:	000017b7          	lui	a5,0x1
   110b0:	00070a63          	beqz	a4,110c4 <_malloc_r+0x3b8>
   110b4:	40ea8ab3          	sub	s5,s5,a4
   110b8:	01078a13          	addi	s4,a5,16 # 1010 <_ftext-0xeff0>
   110bc:	010a8a93          	addi	s5,s5,16
   110c0:	40ea07b3          	sub	a5,s4,a4
   110c4:	00001a37          	lui	s4,0x1
   110c8:	fffa0a13          	addi	s4,s4,-1 # fff <_ftext-0xf001>
   110cc:	016a8b33          	add	s6,s5,s6
   110d0:	014b7b33          	and	s6,s6,s4
   110d4:	41678a33          	sub	s4,a5,s6
   110d8:	000a0513          	mv	a0,s4
   110dc:	5640f0ef          	jal	20640 <sbrk>
   110e0:	fff00793          	li	a5,-1
   110e4:	30f50663          	beq	a0,a5,113f0 <_malloc_r+0x6e4>
   110e8:	41550733          	sub	a4,a0,s5
   110ec:	01470733          	add	a4,a4,s4
   110f0:	00176713          	ori	a4,a4,1
   110f4:	000a0a1b          	sext.w	s4,s4
   110f8:	000c2783          	lw	a5,0(s8)
   110fc:	01593823          	sd	s5,16(s2)
   11100:	00eab423          	sd	a4,8(s5)
   11104:	00fa07bb          	addw	a5,s4,a5
   11108:	00fc2023          	sw	a5,0(s8)
   1110c:	03240c63          	beq	s0,s2,11144 <_malloc_r+0x438>
   11110:	01f00613          	li	a2,31
   11114:	27767463          	bleu	s7,a2,1137c <_malloc_r+0x670>
   11118:	00843683          	ld	a3,8(s0)
   1111c:	fe8b8713          	addi	a4,s7,-24
   11120:	ff077713          	andi	a4,a4,-16
   11124:	0016f693          	andi	a3,a3,1
   11128:	00e6e6b3          	or	a3,a3,a4
   1112c:	00d43423          	sd	a3,8(s0)
   11130:	00900593          	li	a1,9
   11134:	00e406b3          	add	a3,s0,a4
   11138:	00b6b423          	sd	a1,8(a3)
   1113c:	00b6b823          	sd	a1,16(a3)
   11140:	2ce66263          	bltu	a2,a4,11404 <_malloc_r+0x6f8>
   11144:	9081b683          	ld	a3,-1784(gp) # 244d8 <__malloc_max_sbrked_mem>
   11148:	00f6f463          	bleu	a5,a3,11150 <_malloc_r+0x444>
   1114c:	90f1b423          	sd	a5,-1784(gp) # 244d8 <__malloc_max_sbrked_mem>
   11150:	9001b683          	ld	a3,-1792(gp) # 244d0 <__malloc_max_total_mem>
   11154:	01093403          	ld	s0,16(s2)
   11158:	00f6f463          	bleu	a5,a3,11160 <_malloc_r+0x454>
   1115c:	90f1b023          	sd	a5,-1792(gp) # 244d0 <__malloc_max_total_mem>
   11160:	00843703          	ld	a4,8(s0)
   11164:	ffc77713          	andi	a4,a4,-4
   11168:	409707b3          	sub	a5,a4,s1
   1116c:	00976663          	bltu	a4,s1,11178 <_malloc_r+0x46c>
   11170:	01f00713          	li	a4,31
   11174:	00f74a63          	blt	a4,a5,11188 <_malloc_r+0x47c>
   11178:	00098513          	mv	a0,s3
   1117c:	424000ef          	jal	115a0 <__malloc_unlock>
   11180:	00000513          	li	a0,0
   11184:	dfdff06f          	j	10f80 <_malloc_r+0x274>
   11188:	0014e713          	ori	a4,s1,1
   1118c:	00e43423          	sd	a4,8(s0)
   11190:	009404b3          	add	s1,s0,s1
   11194:	00993823          	sd	s1,16(s2)
   11198:	0017e793          	ori	a5,a5,1
   1119c:	00098513          	mv	a0,s3
   111a0:	00f4b423          	sd	a5,8(s1)
   111a4:	3fc000ef          	jal	115a0 <__malloc_unlock>
   111a8:	01040513          	addi	a0,s0,16
   111ac:	dd5ff06f          	j	10f80 <_malloc_r+0x274>
   111b0:	01400713          	li	a4,20
   111b4:	0ef77a63          	bleu	a5,a4,112a8 <_malloc_r+0x59c>
   111b8:	05400713          	li	a4,84
   111bc:	18f76063          	bltu	a4,a5,1133c <_malloc_r+0x630>
   111c0:	00c4d593          	srli	a1,s1,0xc
   111c4:	0005859b          	sext.w	a1,a1
   111c8:	06f5851b          	addiw	a0,a1,111
   111cc:	0015169b          	slliw	a3,a0,0x1
   111d0:	06e5859b          	addiw	a1,a1,110
   111d4:	badff06f          	j	10d80 <_malloc_r+0x74>
   111d8:	0097d713          	srli	a4,a5,0x9
   111dc:	00400613          	li	a2,4
   111e0:	0ce67e63          	bleu	a4,a2,112bc <_malloc_r+0x5b0>
   111e4:	01400613          	li	a2,20
   111e8:	1ce66663          	bltu	a2,a4,113b4 <_malloc_r+0x6a8>
   111ec:	0007071b          	sext.w	a4,a4
   111f0:	05c7059b          	addiw	a1,a4,92
   111f4:	05b7061b          	addiw	a2,a4,91
   111f8:	0015959b          	slliw	a1,a1,0x1
   111fc:	00359593          	slli	a1,a1,0x3
   11200:	00b905b3          	add	a1,s2,a1
   11204:	0005b703          	ld	a4,0(a1)
   11208:	ff058593          	addi	a1,a1,-16
   1120c:	14e58863          	beq	a1,a4,1135c <_malloc_r+0x650>
   11210:	00873603          	ld	a2,8(a4)
   11214:	ffc67613          	andi	a2,a2,-4
   11218:	00c7f663          	bleu	a2,a5,11224 <_malloc_r+0x518>
   1121c:	01073703          	ld	a4,16(a4)
   11220:	fee598e3          	bne	a1,a4,11210 <_malloc_r+0x504>
   11224:	01873583          	ld	a1,24(a4)
   11228:	00893783          	ld	a5,8(s2)
   1122c:	00b43c23          	sd	a1,24(s0)
   11230:	00e43823          	sd	a4,16(s0)
   11234:	0085b823          	sd	s0,16(a1)
   11238:	00873c23          	sd	s0,24(a4)
   1123c:	c11ff06f          	j	10e4c <_malloc_r+0x140>
   11240:	0014e793          	ori	a5,s1,1
   11244:	00f43423          	sd	a5,8(s0)
   11248:	ca1ff06f          	j	10ee8 <_malloc_r+0x1dc>
   1124c:	00893783          	ld	a5,8(s2)
   11250:	bfdff06f          	j	10e4c <_malloc_r+0x140>
   11254:	0013031b          	addiw	t1,t1,1
   11258:	00337793          	andi	a5,t1,3
   1125c:	01058593          	addi	a1,a1,16
   11260:	c40794e3          	bnez	a5,10ea8 <_malloc_r+0x19c>
   11264:	0900006f          	j	112f4 <_malloc_r+0x5e8>
   11268:	0187b403          	ld	s0,24(a5)
   1126c:	0026869b          	addiw	a3,a3,2
   11270:	b68780e3          	beq	a5,s0,10dd0 <_malloc_r+0xc4>
   11274:	cd9ff06f          	j	10f4c <_malloc_r+0x240>
   11278:	00f407b3          	add	a5,s0,a5
   1127c:	0087b703          	ld	a4,8(a5)
   11280:	01843683          	ld	a3,24(s0)
   11284:	01043603          	ld	a2,16(s0)
   11288:	00176713          	ori	a4,a4,1
   1128c:	00e7b423          	sd	a4,8(a5)
   11290:	00d63c23          	sd	a3,24(a2)
   11294:	00098513          	mv	a0,s3
   11298:	00c6b823          	sd	a2,16(a3)
   1129c:	304000ef          	jal	115a0 <__malloc_unlock>
   112a0:	01040513          	addi	a0,s0,16
   112a4:	cddff06f          	j	10f80 <_malloc_r+0x274>
   112a8:	0007879b          	sext.w	a5,a5
   112ac:	05c7851b          	addiw	a0,a5,92
   112b0:	05b7859b          	addiw	a1,a5,91
   112b4:	0015169b          	slliw	a3,a0,0x1
   112b8:	ac9ff06f          	j	10d80 <_malloc_r+0x74>
   112bc:	0067d713          	srli	a4,a5,0x6
   112c0:	0007071b          	sext.w	a4,a4
   112c4:	0397059b          	addiw	a1,a4,57
   112c8:	0387061b          	addiw	a2,a4,56
   112cc:	0015959b          	slliw	a1,a1,0x1
   112d0:	f2dff06f          	j	111fc <_malloc_r+0x4f0>
   112d4:	db2404e3          	beq	s0,s2,1107c <_malloc_r+0x370>
   112d8:	01093403          	ld	s0,16(s2)
   112dc:	00843703          	ld	a4,8(s0)
   112e0:	ffc77713          	andi	a4,a4,-4
   112e4:	e85ff06f          	j	11168 <_malloc_r+0x45c>
   112e8:	0108b783          	ld	a5,16(a7)
   112ec:	fff6869b          	addiw	a3,a3,-1
   112f0:	16f89863          	bne	a7,a5,11460 <_malloc_r+0x754>
   112f4:	0036f793          	andi	a5,a3,3
   112f8:	ff088893          	addi	a7,a7,-16
   112fc:	fe0796e3          	bnez	a5,112e8 <_malloc_r+0x5dc>
   11300:	00893783          	ld	a5,8(s2)
   11304:	fff64713          	not	a4,a2
   11308:	00f777b3          	and	a5,a4,a5
   1130c:	00f93423          	sd	a5,8(s2)
   11310:	00161613          	slli	a2,a2,0x1
   11314:	d0c7e2e3          	bltu	a5,a2,11018 <_malloc_r+0x30c>
   11318:	d00600e3          	beqz	a2,11018 <_malloc_r+0x30c>
   1131c:	00f67733          	and	a4,a2,a5
   11320:	00030693          	mv	a3,t1
   11324:	b60714e3          	bnez	a4,10e8c <_malloc_r+0x180>
   11328:	00161613          	slli	a2,a2,0x1
   1132c:	00f67733          	and	a4,a2,a5
   11330:	0046869b          	addiw	a3,a3,4
   11334:	fe070ae3          	beqz	a4,11328 <_malloc_r+0x61c>
   11338:	b55ff06f          	j	10e8c <_malloc_r+0x180>
   1133c:	15400713          	li	a4,340
   11340:	04f76463          	bltu	a4,a5,11388 <_malloc_r+0x67c>
   11344:	00f4d593          	srli	a1,s1,0xf
   11348:	0005859b          	sext.w	a1,a1
   1134c:	0785851b          	addiw	a0,a1,120
   11350:	0015169b          	slliw	a3,a0,0x1
   11354:	0775859b          	addiw	a1,a1,119
   11358:	a29ff06f          	j	10d80 <_malloc_r+0x74>
   1135c:	00893783          	ld	a5,8(s2)
   11360:	4026571b          	sraiw	a4,a2,0x2
   11364:	00100613          	li	a2,1
   11368:	00e61733          	sll	a4,a2,a4
   1136c:	00f767b3          	or	a5,a4,a5
   11370:	00f93423          	sd	a5,8(s2)
   11374:	00058713          	mv	a4,a1
   11378:	eb5ff06f          	j	1122c <_malloc_r+0x520>
   1137c:	00100793          	li	a5,1
   11380:	00fab423          	sd	a5,8(s5)
   11384:	df5ff06f          	j	11178 <_malloc_r+0x46c>
   11388:	55400713          	li	a4,1364
   1138c:	0fe00693          	li	a3,254
   11390:	07f00513          	li	a0,127
   11394:	07e00593          	li	a1,126
   11398:	9ef764e3          	bltu	a4,a5,10d80 <_malloc_r+0x74>
   1139c:	0124d593          	srli	a1,s1,0x12
   113a0:	0005859b          	sext.w	a1,a1
   113a4:	07d5851b          	addiw	a0,a1,125
   113a8:	0015169b          	slliw	a3,a0,0x1
   113ac:	07c5859b          	addiw	a1,a1,124
   113b0:	9d1ff06f          	j	10d80 <_malloc_r+0x74>
   113b4:	05400613          	li	a2,84
   113b8:	06e66063          	bltu	a2,a4,11418 <_malloc_r+0x70c>
   113bc:	00c7d713          	srli	a4,a5,0xc
   113c0:	0007071b          	sext.w	a4,a4
   113c4:	06f7059b          	addiw	a1,a4,111
   113c8:	06e7061b          	addiw	a2,a4,110
   113cc:	0015959b          	slliw	a1,a1,0x1
   113d0:	e2dff06f          	j	111fc <_malloc_r+0x4f0>
   113d4:	034a1713          	slli	a4,s4,0x34
   113d8:	ca071ce3          	bnez	a4,11090 <_malloc_r+0x384>
   113dc:	01093683          	ld	a3,16(s2)
   113e0:	016b8733          	add	a4,s7,s6
   113e4:	00176713          	ori	a4,a4,1
   113e8:	00e6b423          	sd	a4,8(a3)
   113ec:	d59ff06f          	j	11144 <_malloc_r+0x438>
   113f0:	00100713          	li	a4,1
   113f4:	00000a13          	li	s4,0
   113f8:	d01ff06f          	j	110f8 <_malloc_r+0x3ec>
   113fc:	8151bc23          	sd	s5,-2024(gp) # 243e8 <__malloc_sbrk_base>
   11400:	ca9ff06f          	j	110a8 <_malloc_r+0x39c>
   11404:	01040593          	addi	a1,s0,16
   11408:	00098513          	mv	a0,s3
   1140c:	049050ef          	jal	16c54 <_free_r>
   11410:	000c2783          	lw	a5,0(s8)
   11414:	d31ff06f          	j	11144 <_malloc_r+0x438>
   11418:	15400613          	li	a2,340
   1141c:	00e66e63          	bltu	a2,a4,11438 <_malloc_r+0x72c>
   11420:	00f7d713          	srli	a4,a5,0xf
   11424:	0007071b          	sext.w	a4,a4
   11428:	0787059b          	addiw	a1,a4,120
   1142c:	0777061b          	addiw	a2,a4,119
   11430:	0015959b          	slliw	a1,a1,0x1
   11434:	dc9ff06f          	j	111fc <_malloc_r+0x4f0>
   11438:	55400513          	li	a0,1364
   1143c:	0fe00593          	li	a1,254
   11440:	07e00613          	li	a2,126
   11444:	dae56ce3          	bltu	a0,a4,111fc <_malloc_r+0x4f0>
   11448:	0127d713          	srli	a4,a5,0x12
   1144c:	0007071b          	sext.w	a4,a4
   11450:	07d7059b          	addiw	a1,a4,125
   11454:	07c7061b          	addiw	a2,a4,124
   11458:	0015959b          	slliw	a1,a1,0x1
   1145c:	da1ff06f          	j	111fc <_malloc_r+0x4f0>
   11460:	00893783          	ld	a5,8(s2)
   11464:	eadff06f          	j	11310 <_malloc_r+0x604>
   11468:	0034d693          	srli	a3,s1,0x3
   1146c:	0006869b          	sext.w	a3,a3
   11470:	0016879b          	addiw	a5,a3,1
   11474:	0017979b          	slliw	a5,a5,0x1
   11478:	ab9ff06f          	j	10f30 <_malloc_r+0x224>

000000000001147c <memcpy>:
   1147c:	00a5c7b3          	xor	a5,a1,a0
   11480:	0077f793          	andi	a5,a5,7
   11484:	00c508b3          	add	a7,a0,a2
   11488:	0e079263          	bnez	a5,1156c <memcpy+0xf0>
   1148c:	00700793          	li	a5,7
   11490:	0ec7fe63          	bleu	a2,a5,1158c <memcpy+0x110>
   11494:	00757793          	andi	a5,a0,7
   11498:	04079a63          	bnez	a5,114ec <memcpy+0x70>
   1149c:	ff88f813          	andi	a6,a7,-8
   114a0:	fc080793          	addi	a5,a6,-64
   114a4:	00050713          	mv	a4,a0
   114a8:	06f56663          	bltu	a0,a5,11514 <memcpy+0x98>
   114ac:	00058693          	mv	a3,a1
   114b0:	00070793          	mv	a5,a4
   114b4:	03077863          	bleu	a6,a4,114e4 <memcpy+0x68>
   114b8:	0006b603          	ld	a2,0(a3)
   114bc:	00878793          	addi	a5,a5,8
   114c0:	00868693          	addi	a3,a3,8
   114c4:	fec7bc23          	sd	a2,-8(a5)
   114c8:	ff07e8e3          	bltu	a5,a6,114b8 <memcpy+0x3c>
   114cc:	fff74793          	not	a5,a4
   114d0:	01078833          	add	a6,a5,a6
   114d4:	ff887813          	andi	a6,a6,-8
   114d8:	00880813          	addi	a6,a6,8
   114dc:	01070733          	add	a4,a4,a6
   114e0:	010585b3          	add	a1,a1,a6
   114e4:	09176863          	bltu	a4,a7,11574 <memcpy+0xf8>
   114e8:	00008067          	ret
   114ec:	00050713          	mv	a4,a0
   114f0:	0005c683          	lbu	a3,0(a1)
   114f4:	00170713          	addi	a4,a4,1
   114f8:	00777793          	andi	a5,a4,7
   114fc:	fed70fa3          	sb	a3,-1(a4)
   11500:	00158593          	addi	a1,a1,1
   11504:	fe0796e3          	bnez	a5,114f0 <memcpy+0x74>
   11508:	ff88f813          	andi	a6,a7,-8
   1150c:	fc080793          	addi	a5,a6,-64
   11510:	f8f77ee3          	bleu	a5,a4,114ac <memcpy+0x30>
   11514:	0005b383          	ld	t2,0(a1)
   11518:	0085b283          	ld	t0,8(a1)
   1151c:	0105bf83          	ld	t6,16(a1)
   11520:	0185bf03          	ld	t5,24(a1)
   11524:	0205be83          	ld	t4,32(a1)
   11528:	0285be03          	ld	t3,40(a1)
   1152c:	0305b303          	ld	t1,48(a1)
   11530:	0385b603          	ld	a2,56(a1)
   11534:	04858593          	addi	a1,a1,72
   11538:	04870713          	addi	a4,a4,72
   1153c:	ff85b683          	ld	a3,-8(a1)
   11540:	fa773c23          	sd	t2,-72(a4)
   11544:	fc573023          	sd	t0,-64(a4)
   11548:	fdf73423          	sd	t6,-56(a4)
   1154c:	fde73823          	sd	t5,-48(a4)
   11550:	fdd73c23          	sd	t4,-40(a4)
   11554:	ffc73023          	sd	t3,-32(a4)
   11558:	fe673423          	sd	t1,-24(a4)
   1155c:	fec73823          	sd	a2,-16(a4)
   11560:	fed73c23          	sd	a3,-8(a4)
   11564:	faf768e3          	bltu	a4,a5,11514 <memcpy+0x98>
   11568:	f45ff06f          	j	114ac <memcpy+0x30>
   1156c:	00050713          	mv	a4,a0
   11570:	03157463          	bleu	a7,a0,11598 <memcpy+0x11c>
   11574:	0005c783          	lbu	a5,0(a1)
   11578:	00170713          	addi	a4,a4,1
   1157c:	00158593          	addi	a1,a1,1
   11580:	fef70fa3          	sb	a5,-1(a4)
   11584:	ff1768e3          	bltu	a4,a7,11574 <memcpy+0xf8>
   11588:	00008067          	ret
   1158c:	00050713          	mv	a4,a0
   11590:	ff1562e3          	bltu	a0,a7,11574 <memcpy+0xf8>
   11594:	f55ff06f          	j	114e8 <memcpy+0x6c>
   11598:	00008067          	ret

000000000001159c <__malloc_lock>:
   1159c:	00008067          	ret

00000000000115a0 <__malloc_unlock>:
   115a0:	00008067          	ret

00000000000115a4 <_printf_r>:
   115a4:	fb010113          	addi	sp,sp,-80
   115a8:	02c13023          	sd	a2,32(sp)
   115ac:	02d13423          	sd	a3,40(sp)
   115b0:	02f13c23          	sd	a5,56(sp)
   115b4:	02e13823          	sd	a4,48(sp)
   115b8:	05013023          	sd	a6,64(sp)
   115bc:	05113423          	sd	a7,72(sp)
   115c0:	00058613          	mv	a2,a1
   115c4:	01053583          	ld	a1,16(a0)
   115c8:	02010793          	addi	a5,sp,32
   115cc:	00078693          	mv	a3,a5
   115d0:	00113c23          	sd	ra,24(sp)
   115d4:	00f13423          	sd	a5,8(sp)
   115d8:	528000ef          	jal	11b00 <_vfprintf_r>
   115dc:	01813083          	ld	ra,24(sp)
   115e0:	05010113          	addi	sp,sp,80
   115e4:	00008067          	ret

00000000000115e8 <printf>:
   115e8:	8101b303          	ld	t1,-2032(gp) # 243e0 <_impure_ptr>
   115ec:	fa010113          	addi	sp,sp,-96
   115f0:	02c13823          	sd	a2,48(sp)
   115f4:	02d13c23          	sd	a3,56(sp)
   115f8:	04f13423          	sd	a5,72(sp)
   115fc:	02b13423          	sd	a1,40(sp)
   11600:	04e13023          	sd	a4,64(sp)
   11604:	05013823          	sd	a6,80(sp)
   11608:	05113c23          	sd	a7,88(sp)
   1160c:	01033583          	ld	a1,16(t1)
   11610:	02810793          	addi	a5,sp,40
   11614:	00050613          	mv	a2,a0
   11618:	00078693          	mv	a3,a5
   1161c:	00030513          	mv	a0,t1
   11620:	00113c23          	sd	ra,24(sp)
   11624:	00f13423          	sd	a5,8(sp)
   11628:	4d8000ef          	jal	11b00 <_vfprintf_r>
   1162c:	01813083          	ld	ra,24(sp)
   11630:	06010113          	addi	sp,sp,96
   11634:	00008067          	ret

0000000000011638 <_putchar_r>:
   11638:	01053603          	ld	a2,16(a0)
   1163c:	0180006f          	j	11654 <_putc_r>

0000000000011640 <putchar>:
   11640:	8101b783          	ld	a5,-2032(gp) # 243e0 <_impure_ptr>
   11644:	00050593          	mv	a1,a0
   11648:	0107b603          	ld	a2,16(a5)
   1164c:	00078513          	mv	a0,a5
   11650:	0040006f          	j	11654 <_putc_r>

0000000000011654 <_putc_r>:
   11654:	fe010113          	addi	sp,sp,-32
   11658:	00813823          	sd	s0,16(sp)
   1165c:	00113c23          	sd	ra,24(sp)
   11660:	00050413          	mv	s0,a0
   11664:	00050663          	beqz	a0,11670 <_putc_r+0x1c>
   11668:	05052783          	lw	a5,80(a0)
   1166c:	06078863          	beqz	a5,116dc <_putc_r+0x88>
   11670:	00c62783          	lw	a5,12(a2)
   11674:	fff7879b          	addiw	a5,a5,-1
   11678:	00f62623          	sw	a5,12(a2)
   1167c:	0207c663          	bltz	a5,116a8 <_putc_r+0x54>
   11680:	00063783          	ld	a5,0(a2)
   11684:	00b78023          	sb	a1,0(a5)
   11688:	00063783          	ld	a5,0(a2)
   1168c:	01813083          	ld	ra,24(sp)
   11690:	00178713          	addi	a4,a5,1
   11694:	00e63023          	sd	a4,0(a2)
   11698:	0007c503          	lbu	a0,0(a5)
   1169c:	01013403          	ld	s0,16(sp)
   116a0:	02010113          	addi	sp,sp,32
   116a4:	00008067          	ret
   116a8:	02862703          	lw	a4,40(a2)
   116ac:	00e7ce63          	blt	a5,a4,116c8 <_putc_r+0x74>
   116b0:	00063783          	ld	a5,0(a2)
   116b4:	00a00713          	li	a4,10
   116b8:	00b78023          	sb	a1,0(a5)
   116bc:	00063783          	ld	a5,0(a2)
   116c0:	0007c583          	lbu	a1,0(a5)
   116c4:	fce594e3          	bne	a1,a4,1168c <_putc_r+0x38>
   116c8:	00040513          	mv	a0,s0
   116cc:	01813083          	ld	ra,24(sp)
   116d0:	01013403          	ld	s0,16(sp)
   116d4:	02010113          	addi	sp,sp,32
   116d8:	32c0306f          	j	14a04 <__swbuf_r>
   116dc:	00c13423          	sd	a2,8(sp)
   116e0:	00b13023          	sd	a1,0(sp)
   116e4:	1ac050ef          	jal	16890 <__sinit>
   116e8:	00813603          	ld	a2,8(sp)
   116ec:	00013583          	ld	a1,0(sp)
   116f0:	f81ff06f          	j	11670 <_putc_r+0x1c>

00000000000116f4 <putc>:
   116f4:	fd010113          	addi	sp,sp,-48
   116f8:	02813023          	sd	s0,32(sp)
   116fc:	8101b403          	ld	s0,-2032(gp) # 243e0 <_impure_ptr>
   11700:	00913c23          	sd	s1,24(sp)
   11704:	02113423          	sd	ra,40(sp)
   11708:	00050493          	mv	s1,a0
   1170c:	00040663          	beqz	s0,11718 <putc+0x24>
   11710:	05042783          	lw	a5,80(s0)
   11714:	06078663          	beqz	a5,11780 <putc+0x8c>
   11718:	00c5a783          	lw	a5,12(a1)
   1171c:	fff7879b          	addiw	a5,a5,-1
   11720:	00f5a623          	sw	a5,12(a1)
   11724:	0207c863          	bltz	a5,11754 <putc+0x60>
   11728:	0005b783          	ld	a5,0(a1)
   1172c:	00978023          	sb	s1,0(a5)
   11730:	0005b783          	ld	a5,0(a1)
   11734:	02813083          	ld	ra,40(sp)
   11738:	00178713          	addi	a4,a5,1
   1173c:	00e5b023          	sd	a4,0(a1)
   11740:	0007c503          	lbu	a0,0(a5)
   11744:	02013403          	ld	s0,32(sp)
   11748:	01813483          	ld	s1,24(sp)
   1174c:	03010113          	addi	sp,sp,48
   11750:	00008067          	ret
   11754:	0285a703          	lw	a4,40(a1)
   11758:	02e7ce63          	blt	a5,a4,11794 <putc+0xa0>
   1175c:	0005b783          	ld	a5,0(a1)
   11760:	00a00693          	li	a3,10
   11764:	00978023          	sb	s1,0(a5)
   11768:	0005b783          	ld	a5,0(a1)
   1176c:	0007c703          	lbu	a4,0(a5)
   11770:	fcd712e3          	bne	a4,a3,11734 <putc+0x40>
   11774:	00058613          	mv	a2,a1
   11778:	00070593          	mv	a1,a4
   1177c:	0200006f          	j	1179c <putc+0xa8>
   11780:	00040513          	mv	a0,s0
   11784:	00b13423          	sd	a1,8(sp)
   11788:	108050ef          	jal	16890 <__sinit>
   1178c:	00813583          	ld	a1,8(sp)
   11790:	f89ff06f          	j	11718 <putc+0x24>
   11794:	00058613          	mv	a2,a1
   11798:	00048593          	mv	a1,s1
   1179c:	00040513          	mv	a0,s0
   117a0:	02813083          	ld	ra,40(sp)
   117a4:	02013403          	ld	s0,32(sp)
   117a8:	01813483          	ld	s1,24(sp)
   117ac:	03010113          	addi	sp,sp,48
   117b0:	2540306f          	j	14a04 <__swbuf_r>

00000000000117b4 <_puts_r>:
   117b4:	fa010113          	addi	sp,sp,-96
   117b8:	04813823          	sd	s0,80(sp)
   117bc:	00050413          	mv	s0,a0
   117c0:	00058513          	mv	a0,a1
   117c4:	04913423          	sd	s1,72(sp)
   117c8:	04113c23          	sd	ra,88(sp)
   117cc:	00058493          	mv	s1,a1
   117d0:	260000ef          	jal	11a30 <strlen>
   117d4:	01043583          	ld	a1,16(s0)
   117d8:	00022737          	lui	a4,0x22
   117dc:	c7870713          	addi	a4,a4,-904 # 21c78 <zeroes.4123+0x668>
   117e0:	01059683          	lh	a3,16(a1)
   117e4:	02e13823          	sd	a4,48(sp)
   117e8:	00100713          	li	a4,1
   117ec:	02e13c23          	sd	a4,56(sp)
   117f0:	02010713          	addi	a4,sp,32
   117f4:	00150613          	addi	a2,a0,1
   117f8:	00e13423          	sd	a4,8(sp)
   117fc:	00200713          	li	a4,2
   11800:	02913023          	sd	s1,32(sp)
   11804:	02a13423          	sd	a0,40(sp)
   11808:	00c13c23          	sd	a2,24(sp)
   1180c:	00e12823          	sw	a4,16(sp)
   11810:	03269793          	slli	a5,a3,0x32
   11814:	0207c263          	bltz	a5,11838 <_puts_r+0x84>
   11818:	0ac5a783          	lw	a5,172(a1)
   1181c:	ffffe737          	lui	a4,0xffffe
   11820:	00002637          	lui	a2,0x2
   11824:	fff7071b          	addiw	a4,a4,-1
   11828:	00c6e6b3          	or	a3,a3,a2
   1182c:	00e7f733          	and	a4,a5,a4
   11830:	00d59823          	sh	a3,16(a1)
   11834:	0ae5a623          	sw	a4,172(a1)
   11838:	00810613          	addi	a2,sp,8
   1183c:	00040513          	mv	a0,s0
   11840:	724050ef          	jal	16f64 <__sfvwrite_r>
   11844:	05813083          	ld	ra,88(sp)
   11848:	00a03533          	snez	a0,a0
   1184c:	40a0053b          	negw	a0,a0
   11850:	00a56513          	ori	a0,a0,10
   11854:	05013403          	ld	s0,80(sp)
   11858:	04813483          	ld	s1,72(sp)
   1185c:	06010113          	addi	sp,sp,96
   11860:	00008067          	ret

0000000000011864 <puts>:
   11864:	00050593          	mv	a1,a0
   11868:	8101b503          	ld	a0,-2032(gp) # 243e0 <_impure_ptr>
   1186c:	f49ff06f          	j	117b4 <_puts_r>

0000000000011870 <scanf>:
   11870:	8101b303          	ld	t1,-2032(gp) # 243e0 <_impure_ptr>
   11874:	fa010113          	addi	sp,sp,-96
   11878:	02c13823          	sd	a2,48(sp)
   1187c:	02d13c23          	sd	a3,56(sp)
   11880:	04f13423          	sd	a5,72(sp)
   11884:	02b13423          	sd	a1,40(sp)
   11888:	04e13023          	sd	a4,64(sp)
   1188c:	05013823          	sd	a6,80(sp)
   11890:	05113c23          	sd	a7,88(sp)
   11894:	00833583          	ld	a1,8(t1)
   11898:	02810793          	addi	a5,sp,40
   1189c:	00050613          	mv	a2,a0
   118a0:	00078693          	mv	a3,a5
   118a4:	00030513          	mv	a0,t1
   118a8:	00113c23          	sd	ra,24(sp)
   118ac:	00f13423          	sd	a5,8(sp)
   118b0:	108030ef          	jal	149b8 <_vfscanf_r>
   118b4:	01813083          	ld	ra,24(sp)
   118b8:	06010113          	addi	sp,sp,96
   118bc:	00008067          	ret

00000000000118c0 <_scanf_r>:
   118c0:	fb010113          	addi	sp,sp,-80
   118c4:	02c13023          	sd	a2,32(sp)
   118c8:	02d13423          	sd	a3,40(sp)
   118cc:	02f13c23          	sd	a5,56(sp)
   118d0:	02e13823          	sd	a4,48(sp)
   118d4:	05013023          	sd	a6,64(sp)
   118d8:	05113423          	sd	a7,72(sp)
   118dc:	00058613          	mv	a2,a1
   118e0:	00853583          	ld	a1,8(a0)
   118e4:	02010793          	addi	a5,sp,32
   118e8:	00078693          	mv	a3,a5
   118ec:	00113c23          	sd	ra,24(sp)
   118f0:	00f13423          	sd	a5,8(sp)
   118f4:	0c4030ef          	jal	149b8 <_vfscanf_r>
   118f8:	01813083          	ld	ra,24(sp)
   118fc:	05010113          	addi	sp,sp,80
   11900:	00008067          	ret

0000000000011904 <strcmp>:
   11904:	00b56733          	or	a4,a0,a1
   11908:	fff00393          	li	t2,-1
   1190c:	00777713          	andi	a4,a4,7
   11910:	0c071c63          	bnez	a4,119e8 <strcmp+0xe4>
   11914:	00013e17          	auipc	t3,0x13
   11918:	b14e3e03          	ld	t3,-1260(t3) # 24428 <mask>
   1191c:	00053603          	ld	a2,0(a0)
   11920:	0005b683          	ld	a3,0(a1)
   11924:	01c672b3          	and	t0,a2,t3
   11928:	01c66333          	or	t1,a2,t3
   1192c:	01c282b3          	add	t0,t0,t3
   11930:	0062e2b3          	or	t0,t0,t1
   11934:	0c729e63          	bne	t0,t2,11a10 <strcmp+0x10c>
   11938:	04d61663          	bne	a2,a3,11984 <strcmp+0x80>
   1193c:	00853603          	ld	a2,8(a0)
   11940:	0085b683          	ld	a3,8(a1)
   11944:	01c672b3          	and	t0,a2,t3
   11948:	01c66333          	or	t1,a2,t3
   1194c:	01c282b3          	add	t0,t0,t3
   11950:	0062e2b3          	or	t0,t0,t1
   11954:	0a729a63          	bne	t0,t2,11a08 <strcmp+0x104>
   11958:	02d61663          	bne	a2,a3,11984 <strcmp+0x80>
   1195c:	01053603          	ld	a2,16(a0)
   11960:	0105b683          	ld	a3,16(a1)
   11964:	01c672b3          	and	t0,a2,t3
   11968:	01c66333          	or	t1,a2,t3
   1196c:	01c282b3          	add	t0,t0,t3
   11970:	0062e2b3          	or	t0,t0,t1
   11974:	0a729463          	bne	t0,t2,11a1c <strcmp+0x118>
   11978:	01850513          	addi	a0,a0,24
   1197c:	01858593          	addi	a1,a1,24
   11980:	f8d60ee3          	beq	a2,a3,1191c <strcmp+0x18>
   11984:	03061713          	slli	a4,a2,0x30
   11988:	03069793          	slli	a5,a3,0x30
   1198c:	02f71a63          	bne	a4,a5,119c0 <strcmp+0xbc>
   11990:	02061713          	slli	a4,a2,0x20
   11994:	02069793          	slli	a5,a3,0x20
   11998:	02f71463          	bne	a4,a5,119c0 <strcmp+0xbc>
   1199c:	01061713          	slli	a4,a2,0x10
   119a0:	01069793          	slli	a5,a3,0x10
   119a4:	00f71e63          	bne	a4,a5,119c0 <strcmp+0xbc>
   119a8:	03065713          	srli	a4,a2,0x30
   119ac:	0306d793          	srli	a5,a3,0x30
   119b0:	40f70533          	sub	a0,a4,a5
   119b4:	0ff57593          	andi	a1,a0,255
   119b8:	02059063          	bnez	a1,119d8 <strcmp+0xd4>
   119bc:	00008067          	ret
   119c0:	03075713          	srli	a4,a4,0x30
   119c4:	0307d793          	srli	a5,a5,0x30
   119c8:	40f70533          	sub	a0,a4,a5
   119cc:	0ff57593          	andi	a1,a0,255
   119d0:	00059463          	bnez	a1,119d8 <strcmp+0xd4>
   119d4:	00008067          	ret
   119d8:	0ff77713          	andi	a4,a4,255
   119dc:	0ff7f793          	andi	a5,a5,255
   119e0:	40f70533          	sub	a0,a4,a5
   119e4:	00008067          	ret
   119e8:	00054603          	lbu	a2,0(a0)
   119ec:	0005c683          	lbu	a3,0(a1)
   119f0:	00150513          	addi	a0,a0,1
   119f4:	00158593          	addi	a1,a1,1
   119f8:	00d61463          	bne	a2,a3,11a00 <strcmp+0xfc>
   119fc:	fe0616e3          	bnez	a2,119e8 <strcmp+0xe4>
   11a00:	40d60533          	sub	a0,a2,a3
   11a04:	00008067          	ret
   11a08:	00850513          	addi	a0,a0,8
   11a0c:	00858593          	addi	a1,a1,8
   11a10:	fcd61ce3          	bne	a2,a3,119e8 <strcmp+0xe4>
   11a14:	00000513          	li	a0,0
   11a18:	00008067          	ret
   11a1c:	01050513          	addi	a0,a0,16
   11a20:	01058593          	addi	a1,a1,16
   11a24:	fcd612e3          	bne	a2,a3,119e8 <strcmp+0xe4>
   11a28:	00000513          	li	a0,0
   11a2c:	00008067          	ret

0000000000011a30 <strlen>:
   11a30:	00757793          	andi	a5,a0,7
   11a34:	00050593          	mv	a1,a0
   11a38:	06079a63          	bnez	a5,11aac <strlen+0x7c>
   11a3c:	000247b7          	lui	a5,0x24
   11a40:	4287b683          	ld	a3,1064(a5) # 24428 <mask>
   11a44:	fff00613          	li	a2,-1
   11a48:	00850513          	addi	a0,a0,8
   11a4c:	ff853783          	ld	a5,-8(a0)
   11a50:	00d7f733          	and	a4,a5,a3
   11a54:	00d70733          	add	a4,a4,a3
   11a58:	00d7e7b3          	or	a5,a5,a3
   11a5c:	00f767b3          	or	a5,a4,a5
   11a60:	fec784e3          	beq	a5,a2,11a48 <strlen+0x18>
   11a64:	ff854783          	lbu	a5,-8(a0)
   11a68:	40b505b3          	sub	a1,a0,a1
   11a6c:	06078263          	beqz	a5,11ad0 <strlen+0xa0>
   11a70:	ff954783          	lbu	a5,-7(a0)
   11a74:	04078a63          	beqz	a5,11ac8 <strlen+0x98>
   11a78:	ffa54783          	lbu	a5,-6(a0)
   11a7c:	06078263          	beqz	a5,11ae0 <strlen+0xb0>
   11a80:	ffb54783          	lbu	a5,-5(a0)
   11a84:	04078a63          	beqz	a5,11ad8 <strlen+0xa8>
   11a88:	ffc54783          	lbu	a5,-4(a0)
   11a8c:	ffd54703          	lbu	a4,-3(a0)
   11a90:	ffe54683          	lbu	a3,-2(a0)
   11a94:	04078a63          	beqz	a5,11ae8 <strlen+0xb8>
   11a98:	04070c63          	beqz	a4,11af0 <strlen+0xc0>
   11a9c:	fff58513          	addi	a0,a1,-1
   11aa0:	04068c63          	beqz	a3,11af8 <strlen+0xc8>
   11aa4:	00008067          	ret
   11aa8:	f8070ae3          	beqz	a4,11a3c <strlen+0xc>
   11aac:	00054783          	lbu	a5,0(a0)
   11ab0:	00150513          	addi	a0,a0,1
   11ab4:	00757713          	andi	a4,a0,7
   11ab8:	fe0798e3          	bnez	a5,11aa8 <strlen+0x78>
   11abc:	40b50533          	sub	a0,a0,a1
   11ac0:	fff50513          	addi	a0,a0,-1
   11ac4:	00008067          	ret
   11ac8:	ff958513          	addi	a0,a1,-7
   11acc:	00008067          	ret
   11ad0:	ff858513          	addi	a0,a1,-8
   11ad4:	00008067          	ret
   11ad8:	ffb58513          	addi	a0,a1,-5
   11adc:	00008067          	ret
   11ae0:	ffa58513          	addi	a0,a1,-6
   11ae4:	00008067          	ret
   11ae8:	ffc58513          	addi	a0,a1,-4
   11aec:	00008067          	ret
   11af0:	ffd58513          	addi	a0,a1,-3
   11af4:	00008067          	ret
   11af8:	ffe58513          	addi	a0,a1,-2
   11afc:	00008067          	ret

0000000000011b00 <_vfprintf_r>:
   11b00:	e1010113          	addi	sp,sp,-496
   11b04:	1e113423          	sd	ra,488(sp)
   11b08:	1d313423          	sd	s3,456(sp)
   11b0c:	1d413023          	sd	s4,448(sp)
   11b10:	1b713423          	sd	s7,424(sp)
   11b14:	00058a13          	mv	s4,a1
   11b18:	00060993          	mv	s3,a2
   11b1c:	02d13423          	sd	a3,40(sp)
   11b20:	1e813023          	sd	s0,480(sp)
   11b24:	1c913c23          	sd	s1,472(sp)
   11b28:	1d213823          	sd	s2,464(sp)
   11b2c:	1b513c23          	sd	s5,440(sp)
   11b30:	1b613823          	sd	s6,432(sp)
   11b34:	1b813023          	sd	s8,416(sp)
   11b38:	19913c23          	sd	s9,408(sp)
   11b3c:	19a13823          	sd	s10,400(sp)
   11b40:	19b13423          	sd	s11,392(sp)
   11b44:	16813c27          	fsd	fs0,376(sp)
   11b48:	00050b93          	mv	s7,a0
   11b4c:	30d050ef          	jal	17658 <_localeconv_r>
   11b50:	00053783          	ld	a5,0(a0)
   11b54:	00078513          	mv	a0,a5
   11b58:	06f13023          	sd	a5,96(sp)
   11b5c:	ed5ff0ef          	jal	11a30 <strlen>
   11b60:	06a13423          	sd	a0,104(sp)
   11b64:	000b8663          	beqz	s7,11b70 <_vfprintf_r+0x70>
   11b68:	050ba783          	lw	a5,80(s7)
   11b6c:	2e078c63          	beqz	a5,11e64 <_vfprintf_r+0x364>
   11b70:	010a1683          	lh	a3,16(s4)
   11b74:	03069793          	slli	a5,a3,0x30
   11b78:	0307d793          	srli	a5,a5,0x30
   11b7c:	03279713          	slli	a4,a5,0x32
   11b80:	02074a63          	bltz	a4,11bb4 <_vfprintf_r+0xb4>
   11b84:	000027b7          	lui	a5,0x2
   11b88:	0aca2603          	lw	a2,172(s4)
   11b8c:	00f6e7b3          	or	a5,a3,a5
   11b90:	0107979b          	slliw	a5,a5,0x10
   11b94:	ffffe737          	lui	a4,0xffffe
   11b98:	4107d79b          	sraiw	a5,a5,0x10
   11b9c:	fff7071b          	addiw	a4,a4,-1
   11ba0:	00e67733          	and	a4,a2,a4
   11ba4:	00fa1823          	sh	a5,16(s4)
   11ba8:	03079793          	slli	a5,a5,0x30
   11bac:	0aea2623          	sw	a4,172(s4)
   11bb0:	0307d793          	srli	a5,a5,0x30
   11bb4:	0087f713          	andi	a4,a5,8
   11bb8:	1e070063          	beqz	a4,11d98 <_vfprintf_r+0x298>
   11bbc:	018a3703          	ld	a4,24(s4)
   11bc0:	1c070c63          	beqz	a4,11d98 <_vfprintf_r+0x298>
   11bc4:	01a7f793          	andi	a5,a5,26
   11bc8:	00a00713          	li	a4,10
   11bcc:	1ee78863          	beq	a5,a4,11dbc <_vfprintf_r+0x2bc>
   11bd0:	000207b7          	lui	a5,0x20
   11bd4:	72078793          	addi	a5,a5,1824 # 20720 <sulp+0x68>
   11bd8:	0f010b13          	addi	s6,sp,240
   11bdc:	02f13823          	sd	a5,48(sp)
   11be0:	0ef10793          	addi	a5,sp,239
   11be4:	00021ab7          	lui	s5,0x21
   11be8:	000214b7          	lui	s1,0x21
   11bec:	40fb07b3          	sub	a5,s6,a5
   11bf0:	04013c23          	sd	zero,88(sp)
   11bf4:	0b613823          	sd	s6,176(sp)
   11bf8:	0c013023          	sd	zero,192(sp)
   11bfc:	0a012c23          	sw	zero,184(sp)
   11c00:	06012823          	sw	zero,112(sp)
   11c04:	000b0893          	mv	a7,s6
   11c08:	02013c23          	sd	zero,56(sp)
   11c0c:	06012a23          	sw	zero,116(sp)
   11c10:	00012e23          	sw	zero,28(sp)
   11c14:	888a8a93          	addi	s5,s5,-1912 # 20888 <blanks.4193>
   11c18:	89848493          	addi	s1,s1,-1896 # 20898 <zeroes.4194>
   11c1c:	06f13c23          	sd	a5,120(sp)
   11c20:	0009c783          	lbu	a5,0(s3)
   11c24:	0e0782e3          	beqz	a5,12508 <_vfprintf_r+0xa08>
   11c28:	02500713          	li	a4,37
   11c2c:	00098413          	mv	s0,s3
   11c30:	00e79663          	bne	a5,a4,11c3c <_vfprintf_r+0x13c>
   11c34:	0580006f          	j	11c8c <_vfprintf_r+0x18c>
   11c38:	00e78863          	beq	a5,a4,11c48 <_vfprintf_r+0x148>
   11c3c:	00140413          	addi	s0,s0,1
   11c40:	00044783          	lbu	a5,0(s0)
   11c44:	fe079ae3          	bnez	a5,11c38 <_vfprintf_r+0x138>
   11c48:	4134093b          	subw	s2,s0,s3
   11c4c:	04090063          	beqz	s2,11c8c <_vfprintf_r+0x18c>
   11c50:	0c013703          	ld	a4,192(sp)
   11c54:	0b812783          	lw	a5,184(sp)
   11c58:	00090693          	mv	a3,s2
   11c5c:	00d70733          	add	a4,a4,a3
   11c60:	0017879b          	addiw	a5,a5,1
   11c64:	0138b023          	sd	s3,0(a7)
   11c68:	00d8b423          	sd	a3,8(a7)
   11c6c:	0ce13023          	sd	a4,192(sp)
   11c70:	0af12c23          	sw	a5,184(sp)
   11c74:	00700713          	li	a4,7
   11c78:	01088893          	addi	a7,a7,16
   11c7c:	16f74063          	blt	a4,a5,11ddc <_vfprintf_r+0x2dc>
   11c80:	01c12783          	lw	a5,28(sp)
   11c84:	012787bb          	addw	a5,a5,s2
   11c88:	00f12e23          	sw	a5,28(sp)
   11c8c:	00044783          	lbu	a5,0(s0)
   11c90:	16078463          	beqz	a5,11df8 <_vfprintf_r+0x2f8>
   11c94:	00140993          	addi	s3,s0,1
   11c98:	080107a3          	sb	zero,143(sp)
   11c9c:	00000613          	li	a2,0
   11ca0:	00000593          	li	a1,0
   11ca4:	fff00413          	li	s0,-1
   11ca8:	00012c23          	sw	zero,24(sp)
   11cac:	00000c13          	li	s8,0
   11cb0:	05800713          	li	a4,88
   11cb4:	00900693          	li	a3,9
   11cb8:	02a00513          	li	a0,42
   11cbc:	0009cd03          	lbu	s10,0(s3)
   11cc0:	00198993          	addi	s3,s3,1
   11cc4:	fe0d079b          	addiw	a5,s10,-32
   11cc8:	1cf762e3          	bltu	a4,a5,1268c <_vfprintf_r+0xb8c>
   11ccc:	03013803          	ld	a6,48(sp)
   11cd0:	02079793          	slli	a5,a5,0x20
   11cd4:	01e7d793          	srli	a5,a5,0x1e
   11cd8:	010787b3          	add	a5,a5,a6
   11cdc:	0007a783          	lw	a5,0(a5)
   11ce0:	00078067          	jr	a5
   11ce4:	010c6c13          	ori	s8,s8,16
   11ce8:	fd5ff06f          	j	11cbc <_vfprintf_r+0x1bc>
   11cec:	02813783          	ld	a5,40(sp)
   11cf0:	0007a803          	lw	a6,0(a5)
   11cf4:	00878793          	addi	a5,a5,8
   11cf8:	02f13423          	sd	a5,40(sp)
   11cfc:	01012c23          	sw	a6,24(sp)
   11d00:	fa085ee3          	bgez	a6,11cbc <_vfprintf_r+0x1bc>
   11d04:	410007bb          	negw	a5,a6
   11d08:	00f12c23          	sw	a5,24(sp)
   11d0c:	004c6c13          	ori	s8,s8,4
   11d10:	fadff06f          	j	11cbc <_vfprintf_r+0x1bc>
   11d14:	03000793          	li	a5,48
   11d18:	08f10823          	sb	a5,144(sp)
   11d1c:	07800793          	li	a5,120
   11d20:	08f108a3          	sb	a5,145(sp)
   11d24:	02813783          	ld	a5,40(sp)
   11d28:	080107a3          	sb	zero,143(sp)
   11d2c:	002c6693          	ori	a3,s8,2
   11d30:	00878713          	addi	a4,a5,8
   11d34:	0007b783          	ld	a5,0(a5)
   11d38:	180444e3          	bltz	s0,126c0 <_vfprintf_r+0xbc0>
   11d3c:	f7fc7c13          	andi	s8,s8,-129
   11d40:	02e13423          	sd	a4,40(sp)
   11d44:	002c6c13          	ori	s8,s8,2
   11d48:	120796e3          	bnez	a5,12674 <_vfprintf_r+0xb74>
   11d4c:	000227b7          	lui	a5,0x22
   11d50:	cb878793          	addi	a5,a5,-840 # 21cb8 <zeroes.4123+0x6a8>
   11d54:	02f13c23          	sd	a5,56(sp)
   11d58:	07800d13          	li	s10,120
   11d5c:	00000613          	li	a2,0
   11d60:	7e040463          	beqz	s0,12548 <_vfprintf_r+0xa48>
   11d64:	00000793          	li	a5,0
   11d68:	000b0913          	mv	s2,s6
   11d6c:	03813683          	ld	a3,56(sp)
   11d70:	00f7f713          	andi	a4,a5,15
   11d74:	fff90913          	addi	s2,s2,-1
   11d78:	00e68733          	add	a4,a3,a4
   11d7c:	00074703          	lbu	a4,0(a4) # ffffffffffffe000 <_end+0xfffffffffffd7258>
   11d80:	0047d793          	srli	a5,a5,0x4
   11d84:	00e90023          	sb	a4,0(s2)
   11d88:	fe0792e3          	bnez	a5,11d6c <_vfprintf_r+0x26c>
   11d8c:	412b07b3          	sub	a5,s6,s2
   11d90:	02f12023          	sw	a5,32(sp)
   11d94:	1680006f          	j	11efc <_vfprintf_r+0x3fc>
   11d98:	000a0593          	mv	a1,s4
   11d9c:	000b8513          	mv	a0,s7
   11da0:	5ed020ef          	jal	14b8c <__swsetup_r>
   11da4:	00050463          	beqz	a0,11dac <_vfprintf_r+0x2ac>
   11da8:	3940106f          	j	1313c <_vfprintf_r+0x163c>
   11dac:	010a5783          	lhu	a5,16(s4)
   11db0:	00a00713          	li	a4,10
   11db4:	01a7f793          	andi	a5,a5,26
   11db8:	e0e79ce3          	bne	a5,a4,11bd0 <_vfprintf_r+0xd0>
   11dbc:	012a1783          	lh	a5,18(s4)
   11dc0:	e007c8e3          	bltz	a5,11bd0 <_vfprintf_r+0xd0>
   11dc4:	02813683          	ld	a3,40(sp)
   11dc8:	00098613          	mv	a2,s3
   11dcc:	000a0593          	mv	a1,s4
   11dd0:	000b8513          	mv	a0,s7
   11dd4:	1c9010ef          	jal	1379c <__sbprintf>
   11dd8:	04c0006f          	j	11e24 <_vfprintf_r+0x324>
   11ddc:	0b010613          	addi	a2,sp,176
   11de0:	000a0593          	mv	a1,s4
   11de4:	000b8513          	mv	a0,s7
   11de8:	1e80b0ef          	jal	1cfd0 <__sprint_r>
   11dec:	02051263          	bnez	a0,11e10 <_vfprintf_r+0x310>
   11df0:	000b0893          	mv	a7,s6
   11df4:	e8dff06f          	j	11c80 <_vfprintf_r+0x180>
   11df8:	0c013783          	ld	a5,192(sp)
   11dfc:	00078a63          	beqz	a5,11e10 <_vfprintf_r+0x310>
   11e00:	0b010613          	addi	a2,sp,176
   11e04:	000a0593          	mv	a1,s4
   11e08:	000b8513          	mv	a0,s7
   11e0c:	1c40b0ef          	jal	1cfd0 <__sprint_r>
   11e10:	010a5783          	lhu	a5,16(s4)
   11e14:	0407f793          	andi	a5,a5,64
   11e18:	00078463          	beqz	a5,11e20 <_vfprintf_r+0x320>
   11e1c:	3200106f          	j	1313c <_vfprintf_r+0x163c>
   11e20:	01c12503          	lw	a0,28(sp)
   11e24:	1e813083          	ld	ra,488(sp)
   11e28:	1e013403          	ld	s0,480(sp)
   11e2c:	1d813483          	ld	s1,472(sp)
   11e30:	1d013903          	ld	s2,464(sp)
   11e34:	1c813983          	ld	s3,456(sp)
   11e38:	1c013a03          	ld	s4,448(sp)
   11e3c:	1b813a83          	ld	s5,440(sp)
   11e40:	1b013b03          	ld	s6,432(sp)
   11e44:	1a813b83          	ld	s7,424(sp)
   11e48:	1a013c03          	ld	s8,416(sp)
   11e4c:	19813c83          	ld	s9,408(sp)
   11e50:	19013d03          	ld	s10,400(sp)
   11e54:	18813d83          	ld	s11,392(sp)
   11e58:	17813407          	fld	fs0,376(sp)
   11e5c:	1f010113          	addi	sp,sp,496
   11e60:	00008067          	ret
   11e64:	000b8513          	mv	a0,s7
   11e68:	229040ef          	jal	16890 <__sinit>
   11e6c:	d05ff06f          	j	11b70 <_vfprintf_r+0x70>
   11e70:	00100613          	li	a2,1
   11e74:	02b00593          	li	a1,43
   11e78:	e45ff06f          	j	11cbc <_vfprintf_r+0x1bc>
   11e7c:	00060463          	beqz	a2,11e84 <_vfprintf_r+0x384>
   11e80:	0d90106f          	j	13758 <_vfprintf_r+0x1c58>
   11e84:	010c7793          	andi	a5,s8,16
   11e88:	22078263          	beqz	a5,120ac <_vfprintf_r+0x5ac>
   11e8c:	02813783          	ld	a5,40(sp)
   11e90:	080107a3          	sb	zero,143(sp)
   11e94:	00878713          	addi	a4,a5,8
   11e98:	0007b783          	ld	a5,0(a5)
   11e9c:	22044663          	bltz	s0,120c8 <_vfprintf_r+0x5c8>
   11ea0:	02e13423          	sd	a4,40(sp)
   11ea4:	f7fc7c13          	andi	s8,s8,-129
   11ea8:	22079663          	bnez	a5,120d4 <_vfprintf_r+0x5d4>
   11eac:	00000613          	li	a2,0
   11eb0:	00000793          	li	a5,0
   11eb4:	00041463          	bnez	s0,11ebc <_vfprintf_r+0x3bc>
   11eb8:	3680106f          	j	13220 <_vfprintf_r+0x1720>
   11ebc:	000b0913          	mv	s2,s6
   11ec0:	0077f713          	andi	a4,a5,7
   11ec4:	fff90913          	addi	s2,s2,-1
   11ec8:	0307071b          	addiw	a4,a4,48
   11ecc:	00e90023          	sb	a4,0(s2)
   11ed0:	0037d793          	srli	a5,a5,0x3
   11ed4:	fe0796e3          	bnez	a5,11ec0 <_vfprintf_r+0x3c0>
   11ed8:	001c7793          	andi	a5,s8,1
   11edc:	ea0788e3          	beqz	a5,11d8c <_vfprintf_r+0x28c>
   11ee0:	03000793          	li	a5,48
   11ee4:	eaf704e3          	beq	a4,a5,11d8c <_vfprintf_r+0x28c>
   11ee8:	fff90713          	addi	a4,s2,-1
   11eec:	40eb06b3          	sub	a3,s6,a4
   11ef0:	fef90fa3          	sb	a5,-1(s2)
   11ef4:	02d12023          	sw	a3,32(sp)
   11ef8:	00070913          	mv	s2,a4
   11efc:	02012783          	lw	a5,32(sp)
   11f00:	00078d93          	mv	s11,a5
   11f04:	0087d463          	ble	s0,a5,11f0c <_vfprintf_r+0x40c>
   11f08:	00040d93          	mv	s11,s0
   11f0c:	01b12423          	sw	s11,8(sp)
   11f10:	04012623          	sw	zero,76(sp)
   11f14:	2a060263          	beqz	a2,121b8 <_vfprintf_r+0x6b8>
   11f18:	00812783          	lw	a5,8(sp)
   11f1c:	0017879b          	addiw	a5,a5,1
   11f20:	00f12423          	sw	a5,8(sp)
   11f24:	2940006f          	j	121b8 <_vfprintf_r+0x6b8>
   11f28:	0009cd03          	lbu	s10,0(s3)
   11f2c:	00198993          	addi	s3,s3,1
   11f30:	00ad1463          	bne	s10,a0,11f38 <_vfprintf_r+0x438>
   11f34:	75c0106f          	j	13690 <_vfprintf_r+0x1b90>
   11f38:	fd0d079b          	addiw	a5,s10,-48
   11f3c:	00000413          	li	s0,0
   11f40:	d8f6e2e3          	bltu	a3,a5,11cc4 <_vfprintf_r+0x1c4>
   11f44:	00198993          	addi	s3,s3,1
   11f48:	fff9cd03          	lbu	s10,-1(s3)
   11f4c:	0014181b          	slliw	a6,s0,0x1
   11f50:	0034141b          	slliw	s0,s0,0x3
   11f54:	0088043b          	addw	s0,a6,s0
   11f58:	00f4043b          	addw	s0,s0,a5
   11f5c:	fd0d079b          	addiw	a5,s10,-48
   11f60:	fef6f2e3          	bleu	a5,a3,11f44 <_vfprintf_r+0x444>
   11f64:	d60450e3          	bgez	s0,11cc4 <_vfprintf_r+0x1c4>
   11f68:	fff00413          	li	s0,-1
   11f6c:	d59ff06f          	j	11cc4 <_vfprintf_r+0x1c4>
   11f70:	080c6c13          	ori	s8,s8,128
   11f74:	d49ff06f          	j	11cbc <_vfprintf_r+0x1bc>
   11f78:	d40592e3          	bnez	a1,11cbc <_vfprintf_r+0x1bc>
   11f7c:	00100613          	li	a2,1
   11f80:	02000593          	li	a1,32
   11f84:	d39ff06f          	j	11cbc <_vfprintf_r+0x1bc>
   11f88:	001c6c13          	ori	s8,s8,1
   11f8c:	d31ff06f          	j	11cbc <_vfprintf_r+0x1bc>
   11f90:	02813783          	ld	a5,40(sp)
   11f94:	080107a3          	sb	zero,143(sp)
   11f98:	0007b903          	ld	s2,0(a5)
   11f9c:	00878c93          	addi	s9,a5,8
   11fa0:	00091463          	bnez	s2,11fa8 <_vfprintf_r+0x4a8>
   11fa4:	39c0106f          	j	13340 <_vfprintf_r+0x1840>
   11fa8:	01113023          	sd	a7,0(sp)
   11fac:	00045463          	bgez	s0,11fb4 <_vfprintf_r+0x4b4>
   11fb0:	3240106f          	j	132d4 <_vfprintf_r+0x17d4>
   11fb4:	00040613          	mv	a2,s0
   11fb8:	00000593          	li	a1,0
   11fbc:	00090513          	mv	a0,s2
   11fc0:	2c9050ef          	jal	17a88 <memchr>
   11fc4:	00013883          	ld	a7,0(sp)
   11fc8:	00051463          	bnez	a0,11fd0 <_vfprintf_r+0x4d0>
   11fcc:	4c00106f          	j	1348c <_vfprintf_r+0x198c>
   11fd0:	412507bb          	subw	a5,a0,s2
   11fd4:	02f12023          	sw	a5,32(sp)
   11fd8:	00078d93          	mv	s11,a5
   11fdc:	0007d463          	bgez	a5,11fe4 <_vfprintf_r+0x4e4>
   11fe0:	3140106f          	j	132f4 <_vfprintf_r+0x17f4>
   11fe4:	08f14603          	lbu	a2,143(sp)
   11fe8:	01b12423          	sw	s11,8(sp)
   11fec:	03913423          	sd	s9,40(sp)
   11ff0:	00000413          	li	s0,0
   11ff4:	04012623          	sw	zero,76(sp)
   11ff8:	f1dff06f          	j	11f14 <_vfprintf_r+0x414>
   11ffc:	00060463          	beqz	a2,12004 <_vfprintf_r+0x504>
   12000:	7800106f          	j	13780 <_vfprintf_r+0x1c80>
   12004:	010c7793          	andi	a5,s8,16
   12008:	0e078463          	beqz	a5,120f0 <_vfprintf_r+0x5f0>
   1200c:	02813783          	ld	a5,40(sp)
   12010:	080107a3          	sb	zero,143(sp)
   12014:	00878713          	addi	a4,a5,8
   12018:	0007b783          	ld	a5,0(a5)
   1201c:	0e044863          	bltz	s0,1210c <_vfprintf_r+0x60c>
   12020:	02e13423          	sd	a4,40(sp)
   12024:	f7fc7c13          	andi	s8,s8,-129
   12028:	00000613          	li	a2,0
   1202c:	50078c63          	beqz	a5,12544 <_vfprintf_r+0xa44>
   12030:	00900713          	li	a4,9
   12034:	000b0913          	mv	s2,s6
   12038:	00a00693          	li	a3,10
   1203c:	40f770e3          	bleu	a5,a4,12c3c <_vfprintf_r+0x113c>
   12040:	02d7f733          	remu	a4,a5,a3
   12044:	fff90913          	addi	s2,s2,-1
   12048:	02d7d7b3          	divu	a5,a5,a3
   1204c:	0307071b          	addiw	a4,a4,48
   12050:	00e90023          	sb	a4,0(s2)
   12054:	fe0796e3          	bnez	a5,12040 <_vfprintf_r+0x540>
   12058:	412b07b3          	sub	a5,s6,s2
   1205c:	02f12023          	sw	a5,32(sp)
   12060:	e9dff06f          	j	11efc <_vfprintf_r+0x3fc>
   12064:	00012c23          	sw	zero,24(sp)
   12068:	fd0d079b          	addiw	a5,s10,-48
   1206c:	01812303          	lw	t1,24(sp)
   12070:	00198993          	addi	s3,s3,1
   12074:	fff9cd03          	lbu	s10,-1(s3)
   12078:	0013181b          	slliw	a6,t1,0x1
   1207c:	00331c9b          	slliw	s9,t1,0x3
   12080:	01980cbb          	addw	s9,a6,s9
   12084:	019787bb          	addw	a5,a5,s9
   12088:	00f12c23          	sw	a5,24(sp)
   1208c:	fd0d079b          	addiw	a5,s10,-48
   12090:	fcf6fee3          	bleu	a5,a3,1206c <_vfprintf_r+0x56c>
   12094:	c31ff06f          	j	11cc4 <_vfprintf_r+0x1c4>
   12098:	00060463          	beqz	a2,120a0 <_vfprintf_r+0x5a0>
   1209c:	6d80106f          	j	13774 <_vfprintf_r+0x1c74>
   120a0:	010c6c13          	ori	s8,s8,16
   120a4:	010c7793          	andi	a5,s8,16
   120a8:	de0792e3          	bnez	a5,11e8c <_vfprintf_r+0x38c>
   120ac:	040c7793          	andi	a5,s8,64
   120b0:	080107a3          	sb	zero,143(sp)
   120b4:	580780e3          	beqz	a5,12e34 <_vfprintf_r+0x1334>
   120b8:	02813783          	ld	a5,40(sp)
   120bc:	00878713          	addi	a4,a5,8
   120c0:	0007d783          	lhu	a5,0(a5)
   120c4:	dc045ee3          	bgez	s0,11ea0 <_vfprintf_r+0x3a0>
   120c8:	02e13423          	sd	a4,40(sp)
   120cc:	00000613          	li	a2,0
   120d0:	60078a63          	beqz	a5,126e4 <_vfprintf_r+0xbe4>
   120d4:	00000613          	li	a2,0
   120d8:	de5ff06f          	j	11ebc <_vfprintf_r+0x3bc>
   120dc:	00060463          	beqz	a2,120e4 <_vfprintf_r+0x5e4>
   120e0:	6880106f          	j	13768 <_vfprintf_r+0x1c68>
   120e4:	010c6c13          	ori	s8,s8,16
   120e8:	010c7793          	andi	a5,s8,16
   120ec:	f20790e3          	bnez	a5,1200c <_vfprintf_r+0x50c>
   120f0:	040c7793          	andi	a5,s8,64
   120f4:	080107a3          	sb	zero,143(sp)
   120f8:	500780e3          	beqz	a5,12df8 <_vfprintf_r+0x12f8>
   120fc:	02813783          	ld	a5,40(sp)
   12100:	00878713          	addi	a4,a5,8
   12104:	0007d783          	lhu	a5,0(a5)
   12108:	f0045ce3          	bgez	s0,12020 <_vfprintf_r+0x520>
   1210c:	02e13423          	sd	a4,40(sp)
   12110:	00000613          	li	a2,0
   12114:	f0079ee3          	bnez	a5,12030 <_vfprintf_r+0x530>
   12118:	00100793          	li	a5,1
   1211c:	5c80006f          	j	126e4 <_vfprintf_r+0xbe4>
   12120:	00060463          	beqz	a2,12128 <_vfprintf_r+0x628>
   12124:	63c0106f          	j	13760 <_vfprintf_r+0x1c60>
   12128:	000227b7          	lui	a5,0x22
   1212c:	ca078793          	addi	a5,a5,-864 # 21ca0 <zeroes.4123+0x690>
   12130:	02f13c23          	sd	a5,56(sp)
   12134:	010c7793          	andi	a5,s8,16
   12138:	4c078263          	beqz	a5,125fc <_vfprintf_r+0xafc>
   1213c:	02813703          	ld	a4,40(sp)
   12140:	00073783          	ld	a5,0(a4)
   12144:	00870713          	addi	a4,a4,8
   12148:	02e13423          	sd	a4,40(sp)
   1214c:	001c7713          	andi	a4,s8,1
   12150:	120706e3          	beqz	a4,12a7c <_vfprintf_r+0xf7c>
   12154:	6a078ee3          	beqz	a5,13010 <_vfprintf_r+0x1510>
   12158:	03000713          	li	a4,48
   1215c:	08e10823          	sb	a4,144(sp)
   12160:	09a108a3          	sb	s10,145(sp)
   12164:	080107a3          	sb	zero,143(sp)
   12168:	002c6713          	ori	a4,s8,2
   1216c:	00045463          	bgez	s0,12174 <_vfprintf_r+0x674>
   12170:	2140106f          	j	13384 <_vfprintf_r+0x1884>
   12174:	f7fc7c13          	andi	s8,s8,-129
   12178:	002c6c13          	ori	s8,s8,2
   1217c:	00000613          	li	a2,0
   12180:	be9ff06f          	j	11d68 <_vfprintf_r+0x268>
   12184:	02813703          	ld	a4,40(sp)
   12188:	00100693          	li	a3,1
   1218c:	00d12423          	sw	a3,8(sp)
   12190:	00072783          	lw	a5,0(a4)
   12194:	080107a3          	sb	zero,143(sp)
   12198:	00000613          	li	a2,0
   1219c:	0cf10423          	sb	a5,200(sp)
   121a0:	00870793          	addi	a5,a4,8
   121a4:	02f13423          	sd	a5,40(sp)
   121a8:	02d12023          	sw	a3,32(sp)
   121ac:	00000413          	li	s0,0
   121b0:	04012623          	sw	zero,76(sp)
   121b4:	0c810913          	addi	s2,sp,200
   121b8:	002c7793          	andi	a5,s8,2
   121bc:	04f12023          	sw	a5,64(sp)
   121c0:	00078863          	beqz	a5,121d0 <_vfprintf_r+0x6d0>
   121c4:	00812783          	lw	a5,8(sp)
   121c8:	0027879b          	addiw	a5,a5,2
   121cc:	00f12423          	sw	a5,8(sp)
   121d0:	084c7793          	andi	a5,s8,132
   121d4:	04f12423          	sw	a5,72(sp)
   121d8:	52079263          	bnez	a5,126fc <_vfprintf_r+0xbfc>
   121dc:	01812783          	lw	a5,24(sp)
   121e0:	00812703          	lw	a4,8(sp)
   121e4:	40e78cbb          	subw	s9,a5,a4
   121e8:	51905a63          	blez	s9,126fc <_vfprintf_r+0xbfc>
   121ec:	01000793          	li	a5,16
   121f0:	0197c463          	blt	a5,s9,121f8 <_vfprintf_r+0x6f8>
   121f4:	1080106f          	j	132fc <_vfprintf_r+0x17fc>
   121f8:	01000813          	li	a6,16
   121fc:	0c013783          	ld	a5,192(sp)
   12200:	0b812703          	lw	a4,184(sp)
   12204:	05513823          	sd	s5,80(sp)
   12208:	00700313          	li	t1,7
   1220c:	00080d93          	mv	s11,a6
   12210:	00c0006f          	j	1221c <_vfprintf_r+0x71c>
   12214:	ff0c8c9b          	addiw	s9,s9,-16
   12218:	059dde63          	ble	s9,s11,12274 <_vfprintf_r+0x774>
   1221c:	01078793          	addi	a5,a5,16
   12220:	0017071b          	addiw	a4,a4,1
   12224:	0158b023          	sd	s5,0(a7)
   12228:	0108b423          	sd	a6,8(a7)
   1222c:	0cf13023          	sd	a5,192(sp)
   12230:	0ae12c23          	sw	a4,184(sp)
   12234:	01088893          	addi	a7,a7,16
   12238:	fce35ee3          	ble	a4,t1,12214 <_vfprintf_r+0x714>
   1223c:	0b010613          	addi	a2,sp,176
   12240:	000a0593          	mv	a1,s4
   12244:	000b8513          	mv	a0,s7
   12248:	00613823          	sd	t1,16(sp)
   1224c:	01013023          	sd	a6,0(sp)
   12250:	5810a0ef          	jal	1cfd0 <__sprint_r>
   12254:	ba051ee3          	bnez	a0,11e10 <_vfprintf_r+0x310>
   12258:	ff0c8c9b          	addiw	s9,s9,-16
   1225c:	0c013783          	ld	a5,192(sp)
   12260:	0b812703          	lw	a4,184(sp)
   12264:	000b0893          	mv	a7,s6
   12268:	01013303          	ld	t1,16(sp)
   1226c:	00013803          	ld	a6,0(sp)
   12270:	fb9dc6e3          	blt	s11,s9,1221c <_vfprintf_r+0x71c>
   12274:	05013603          	ld	a2,80(sp)
   12278:	00fc87b3          	add	a5,s9,a5
   1227c:	0017071b          	addiw	a4,a4,1
   12280:	00c8b023          	sd	a2,0(a7)
   12284:	0198b423          	sd	s9,8(a7)
   12288:	0cf13023          	sd	a5,192(sp)
   1228c:	0ae12c23          	sw	a4,184(sp)
   12290:	00700693          	li	a3,7
   12294:	0ce6cae3          	blt	a3,a4,12b68 <_vfprintf_r+0x1068>
   12298:	08f14603          	lbu	a2,143(sp)
   1229c:	01088893          	addi	a7,a7,16
   122a0:	02060a63          	beqz	a2,122d4 <_vfprintf_r+0x7d4>
   122a4:	0b812703          	lw	a4,184(sp)
   122a8:	08f10693          	addi	a3,sp,143
   122ac:	00d8b023          	sd	a3,0(a7)
   122b0:	00178793          	addi	a5,a5,1
   122b4:	00100693          	li	a3,1
   122b8:	0017071b          	addiw	a4,a4,1
   122bc:	00d8b423          	sd	a3,8(a7)
   122c0:	0cf13023          	sd	a5,192(sp)
   122c4:	0ae12c23          	sw	a4,184(sp)
   122c8:	00700693          	li	a3,7
   122cc:	01088893          	addi	a7,a7,16
   122d0:	76e6c663          	blt	a3,a4,12a3c <_vfprintf_r+0xf3c>
   122d4:	04012703          	lw	a4,64(sp)
   122d8:	02070a63          	beqz	a4,1230c <_vfprintf_r+0x80c>
   122dc:	0b812703          	lw	a4,184(sp)
   122e0:	09010693          	addi	a3,sp,144
   122e4:	00d8b023          	sd	a3,0(a7)
   122e8:	00278793          	addi	a5,a5,2
   122ec:	00200693          	li	a3,2
   122f0:	0017071b          	addiw	a4,a4,1
   122f4:	00d8b423          	sd	a3,8(a7)
   122f8:	0cf13023          	sd	a5,192(sp)
   122fc:	0ae12c23          	sw	a4,184(sp)
   12300:	00700693          	li	a3,7
   12304:	01088893          	addi	a7,a7,16
   12308:	74e6ca63          	blt	a3,a4,12a5c <_vfprintf_r+0xf5c>
   1230c:	04812683          	lw	a3,72(sp)
   12310:	08000713          	li	a4,128
   12314:	5ee68663          	beq	a3,a4,12900 <_vfprintf_r+0xe00>
   12318:	02012703          	lw	a4,32(sp)
   1231c:	40e4043b          	subw	s0,s0,a4
   12320:	0c805063          	blez	s0,123e0 <_vfprintf_r+0x8e0>
   12324:	01000713          	li	a4,16
   12328:	4e875ce3          	ble	s0,a4,13020 <_vfprintf_r+0x1520>
   1232c:	01000c93          	li	s9,16
   12330:	0b812703          	lw	a4,184(sp)
   12334:	00913823          	sd	s1,16(sp)
   12338:	00700813          	li	a6,7
   1233c:	000c8d93          	mv	s11,s9
   12340:	00c0006f          	j	1234c <_vfprintf_r+0x84c>
   12344:	ff04041b          	addiw	s0,s0,-16
   12348:	048dda63          	ble	s0,s11,1239c <_vfprintf_r+0x89c>
   1234c:	01078793          	addi	a5,a5,16
   12350:	0017071b          	addiw	a4,a4,1
   12354:	0098b023          	sd	s1,0(a7)
   12358:	0198b423          	sd	s9,8(a7)
   1235c:	0cf13023          	sd	a5,192(sp)
   12360:	0ae12c23          	sw	a4,184(sp)
   12364:	01088893          	addi	a7,a7,16
   12368:	fce85ee3          	ble	a4,a6,12344 <_vfprintf_r+0x844>
   1236c:	0b010613          	addi	a2,sp,176
   12370:	000a0593          	mv	a1,s4
   12374:	000b8513          	mv	a0,s7
   12378:	01013023          	sd	a6,0(sp)
   1237c:	4550a0ef          	jal	1cfd0 <__sprint_r>
   12380:	a80518e3          	bnez	a0,11e10 <_vfprintf_r+0x310>
   12384:	ff04041b          	addiw	s0,s0,-16
   12388:	0c013783          	ld	a5,192(sp)
   1238c:	0b812703          	lw	a4,184(sp)
   12390:	000b0893          	mv	a7,s6
   12394:	00013803          	ld	a6,0(sp)
   12398:	fa8dcae3          	blt	s11,s0,1234c <_vfprintf_r+0x84c>
   1239c:	01013683          	ld	a3,16(sp)
   123a0:	008787b3          	add	a5,a5,s0
   123a4:	0017071b          	addiw	a4,a4,1
   123a8:	00d8b023          	sd	a3,0(a7)
   123ac:	0088b423          	sd	s0,8(a7)
   123b0:	0cf13023          	sd	a5,192(sp)
   123b4:	0ae12c23          	sw	a4,184(sp)
   123b8:	00700693          	li	a3,7
   123bc:	01088893          	addi	a7,a7,16
   123c0:	02e6d063          	ble	a4,a3,123e0 <_vfprintf_r+0x8e0>
   123c4:	0b010613          	addi	a2,sp,176
   123c8:	000a0593          	mv	a1,s4
   123cc:	000b8513          	mv	a0,s7
   123d0:	4010a0ef          	jal	1cfd0 <__sprint_r>
   123d4:	a2051ee3          	bnez	a0,11e10 <_vfprintf_r+0x310>
   123d8:	0c013783          	ld	a5,192(sp)
   123dc:	000b0893          	mv	a7,s6
   123e0:	100c7713          	andi	a4,s8,256
   123e4:	40071663          	bnez	a4,127f0 <_vfprintf_r+0xcf0>
   123e8:	02012703          	lw	a4,32(sp)
   123ec:	0b812683          	lw	a3,184(sp)
   123f0:	0128b023          	sd	s2,0(a7)
   123f4:	00e787b3          	add	a5,a5,a4
   123f8:	0016869b          	addiw	a3,a3,1
   123fc:	00e8b423          	sd	a4,8(a7)
   12400:	0cf13023          	sd	a5,192(sp)
   12404:	0ad12c23          	sw	a3,184(sp)
   12408:	00700713          	li	a4,7
   1240c:	3cd74263          	blt	a4,a3,127d0 <_vfprintf_r+0xcd0>
   12410:	01088893          	addi	a7,a7,16
   12414:	004c7c13          	andi	s8,s8,4
   12418:	0c0c0063          	beqz	s8,124d8 <_vfprintf_r+0x9d8>
   1241c:	01812703          	lw	a4,24(sp)
   12420:	00812683          	lw	a3,8(sp)
   12424:	40d7043b          	subw	s0,a4,a3
   12428:	0a805863          	blez	s0,124d8 <_vfprintf_r+0x9d8>
   1242c:	01000713          	li	a4,16
   12430:	748754e3          	ble	s0,a4,13378 <_vfprintf_r+0x1878>
   12434:	01000913          	li	s2,16
   12438:	0b812703          	lw	a4,184(sp)
   1243c:	05513823          	sd	s5,80(sp)
   12440:	00700c13          	li	s8,7
   12444:	00090d13          	mv	s10,s2
   12448:	00c0006f          	j	12454 <_vfprintf_r+0x954>
   1244c:	ff04041b          	addiw	s0,s0,-16
   12450:	048d5663          	ble	s0,s10,1249c <_vfprintf_r+0x99c>
   12454:	01078793          	addi	a5,a5,16
   12458:	0017071b          	addiw	a4,a4,1
   1245c:	0158b023          	sd	s5,0(a7)
   12460:	0128b423          	sd	s2,8(a7)
   12464:	0cf13023          	sd	a5,192(sp)
   12468:	0ae12c23          	sw	a4,184(sp)
   1246c:	01088893          	addi	a7,a7,16
   12470:	fcec5ee3          	ble	a4,s8,1244c <_vfprintf_r+0x94c>
   12474:	0b010613          	addi	a2,sp,176
   12478:	000a0593          	mv	a1,s4
   1247c:	000b8513          	mv	a0,s7
   12480:	3510a0ef          	jal	1cfd0 <__sprint_r>
   12484:	980516e3          	bnez	a0,11e10 <_vfprintf_r+0x310>
   12488:	ff04041b          	addiw	s0,s0,-16
   1248c:	0c013783          	ld	a5,192(sp)
   12490:	0b812703          	lw	a4,184(sp)
   12494:	000b0893          	mv	a7,s6
   12498:	fa8d4ee3          	blt	s10,s0,12454 <_vfprintf_r+0x954>
   1249c:	05013683          	ld	a3,80(sp)
   124a0:	008787b3          	add	a5,a5,s0
   124a4:	0017071b          	addiw	a4,a4,1
   124a8:	00d8b023          	sd	a3,0(a7)
   124ac:	0088b423          	sd	s0,8(a7)
   124b0:	0cf13023          	sd	a5,192(sp)
   124b4:	0ae12c23          	sw	a4,184(sp)
   124b8:	00700693          	li	a3,7
   124bc:	00e6de63          	ble	a4,a3,124d8 <_vfprintf_r+0x9d8>
   124c0:	0b010613          	addi	a2,sp,176
   124c4:	000a0593          	mv	a1,s4
   124c8:	000b8513          	mv	a0,s7
   124cc:	3050a0ef          	jal	1cfd0 <__sprint_r>
   124d0:	940510e3          	bnez	a0,11e10 <_vfprintf_r+0x310>
   124d4:	0c013783          	ld	a5,192(sp)
   124d8:	01812c83          	lw	s9,24(sp)
   124dc:	00812703          	lw	a4,8(sp)
   124e0:	00ecd463          	ble	a4,s9,124e8 <_vfprintf_r+0x9e8>
   124e4:	00070c93          	mv	s9,a4
   124e8:	01c12703          	lw	a4,28(sp)
   124ec:	0197073b          	addw	a4,a4,s9
   124f0:	00e12e23          	sw	a4,28(sp)
   124f4:	52079863          	bnez	a5,12a24 <_vfprintf_r+0xf24>
   124f8:	0009c783          	lbu	a5,0(s3)
   124fc:	0a012c23          	sw	zero,184(sp)
   12500:	000b0893          	mv	a7,s6
   12504:	f2079263          	bnez	a5,11c28 <_vfprintf_r+0x128>
   12508:	00098413          	mv	s0,s3
   1250c:	f80ff06f          	j	11c8c <_vfprintf_r+0x18c>
   12510:	00060463          	beqz	a2,12518 <_vfprintf_r+0xa18>
   12514:	22c0106f          	j	13740 <_vfprintf_r+0x1c40>
   12518:	010c7793          	andi	a5,s8,16
   1251c:	12078e63          	beqz	a5,12658 <_vfprintf_r+0xb58>
   12520:	02813703          	ld	a4,40(sp)
   12524:	00073783          	ld	a5,0(a4)
   12528:	00870713          	addi	a4,a4,8
   1252c:	02e13423          	sd	a4,40(sp)
   12530:	1407c0e3          	bltz	a5,12e70 <_vfprintf_r+0x1370>
   12534:	08f14603          	lbu	a2,143(sp)
   12538:	bc044ee3          	bltz	s0,12114 <_vfprintf_r+0x614>
   1253c:	f7fc7c13          	andi	s8,s8,-129
   12540:	ae0798e3          	bnez	a5,12030 <_vfprintf_r+0x530>
   12544:	6e041a63          	bnez	s0,12c38 <_vfprintf_r+0x1138>
   12548:	00000413          	li	s0,0
   1254c:	02012023          	sw	zero,32(sp)
   12550:	000b0913          	mv	s2,s6
   12554:	9a9ff06f          	j	11efc <_vfprintf_r+0x3fc>
   12558:	040c6c13          	ori	s8,s8,64
   1255c:	f60ff06f          	j	11cbc <_vfprintf_r+0x1bc>
   12560:	00060463          	beqz	a2,12568 <_vfprintf_r+0xa68>
   12564:	1d40106f          	j	13738 <_vfprintf_r+0x1c38>
   12568:	02813783          	ld	a5,40(sp)
   1256c:	00100913          	li	s2,1
   12570:	0007b787          	fld	fa5,0(a5)
   12574:	00878793          	addi	a5,a5,8
   12578:	01113023          	sd	a7,0(sp)
   1257c:	04f13c27          	fsd	fa5,88(sp)
   12580:	05813c83          	ld	s9,88(sp)
   12584:	02f13423          	sd	a5,40(sp)
   12588:	f20c8553          	fmv.d.x	fa0,s9
   1258c:	0e8070ef          	jal	19674 <__fpclassifyd>
   12590:	00013883          	ld	a7,0(sp)
   12594:	0f251ce3          	bne	a0,s2,12e8c <_vfprintf_r+0x138c>
   12598:	f20007d3          	fmv.d.x	fa5,zero
   1259c:	f20c8753          	fmv.d.x	fa4,s9
   125a0:	a2f717d3          	flt.d	a5,fa4,fa5
   125a4:	600792e3          	bnez	a5,133a8 <_vfprintf_r+0x18a8>
   125a8:	08f14603          	lbu	a2,143(sp)
   125ac:	04700793          	li	a5,71
   125b0:	3da7d8e3          	ble	s10,a5,13180 <_vfprintf_r+0x1680>
   125b4:	00022937          	lui	s2,0x22
   125b8:	c8890913          	addi	s2,s2,-888 # 21c88 <zeroes.4123+0x678>
   125bc:	00300793          	li	a5,3
   125c0:	00f12423          	sw	a5,8(sp)
   125c4:	f7fc7c13          	andi	s8,s8,-129
   125c8:	02f12023          	sw	a5,32(sp)
   125cc:	00000413          	li	s0,0
   125d0:	04012623          	sw	zero,76(sp)
   125d4:	941ff06f          	j	11f14 <_vfprintf_r+0x414>
   125d8:	008c6c13          	ori	s8,s8,8
   125dc:	ee0ff06f          	j	11cbc <_vfprintf_r+0x1bc>
   125e0:	00060463          	beqz	a2,125e8 <_vfprintf_r+0xae8>
   125e4:	1280106f          	j	1370c <_vfprintf_r+0x1c0c>
   125e8:	000227b7          	lui	a5,0x22
   125ec:	cb878793          	addi	a5,a5,-840 # 21cb8 <zeroes.4123+0x6a8>
   125f0:	02f13c23          	sd	a5,56(sp)
   125f4:	010c7793          	andi	a5,s8,16
   125f8:	b40792e3          	bnez	a5,1213c <_vfprintf_r+0x63c>
   125fc:	040c7793          	andi	a5,s8,64
   12600:	02813703          	ld	a4,40(sp)
   12604:	1c0784e3          	beqz	a5,12fcc <_vfprintf_r+0x14cc>
   12608:	00075783          	lhu	a5,0(a4)
   1260c:	00870713          	addi	a4,a4,8
   12610:	02e13423          	sd	a4,40(sp)
   12614:	b39ff06f          	j	1214c <_vfprintf_r+0x64c>
   12618:	00060463          	beqz	a2,12620 <_vfprintf_r+0xb20>
   1261c:	10c0106f          	j	13728 <_vfprintf_r+0x1c28>
   12620:	010c7793          	andi	a5,s8,16
   12624:	1a078ce3          	beqz	a5,12fdc <_vfprintf_r+0x14dc>
   12628:	02813683          	ld	a3,40(sp)
   1262c:	01c12703          	lw	a4,28(sp)
   12630:	0006b783          	ld	a5,0(a3)
   12634:	00868693          	addi	a3,a3,8
   12638:	02d13423          	sd	a3,40(sp)
   1263c:	00e7b023          	sd	a4,0(a5)
   12640:	de0ff06f          	j	11c20 <_vfprintf_r+0x120>
   12644:	00060463          	beqz	a2,1264c <_vfprintf_r+0xb4c>
   12648:	0d40106f          	j	1371c <_vfprintf_r+0x1c1c>
   1264c:	010c6c13          	ori	s8,s8,16
   12650:	010c7793          	andi	a5,s8,16
   12654:	ec0796e3          	bnez	a5,12520 <_vfprintf_r+0xa20>
   12658:	040c7793          	andi	a5,s8,64
   1265c:	02813703          	ld	a4,40(sp)
   12660:	1a0780e3          	beqz	a5,13000 <_vfprintf_r+0x1500>
   12664:	00071783          	lh	a5,0(a4)
   12668:	00870713          	addi	a4,a4,8
   1266c:	02e13423          	sd	a4,40(sp)
   12670:	ec1ff06f          	j	12530 <_vfprintf_r+0xa30>
   12674:	00022737          	lui	a4,0x22
   12678:	cb870713          	addi	a4,a4,-840 # 21cb8 <zeroes.4123+0x6a8>
   1267c:	00000613          	li	a2,0
   12680:	02e13c23          	sd	a4,56(sp)
   12684:	07800d13          	li	s10,120
   12688:	ee0ff06f          	j	11d68 <_vfprintf_r+0x268>
   1268c:	00060463          	beqz	a2,12694 <_vfprintf_r+0xb94>
   12690:	0c00106f          	j	13750 <_vfprintf_r+0x1c50>
   12694:	f60d0263          	beqz	s10,11df8 <_vfprintf_r+0x2f8>
   12698:	00100793          	li	a5,1
   1269c:	00f12423          	sw	a5,8(sp)
   126a0:	0da10423          	sb	s10,200(sp)
   126a4:	080107a3          	sb	zero,143(sp)
   126a8:	00000613          	li	a2,0
   126ac:	02f12023          	sw	a5,32(sp)
   126b0:	00000413          	li	s0,0
   126b4:	04012623          	sw	zero,76(sp)
   126b8:	0c810913          	addi	s2,sp,200
   126bc:	afdff06f          	j	121b8 <_vfprintf_r+0x6b8>
   126c0:	02e13423          	sd	a4,40(sp)
   126c4:	00022737          	lui	a4,0x22
   126c8:	cb870713          	addi	a4,a4,-840 # 21cb8 <zeroes.4123+0x6a8>
   126cc:	00068c13          	mv	s8,a3
   126d0:	02e13c23          	sd	a4,56(sp)
   126d4:	07800d13          	li	s10,120
   126d8:	3a079a63          	bnez	a5,12a8c <_vfprintf_r+0xf8c>
   126dc:	00000613          	li	a2,0
   126e0:	00200793          	li	a5,2
   126e4:	00100713          	li	a4,1
   126e8:	54e78863          	beq	a5,a4,12c38 <_vfprintf_r+0x1138>
   126ec:	00200713          	li	a4,2
   126f0:	e6e78a63          	beq	a5,a4,11d64 <_vfprintf_r+0x264>
   126f4:	00000793          	li	a5,0
   126f8:	fc4ff06f          	j	11ebc <_vfprintf_r+0x3bc>
   126fc:	0c013783          	ld	a5,192(sp)
   12700:	ba1ff06f          	j	122a0 <_vfprintf_r+0x7a0>
   12704:	07012683          	lw	a3,112(sp)
   12708:	00100713          	li	a4,1
   1270c:	00178793          	addi	a5,a5,1
   12710:	6cd75663          	ble	a3,a4,12ddc <_vfprintf_r+0x12dc>
   12714:	0b812703          	lw	a4,184(sp)
   12718:	00100693          	li	a3,1
   1271c:	00d8b423          	sd	a3,8(a7)
   12720:	0017071b          	addiw	a4,a4,1
   12724:	0128b023          	sd	s2,0(a7)
   12728:	0cf13023          	sd	a5,192(sp)
   1272c:	0ae12c23          	sw	a4,184(sp)
   12730:	00700693          	li	a3,7
   12734:	01088893          	addi	a7,a7,16
   12738:	6ce6ca63          	blt	a3,a4,12e0c <_vfprintf_r+0x130c>
   1273c:	06813683          	ld	a3,104(sp)
   12740:	06013603          	ld	a2,96(sp)
   12744:	0017071b          	addiw	a4,a4,1
   12748:	00f687b3          	add	a5,a3,a5
   1274c:	00d8b423          	sd	a3,8(a7)
   12750:	00c8b023          	sd	a2,0(a7)
   12754:	0cf13023          	sd	a5,192(sp)
   12758:	0ae12c23          	sw	a4,184(sp)
   1275c:	00700693          	li	a3,7
   12760:	01088893          	addi	a7,a7,16
   12764:	6ee6c263          	blt	a3,a4,12e48 <_vfprintf_r+0x1348>
   12768:	f20007d3          	fmv.d.x	fa5,zero
   1276c:	05813707          	fld	fa4,88(sp)
   12770:	a2f726d3          	feq.d	a3,fa4,fa5
   12774:	40069c63          	bnez	a3,12b8c <_vfprintf_r+0x108c>
   12778:	07012683          	lw	a3,112(sp)
   1277c:	00190913          	addi	s2,s2,1
   12780:	0017071b          	addiw	a4,a4,1
   12784:	fff6869b          	addiw	a3,a3,-1
   12788:	00d787b3          	add	a5,a5,a3
   1278c:	0128b023          	sd	s2,0(a7)
   12790:	00d8b423          	sd	a3,8(a7)
   12794:	0cf13023          	sd	a5,192(sp)
   12798:	0ae12c23          	sw	a4,184(sp)
   1279c:	00700693          	li	a3,7
   127a0:	26e6c063          	blt	a3,a4,12a00 <_vfprintf_r+0xf00>
   127a4:	01088893          	addi	a7,a7,16
   127a8:	07412683          	lw	a3,116(sp)
   127ac:	0a010613          	addi	a2,sp,160
   127b0:	0017071b          	addiw	a4,a4,1
   127b4:	00f687b3          	add	a5,a3,a5
   127b8:	00c8b023          	sd	a2,0(a7)
   127bc:	00d8b423          	sd	a3,8(a7)
   127c0:	0cf13023          	sd	a5,192(sp)
   127c4:	0ae12c23          	sw	a4,184(sp)
   127c8:	00700693          	li	a3,7
   127cc:	c4e6d2e3          	ble	a4,a3,12410 <_vfprintf_r+0x910>
   127d0:	0b010613          	addi	a2,sp,176
   127d4:	000a0593          	mv	a1,s4
   127d8:	000b8513          	mv	a0,s7
   127dc:	7f40a0ef          	jal	1cfd0 <__sprint_r>
   127e0:	e2051863          	bnez	a0,11e10 <_vfprintf_r+0x310>
   127e4:	0c013783          	ld	a5,192(sp)
   127e8:	000b0893          	mv	a7,s6
   127ec:	c29ff06f          	j	12414 <_vfprintf_r+0x914>
   127f0:	06500713          	li	a4,101
   127f4:	f1a758e3          	ble	s10,a4,12704 <_vfprintf_r+0xc04>
   127f8:	f20007d3          	fmv.d.x	fa5,zero
   127fc:	05813707          	fld	fa4,88(sp)
   12800:	a2f72753          	feq.d	a4,fa4,fa5
   12804:	28070863          	beqz	a4,12a94 <_vfprintf_r+0xf94>
   12808:	0b812703          	lw	a4,184(sp)
   1280c:	000226b7          	lui	a3,0x22
   12810:	cd868693          	addi	a3,a3,-808 # 21cd8 <zeroes.4123+0x6c8>
   12814:	00d8b023          	sd	a3,0(a7)
   12818:	00178793          	addi	a5,a5,1
   1281c:	00100693          	li	a3,1
   12820:	0017071b          	addiw	a4,a4,1
   12824:	00d8b423          	sd	a3,8(a7)
   12828:	0cf13023          	sd	a5,192(sp)
   1282c:	0ae12c23          	sw	a4,184(sp)
   12830:	00700693          	li	a3,7
   12834:	01088893          	addi	a7,a7,16
   12838:	7ee6ca63          	blt	a3,a4,1302c <_vfprintf_r+0x152c>
   1283c:	09812703          	lw	a4,152(sp)
   12840:	07012683          	lw	a3,112(sp)
   12844:	00d74663          	blt	a4,a3,12850 <_vfprintf_r+0xd50>
   12848:	001c7713          	andi	a4,s8,1
   1284c:	bc0704e3          	beqz	a4,12414 <_vfprintf_r+0x914>
   12850:	06013703          	ld	a4,96(sp)
   12854:	06813683          	ld	a3,104(sp)
   12858:	01088893          	addi	a7,a7,16
   1285c:	fee8b823          	sd	a4,-16(a7)
   12860:	0b812703          	lw	a4,184(sp)
   12864:	00d787b3          	add	a5,a5,a3
   12868:	fed8bc23          	sd	a3,-8(a7)
   1286c:	0017071b          	addiw	a4,a4,1
   12870:	0cf13023          	sd	a5,192(sp)
   12874:	0ae12c23          	sw	a4,184(sp)
   12878:	00700693          	li	a3,7
   1287c:	1ce6c8e3          	blt	a3,a4,1324c <_vfprintf_r+0x174c>
   12880:	07012703          	lw	a4,112(sp)
   12884:	fff7041b          	addiw	s0,a4,-1
   12888:	b88056e3          	blez	s0,12414 <_vfprintf_r+0x914>
   1288c:	01000713          	li	a4,16
   12890:	36875c63          	ble	s0,a4,12c08 <_vfprintf_r+0x1108>
   12894:	01000913          	li	s2,16
   12898:	0b812703          	lw	a4,184(sp)
   1289c:	00913823          	sd	s1,16(sp)
   128a0:	00700d13          	li	s10,7
   128a4:	00090693          	mv	a3,s2
   128a8:	00c0006f          	j	128b4 <_vfprintf_r+0xdb4>
   128ac:	ff04041b          	addiw	s0,s0,-16
   128b0:	3686d063          	ble	s0,a3,12c10 <_vfprintf_r+0x1110>
   128b4:	01078793          	addi	a5,a5,16
   128b8:	0017071b          	addiw	a4,a4,1
   128bc:	0098b023          	sd	s1,0(a7)
   128c0:	0128b423          	sd	s2,8(a7)
   128c4:	0cf13023          	sd	a5,192(sp)
   128c8:	0ae12c23          	sw	a4,184(sp)
   128cc:	01088893          	addi	a7,a7,16
   128d0:	fced5ee3          	ble	a4,s10,128ac <_vfprintf_r+0xdac>
   128d4:	0b010613          	addi	a2,sp,176
   128d8:	000a0593          	mv	a1,s4
   128dc:	000b8513          	mv	a0,s7
   128e0:	00d13023          	sd	a3,0(sp)
   128e4:	6ec0a0ef          	jal	1cfd0 <__sprint_r>
   128e8:	d2051463          	bnez	a0,11e10 <_vfprintf_r+0x310>
   128ec:	0c013783          	ld	a5,192(sp)
   128f0:	0b812703          	lw	a4,184(sp)
   128f4:	000b0893          	mv	a7,s6
   128f8:	00013683          	ld	a3,0(sp)
   128fc:	fb1ff06f          	j	128ac <_vfprintf_r+0xdac>
   12900:	01812703          	lw	a4,24(sp)
   12904:	00812683          	lw	a3,8(sp)
   12908:	40d70cbb          	subw	s9,a4,a3
   1290c:	a19056e3          	blez	s9,12318 <_vfprintf_r+0x818>
   12910:	01000713          	li	a4,16
   12914:	2f975ee3          	ble	s9,a4,13410 <_vfprintf_r+0x1910>
   12918:	01000813          	li	a6,16
   1291c:	0b812703          	lw	a4,184(sp)
   12920:	00913823          	sd	s1,16(sp)
   12924:	00700313          	li	t1,7
   12928:	00080d93          	mv	s11,a6
   1292c:	00c0006f          	j	12938 <_vfprintf_r+0xe38>
   12930:	ff0c8c9b          	addiw	s9,s9,-16
   12934:	059dde63          	ble	s9,s11,12990 <_vfprintf_r+0xe90>
   12938:	01078793          	addi	a5,a5,16
   1293c:	0017071b          	addiw	a4,a4,1
   12940:	0098b023          	sd	s1,0(a7)
   12944:	0108b423          	sd	a6,8(a7)
   12948:	0cf13023          	sd	a5,192(sp)
   1294c:	0ae12c23          	sw	a4,184(sp)
   12950:	01088893          	addi	a7,a7,16
   12954:	fce35ee3          	ble	a4,t1,12930 <_vfprintf_r+0xe30>
   12958:	0b010613          	addi	a2,sp,176
   1295c:	000a0593          	mv	a1,s4
   12960:	000b8513          	mv	a0,s7
   12964:	04613023          	sd	t1,64(sp)
   12968:	01013023          	sd	a6,0(sp)
   1296c:	6640a0ef          	jal	1cfd0 <__sprint_r>
   12970:	ca051063          	bnez	a0,11e10 <_vfprintf_r+0x310>
   12974:	ff0c8c9b          	addiw	s9,s9,-16
   12978:	0c013783          	ld	a5,192(sp)
   1297c:	0b812703          	lw	a4,184(sp)
   12980:	000b0893          	mv	a7,s6
   12984:	04013303          	ld	t1,64(sp)
   12988:	00013803          	ld	a6,0(sp)
   1298c:	fb9dc6e3          	blt	s11,s9,12938 <_vfprintf_r+0xe38>
   12990:	01013603          	ld	a2,16(sp)
   12994:	019787b3          	add	a5,a5,s9
   12998:	0017071b          	addiw	a4,a4,1
   1299c:	00c8b023          	sd	a2,0(a7)
   129a0:	0198b423          	sd	s9,8(a7)
   129a4:	0cf13023          	sd	a5,192(sp)
   129a8:	0ae12c23          	sw	a4,184(sp)
   129ac:	00700693          	li	a3,7
   129b0:	01088893          	addi	a7,a7,16
   129b4:	96e6d2e3          	ble	a4,a3,12318 <_vfprintf_r+0x818>
   129b8:	0b010613          	addi	a2,sp,176
   129bc:	000a0593          	mv	a1,s4
   129c0:	000b8513          	mv	a0,s7
   129c4:	60c0a0ef          	jal	1cfd0 <__sprint_r>
   129c8:	c4051463          	bnez	a0,11e10 <_vfprintf_r+0x310>
   129cc:	0c013783          	ld	a5,192(sp)
   129d0:	000b0893          	mv	a7,s6
   129d4:	945ff06f          	j	12318 <_vfprintf_r+0x818>
   129d8:	00913823          	sd	s1,16(sp)
   129dc:	01013683          	ld	a3,16(sp)
   129e0:	008787b3          	add	a5,a5,s0
   129e4:	0017071b          	addiw	a4,a4,1
   129e8:	00d8b023          	sd	a3,0(a7)
   129ec:	0088b423          	sd	s0,8(a7)
   129f0:	0cf13023          	sd	a5,192(sp)
   129f4:	0ae12c23          	sw	a4,184(sp)
   129f8:	00700693          	li	a3,7
   129fc:	dae6d4e3          	ble	a4,a3,127a4 <_vfprintf_r+0xca4>
   12a00:	0b010613          	addi	a2,sp,176
   12a04:	000a0593          	mv	a1,s4
   12a08:	000b8513          	mv	a0,s7
   12a0c:	5c40a0ef          	jal	1cfd0 <__sprint_r>
   12a10:	c0051063          	bnez	a0,11e10 <_vfprintf_r+0x310>
   12a14:	0c013783          	ld	a5,192(sp)
   12a18:	0b812703          	lw	a4,184(sp)
   12a1c:	000b0893          	mv	a7,s6
   12a20:	d89ff06f          	j	127a8 <_vfprintf_r+0xca8>
   12a24:	0b010613          	addi	a2,sp,176
   12a28:	000a0593          	mv	a1,s4
   12a2c:	000b8513          	mv	a0,s7
   12a30:	5a00a0ef          	jal	1cfd0 <__sprint_r>
   12a34:	ac0502e3          	beqz	a0,124f8 <_vfprintf_r+0x9f8>
   12a38:	bd8ff06f          	j	11e10 <_vfprintf_r+0x310>
   12a3c:	0b010613          	addi	a2,sp,176
   12a40:	000a0593          	mv	a1,s4
   12a44:	000b8513          	mv	a0,s7
   12a48:	5880a0ef          	jal	1cfd0 <__sprint_r>
   12a4c:	bc051263          	bnez	a0,11e10 <_vfprintf_r+0x310>
   12a50:	0c013783          	ld	a5,192(sp)
   12a54:	000b0893          	mv	a7,s6
   12a58:	87dff06f          	j	122d4 <_vfprintf_r+0x7d4>
   12a5c:	0b010613          	addi	a2,sp,176
   12a60:	000a0593          	mv	a1,s4
   12a64:	000b8513          	mv	a0,s7
   12a68:	5680a0ef          	jal	1cfd0 <__sprint_r>
   12a6c:	ba051263          	bnez	a0,11e10 <_vfprintf_r+0x310>
   12a70:	0c013783          	ld	a5,192(sp)
   12a74:	000b0893          	mv	a7,s6
   12a78:	895ff06f          	j	1230c <_vfprintf_r+0x80c>
   12a7c:	080107a3          	sb	zero,143(sp)
   12a80:	c4044ce3          	bltz	s0,126d8 <_vfprintf_r+0xbd8>
   12a84:	f7fc7c13          	andi	s8,s8,-129
   12a88:	ac078a63          	beqz	a5,11d5c <_vfprintf_r+0x25c>
   12a8c:	00000613          	li	a2,0
   12a90:	ad8ff06f          	j	11d68 <_vfprintf_r+0x268>
   12a94:	09812403          	lw	s0,152(sp)
   12a98:	5a805c63          	blez	s0,13050 <_vfprintf_r+0x1550>
   12a9c:	04c12703          	lw	a4,76(sp)
   12aa0:	07012683          	lw	a3,112(sp)
   12aa4:	00070413          	mv	s0,a4
   12aa8:	00e6d463          	ble	a4,a3,12ab0 <_vfprintf_r+0xfb0>
   12aac:	00068413          	mv	s0,a3
   12ab0:	02805663          	blez	s0,12adc <_vfprintf_r+0xfdc>
   12ab4:	0b812703          	lw	a4,184(sp)
   12ab8:	008787b3          	add	a5,a5,s0
   12abc:	0128b023          	sd	s2,0(a7)
   12ac0:	0017071b          	addiw	a4,a4,1
   12ac4:	0088b423          	sd	s0,8(a7)
   12ac8:	0cf13023          	sd	a5,192(sp)
   12acc:	0ae12c23          	sw	a4,184(sp)
   12ad0:	00700693          	li	a3,7
   12ad4:	01088893          	addi	a7,a7,16
   12ad8:	6ae6ca63          	blt	a3,a4,1318c <_vfprintf_r+0x168c>
   12adc:	020448e3          	bltz	s0,1330c <_vfprintf_r+0x180c>
   12ae0:	04c12703          	lw	a4,76(sp)
   12ae4:	4087043b          	subw	s0,a4,s0
   12ae8:	1a805c63          	blez	s0,12ca0 <_vfprintf_r+0x11a0>
   12aec:	01000713          	li	a4,16
   12af0:	16875263          	ble	s0,a4,12c54 <_vfprintf_r+0x1154>
   12af4:	01000d13          	li	s10,16
   12af8:	0b812703          	lw	a4,184(sp)
   12afc:	00913823          	sd	s1,16(sp)
   12b00:	00700693          	li	a3,7
   12b04:	000d0813          	mv	a6,s10
   12b08:	00c0006f          	j	12b14 <_vfprintf_r+0x1014>
   12b0c:	ff04041b          	addiw	s0,s0,-16
   12b10:	14885663          	ble	s0,a6,12c5c <_vfprintf_r+0x115c>
   12b14:	01078793          	addi	a5,a5,16
   12b18:	0017071b          	addiw	a4,a4,1
   12b1c:	0098b023          	sd	s1,0(a7)
   12b20:	01a8b423          	sd	s10,8(a7)
   12b24:	0cf13023          	sd	a5,192(sp)
   12b28:	0ae12c23          	sw	a4,184(sp)
   12b2c:	01088893          	addi	a7,a7,16
   12b30:	fce6dee3          	ble	a4,a3,12b0c <_vfprintf_r+0x100c>
   12b34:	0b010613          	addi	a2,sp,176
   12b38:	000a0593          	mv	a1,s4
   12b3c:	000b8513          	mv	a0,s7
   12b40:	03013023          	sd	a6,32(sp)
   12b44:	00d13023          	sd	a3,0(sp)
   12b48:	4880a0ef          	jal	1cfd0 <__sprint_r>
   12b4c:	ac051263          	bnez	a0,11e10 <_vfprintf_r+0x310>
   12b50:	0c013783          	ld	a5,192(sp)
   12b54:	0b812703          	lw	a4,184(sp)
   12b58:	000b0893          	mv	a7,s6
   12b5c:	02013803          	ld	a6,32(sp)
   12b60:	00013683          	ld	a3,0(sp)
   12b64:	fa9ff06f          	j	12b0c <_vfprintf_r+0x100c>
   12b68:	0b010613          	addi	a2,sp,176
   12b6c:	000a0593          	mv	a1,s4
   12b70:	000b8513          	mv	a0,s7
   12b74:	45c0a0ef          	jal	1cfd0 <__sprint_r>
   12b78:	a8051c63          	bnez	a0,11e10 <_vfprintf_r+0x310>
   12b7c:	08f14603          	lbu	a2,143(sp)
   12b80:	0c013783          	ld	a5,192(sp)
   12b84:	000b0893          	mv	a7,s6
   12b88:	f18ff06f          	j	122a0 <_vfprintf_r+0x7a0>
   12b8c:	07012683          	lw	a3,112(sp)
   12b90:	fff6841b          	addiw	s0,a3,-1
   12b94:	c0805ae3          	blez	s0,127a8 <_vfprintf_r+0xca8>
   12b98:	01000693          	li	a3,16
   12b9c:	e286dee3          	ble	s0,a3,129d8 <_vfprintf_r+0xed8>
   12ba0:	01000913          	li	s2,16
   12ba4:	00913823          	sd	s1,16(sp)
   12ba8:	00700d13          	li	s10,7
   12bac:	00090693          	mv	a3,s2
   12bb0:	00c0006f          	j	12bbc <_vfprintf_r+0x10bc>
   12bb4:	ff04041b          	addiw	s0,s0,-16
   12bb8:	e286d2e3          	ble	s0,a3,129dc <_vfprintf_r+0xedc>
   12bbc:	01078793          	addi	a5,a5,16
   12bc0:	0017071b          	addiw	a4,a4,1
   12bc4:	0098b023          	sd	s1,0(a7)
   12bc8:	0128b423          	sd	s2,8(a7)
   12bcc:	0cf13023          	sd	a5,192(sp)
   12bd0:	0ae12c23          	sw	a4,184(sp)
   12bd4:	01088893          	addi	a7,a7,16
   12bd8:	fced5ee3          	ble	a4,s10,12bb4 <_vfprintf_r+0x10b4>
   12bdc:	0b010613          	addi	a2,sp,176
   12be0:	000a0593          	mv	a1,s4
   12be4:	000b8513          	mv	a0,s7
   12be8:	00d13023          	sd	a3,0(sp)
   12bec:	3e40a0ef          	jal	1cfd0 <__sprint_r>
   12bf0:	a2051063          	bnez	a0,11e10 <_vfprintf_r+0x310>
   12bf4:	0c013783          	ld	a5,192(sp)
   12bf8:	0b812703          	lw	a4,184(sp)
   12bfc:	000b0893          	mv	a7,s6
   12c00:	00013683          	ld	a3,0(sp)
   12c04:	fb1ff06f          	j	12bb4 <_vfprintf_r+0x10b4>
   12c08:	0b812703          	lw	a4,184(sp)
   12c0c:	00913823          	sd	s1,16(sp)
   12c10:	01013683          	ld	a3,16(sp)
   12c14:	008787b3          	add	a5,a5,s0
   12c18:	0088b423          	sd	s0,8(a7)
   12c1c:	00d8b023          	sd	a3,0(a7)
   12c20:	0017071b          	addiw	a4,a4,1
   12c24:	0cf13023          	sd	a5,192(sp)
   12c28:	0ae12c23          	sw	a4,184(sp)
   12c2c:	00700693          	li	a3,7
   12c30:	fee6d063          	ble	a4,a3,12410 <_vfprintf_r+0x910>
   12c34:	b9dff06f          	j	127d0 <_vfprintf_r+0xcd0>
   12c38:	00000793          	li	a5,0
   12c3c:	0307879b          	addiw	a5,a5,48
   12c40:	0ef107a3          	sb	a5,239(sp)
   12c44:	07813783          	ld	a5,120(sp)
   12c48:	0ef10913          	addi	s2,sp,239
   12c4c:	02f12023          	sw	a5,32(sp)
   12c50:	aacff06f          	j	11efc <_vfprintf_r+0x3fc>
   12c54:	0b812703          	lw	a4,184(sp)
   12c58:	00913823          	sd	s1,16(sp)
   12c5c:	01013683          	ld	a3,16(sp)
   12c60:	008787b3          	add	a5,a5,s0
   12c64:	0017071b          	addiw	a4,a4,1
   12c68:	00d8b023          	sd	a3,0(a7)
   12c6c:	0088b423          	sd	s0,8(a7)
   12c70:	0cf13023          	sd	a5,192(sp)
   12c74:	0ae12c23          	sw	a4,184(sp)
   12c78:	00700693          	li	a3,7
   12c7c:	01088893          	addi	a7,a7,16
   12c80:	02e6d063          	ble	a4,a3,12ca0 <_vfprintf_r+0x11a0>
   12c84:	0b010613          	addi	a2,sp,176
   12c88:	000a0593          	mv	a1,s4
   12c8c:	000b8513          	mv	a0,s7
   12c90:	3400a0ef          	jal	1cfd0 <__sprint_r>
   12c94:	96051e63          	bnez	a0,11e10 <_vfprintf_r+0x310>
   12c98:	0c013783          	ld	a5,192(sp)
   12c9c:	000b0893          	mv	a7,s6
   12ca0:	04c12d03          	lw	s10,76(sp)
   12ca4:	09812703          	lw	a4,152(sp)
   12ca8:	07012683          	lw	a3,112(sp)
   12cac:	01a90d33          	add	s10,s2,s10
   12cb0:	0cd74a63          	blt	a4,a3,12d84 <_vfprintf_r+0x1284>
   12cb4:	001c7693          	andi	a3,s8,1
   12cb8:	0c069663          	bnez	a3,12d84 <_vfprintf_r+0x1284>
   12cbc:	07012683          	lw	a3,112(sp)
   12cc0:	00d90433          	add	s0,s2,a3
   12cc4:	41a40433          	sub	s0,s0,s10
   12cc8:	40e6873b          	subw	a4,a3,a4
   12ccc:	0004041b          	sext.w	s0,s0
   12cd0:	00875463          	ble	s0,a4,12cd8 <_vfprintf_r+0x11d8>
   12cd4:	00070413          	mv	s0,a4
   12cd8:	02805663          	blez	s0,12d04 <_vfprintf_r+0x1204>
   12cdc:	0b812683          	lw	a3,184(sp)
   12ce0:	008787b3          	add	a5,a5,s0
   12ce4:	01a8b023          	sd	s10,0(a7)
   12ce8:	0016869b          	addiw	a3,a3,1
   12cec:	0088b423          	sd	s0,8(a7)
   12cf0:	0cf13023          	sd	a5,192(sp)
   12cf4:	0ad12c23          	sw	a3,184(sp)
   12cf8:	00700613          	li	a2,7
   12cfc:	01088893          	addi	a7,a7,16
   12d00:	4cd64263          	blt	a2,a3,131c4 <_vfprintf_r+0x16c4>
   12d04:	60044863          	bltz	s0,13314 <_vfprintf_r+0x1814>
   12d08:	4087043b          	subw	s0,a4,s0
   12d0c:	f0805463          	blez	s0,12414 <_vfprintf_r+0x914>
   12d10:	01000713          	li	a4,16
   12d14:	ee875ae3          	ble	s0,a4,12c08 <_vfprintf_r+0x1108>
   12d18:	01000913          	li	s2,16
   12d1c:	0b812703          	lw	a4,184(sp)
   12d20:	00913823          	sd	s1,16(sp)
   12d24:	00700d13          	li	s10,7
   12d28:	00090693          	mv	a3,s2
   12d2c:	00c0006f          	j	12d38 <_vfprintf_r+0x1238>
   12d30:	ff04041b          	addiw	s0,s0,-16
   12d34:	ec86dee3          	ble	s0,a3,12c10 <_vfprintf_r+0x1110>
   12d38:	01078793          	addi	a5,a5,16
   12d3c:	0017071b          	addiw	a4,a4,1
   12d40:	0098b023          	sd	s1,0(a7)
   12d44:	0128b423          	sd	s2,8(a7)
   12d48:	0cf13023          	sd	a5,192(sp)
   12d4c:	0ae12c23          	sw	a4,184(sp)
   12d50:	01088893          	addi	a7,a7,16
   12d54:	fced5ee3          	ble	a4,s10,12d30 <_vfprintf_r+0x1230>
   12d58:	0b010613          	addi	a2,sp,176
   12d5c:	000a0593          	mv	a1,s4
   12d60:	000b8513          	mv	a0,s7
   12d64:	00d13023          	sd	a3,0(sp)
   12d68:	2680a0ef          	jal	1cfd0 <__sprint_r>
   12d6c:	8a051263          	bnez	a0,11e10 <_vfprintf_r+0x310>
   12d70:	0c013783          	ld	a5,192(sp)
   12d74:	0b812703          	lw	a4,184(sp)
   12d78:	000b0893          	mv	a7,s6
   12d7c:	00013683          	ld	a3,0(sp)
   12d80:	fb1ff06f          	j	12d30 <_vfprintf_r+0x1230>
   12d84:	06013683          	ld	a3,96(sp)
   12d88:	06813603          	ld	a2,104(sp)
   12d8c:	01088893          	addi	a7,a7,16
   12d90:	fed8b823          	sd	a3,-16(a7)
   12d94:	0b812683          	lw	a3,184(sp)
   12d98:	00c787b3          	add	a5,a5,a2
   12d9c:	fec8bc23          	sd	a2,-8(a7)
   12da0:	0016869b          	addiw	a3,a3,1
   12da4:	0cf13023          	sd	a5,192(sp)
   12da8:	0ad12c23          	sw	a3,184(sp)
   12dac:	00700613          	li	a2,7
   12db0:	f0d656e3          	ble	a3,a2,12cbc <_vfprintf_r+0x11bc>
   12db4:	0b010613          	addi	a2,sp,176
   12db8:	000a0593          	mv	a1,s4
   12dbc:	000b8513          	mv	a0,s7
   12dc0:	2100a0ef          	jal	1cfd0 <__sprint_r>
   12dc4:	00050463          	beqz	a0,12dcc <_vfprintf_r+0x12cc>
   12dc8:	848ff06f          	j	11e10 <_vfprintf_r+0x310>
   12dcc:	09812703          	lw	a4,152(sp)
   12dd0:	0c013783          	ld	a5,192(sp)
   12dd4:	000b0893          	mv	a7,s6
   12dd8:	ee5ff06f          	j	12cbc <_vfprintf_r+0x11bc>
   12ddc:	00ec7733          	and	a4,s8,a4
   12de0:	92071ae3          	bnez	a4,12714 <_vfprintf_r+0xc14>
   12de4:	0b812703          	lw	a4,184(sp)
   12de8:	0128b023          	sd	s2,0(a7)
   12dec:	00100693          	li	a3,1
   12df0:	0017071b          	addiw	a4,a4,1
   12df4:	99dff06f          	j	12790 <_vfprintf_r+0xc90>
   12df8:	02813783          	ld	a5,40(sp)
   12dfc:	00878713          	addi	a4,a5,8
   12e00:	0007e783          	lwu	a5,0(a5)
   12e04:	a0045e63          	bgez	s0,12020 <_vfprintf_r+0x520>
   12e08:	b04ff06f          	j	1210c <_vfprintf_r+0x60c>
   12e0c:	0b010613          	addi	a2,sp,176
   12e10:	000a0593          	mv	a1,s4
   12e14:	000b8513          	mv	a0,s7
   12e18:	1b80a0ef          	jal	1cfd0 <__sprint_r>
   12e1c:	00050463          	beqz	a0,12e24 <_vfprintf_r+0x1324>
   12e20:	ff1fe06f          	j	11e10 <_vfprintf_r+0x310>
   12e24:	0c013783          	ld	a5,192(sp)
   12e28:	0b812703          	lw	a4,184(sp)
   12e2c:	000b0893          	mv	a7,s6
   12e30:	90dff06f          	j	1273c <_vfprintf_r+0xc3c>
   12e34:	02813783          	ld	a5,40(sp)
   12e38:	00878713          	addi	a4,a5,8
   12e3c:	0007e783          	lwu	a5,0(a5)
   12e40:	86045063          	bgez	s0,11ea0 <_vfprintf_r+0x3a0>
   12e44:	a84ff06f          	j	120c8 <_vfprintf_r+0x5c8>
   12e48:	0b010613          	addi	a2,sp,176
   12e4c:	000a0593          	mv	a1,s4
   12e50:	000b8513          	mv	a0,s7
   12e54:	17c0a0ef          	jal	1cfd0 <__sprint_r>
   12e58:	00050463          	beqz	a0,12e60 <_vfprintf_r+0x1360>
   12e5c:	fb5fe06f          	j	11e10 <_vfprintf_r+0x310>
   12e60:	0c013783          	ld	a5,192(sp)
   12e64:	0b812703          	lw	a4,184(sp)
   12e68:	000b0893          	mv	a7,s6
   12e6c:	8fdff06f          	j	12768 <_vfprintf_r+0xc68>
   12e70:	02d00713          	li	a4,45
   12e74:	08e107a3          	sb	a4,143(sp)
   12e78:	40f007b3          	neg	a5,a5
   12e7c:	4a044063          	bltz	s0,1331c <_vfprintf_r+0x181c>
   12e80:	f7fc7c13          	andi	s8,s8,-129
   12e84:	02d00613          	li	a2,45
   12e88:	9a8ff06f          	j	12030 <_vfprintf_r+0x530>
   12e8c:	05813507          	fld	fa0,88(sp)
   12e90:	01113023          	sd	a7,0(sp)
   12e94:	7e0060ef          	jal	19674 <__fpclassifyd>
   12e98:	00013883          	ld	a7,0(sp)
   12e9c:	2a050463          	beqz	a0,13144 <_vfprintf_r+0x1644>
   12ea0:	fff00793          	li	a5,-1
   12ea4:	fdfd7d93          	andi	s11,s10,-33
   12ea8:	62f40c63          	beq	s0,a5,134e0 <_vfprintf_r+0x19e0>
   12eac:	04700793          	li	a5,71
   12eb0:	62fd8263          	beq	s11,a5,134d4 <_vfprintf_r+0x19d4>
   12eb4:	05813703          	ld	a4,88(sp)
   12eb8:	100c6693          	ori	a3,s8,256
   12ebc:	00d12023          	sw	a3,0(sp)
   12ec0:	42075793          	srai	a5,a4,0x20
   12ec4:	f2070453          	fmv.d.x	fs0,a4
   12ec8:	00000c93          	li	s9,0
   12ecc:	6607c663          	bltz	a5,13538 <_vfprintf_r+0x1a38>
   12ed0:	06600793          	li	a5,102
   12ed4:	60fd0a63          	beq	s10,a5,134e8 <_vfprintf_r+0x19e8>
   12ed8:	04600793          	li	a5,70
   12edc:	72fd0863          	beq	s10,a5,1360c <_vfprintf_r+0x1b0c>
   12ee0:	fbbd859b          	addiw	a1,s11,-69
   12ee4:	0015b593          	seqz	a1,a1
   12ee8:	228405d3          	fmv.d	fa1,fs0
   12eec:	00b405bb          	addw	a1,s0,a1
   12ef0:	09c10793          	addi	a5,sp,156
   12ef4:	00058693          	mv	a3,a1
   12ef8:	0a810813          	addi	a6,sp,168
   12efc:	09810713          	addi	a4,sp,152
   12f00:	00200613          	li	a2,2
   12f04:	000b8513          	mv	a0,s7
   12f08:	01113823          	sd	a7,16(sp)
   12f0c:	00b13423          	sd	a1,8(sp)
   12f10:	26c020ef          	jal	1517c <_dtoa_r>
   12f14:	06700793          	li	a5,103
   12f18:	00050913          	mv	s2,a0
   12f1c:	00813583          	ld	a1,8(sp)
   12f20:	01013883          	ld	a7,16(sp)
   12f24:	46fd0863          	beq	s10,a5,13394 <_vfprintf_r+0x1894>
   12f28:	04700793          	li	a5,71
   12f2c:	00b50733          	add	a4,a0,a1
   12f30:	48fd0a63          	beq	s10,a5,133c4 <_vfprintf_r+0x18c4>
   12f34:	f20007d3          	fmv.d.x	fa5,zero
   12f38:	00070793          	mv	a5,a4
   12f3c:	a2f426d3          	feq.d	a3,fs0,fa5
   12f40:	02069263          	bnez	a3,12f64 <_vfprintf_r+0x1464>
   12f44:	0a813783          	ld	a5,168(sp)
   12f48:	00e7fe63          	bleu	a4,a5,12f64 <_vfprintf_r+0x1464>
   12f4c:	03000613          	li	a2,48
   12f50:	00178693          	addi	a3,a5,1
   12f54:	0ad13423          	sd	a3,168(sp)
   12f58:	00c78023          	sb	a2,0(a5)
   12f5c:	0a813783          	ld	a5,168(sp)
   12f60:	fee7e8e3          	bltu	a5,a4,12f50 <_vfprintf_r+0x1450>
   12f64:	412787b3          	sub	a5,a5,s2
   12f68:	06f12823          	sw	a5,112(sp)
   12f6c:	04700793          	li	a5,71
   12f70:	46fd8663          	beq	s11,a5,133dc <_vfprintf_r+0x18dc>
   12f74:	06500793          	li	a5,101
   12f78:	7ba7dc63          	ble	s10,a5,13730 <_vfprintf_r+0x1c30>
   12f7c:	06600793          	li	a5,102
   12f80:	60fd0263          	beq	s10,a5,13584 <_vfprintf_r+0x1a84>
   12f84:	09812783          	lw	a5,152(sp)
   12f88:	04f12623          	sw	a5,76(sp)
   12f8c:	04c12703          	lw	a4,76(sp)
   12f90:	07012683          	lw	a3,112(sp)
   12f94:	00070793          	mv	a5,a4
   12f98:	5ad74663          	blt	a4,a3,13544 <_vfprintf_r+0x1a44>
   12f9c:	001c7c13          	andi	s8,s8,1
   12fa0:	5c0c1463          	bnez	s8,13568 <_vfprintf_r+0x1a68>
   12fa4:	76074863          	bltz	a4,13714 <_vfprintf_r+0x1c14>
   12fa8:	04c12703          	lw	a4,76(sp)
   12fac:	06700d13          	li	s10,103
   12fb0:	02e12023          	sw	a4,32(sp)
   12fb4:	440c9063          	bnez	s9,133f4 <_vfprintf_r+0x18f4>
   12fb8:	08f14603          	lbu	a2,143(sp)
   12fbc:	00f12423          	sw	a5,8(sp)
   12fc0:	00012c03          	lw	s8,0(sp)
   12fc4:	00000413          	li	s0,0
   12fc8:	f4dfe06f          	j	11f14 <_vfprintf_r+0x414>
   12fcc:	00076783          	lwu	a5,0(a4)
   12fd0:	00870713          	addi	a4,a4,8
   12fd4:	02e13423          	sd	a4,40(sp)
   12fd8:	974ff06f          	j	1214c <_vfprintf_r+0x64c>
   12fdc:	02813703          	ld	a4,40(sp)
   12fe0:	040c7c13          	andi	s8,s8,64
   12fe4:	00073783          	ld	a5,0(a4)
   12fe8:	00870713          	addi	a4,a4,8
   12fec:	02e13423          	sd	a4,40(sp)
   12ff0:	180c0263          	beqz	s8,13174 <_vfprintf_r+0x1674>
   12ff4:	01c15703          	lhu	a4,28(sp)
   12ff8:	00e79023          	sh	a4,0(a5)
   12ffc:	c25fe06f          	j	11c20 <_vfprintf_r+0x120>
   13000:	00072783          	lw	a5,0(a4)
   13004:	00870713          	addi	a4,a4,8
   13008:	02e13423          	sd	a4,40(sp)
   1300c:	d24ff06f          	j	12530 <_vfprintf_r+0xa30>
   13010:	080107a3          	sb	zero,143(sp)
   13014:	ec044463          	bltz	s0,126dc <_vfprintf_r+0xbdc>
   13018:	f7fc7c13          	andi	s8,s8,-129
   1301c:	d41fe06f          	j	11d5c <_vfprintf_r+0x25c>
   13020:	0b812703          	lw	a4,184(sp)
   13024:	00913823          	sd	s1,16(sp)
   13028:	b74ff06f          	j	1239c <_vfprintf_r+0x89c>
   1302c:	0b010613          	addi	a2,sp,176
   13030:	000a0593          	mv	a1,s4
   13034:	000b8513          	mv	a0,s7
   13038:	799090ef          	jal	1cfd0 <__sprint_r>
   1303c:	00050463          	beqz	a0,13044 <_vfprintf_r+0x1544>
   13040:	dd1fe06f          	j	11e10 <_vfprintf_r+0x310>
   13044:	0c013783          	ld	a5,192(sp)
   13048:	000b0893          	mv	a7,s6
   1304c:	ff0ff06f          	j	1283c <_vfprintf_r+0xd3c>
   13050:	0b812703          	lw	a4,184(sp)
   13054:	000226b7          	lui	a3,0x22
   13058:	cd868693          	addi	a3,a3,-808 # 21cd8 <zeroes.4123+0x6c8>
   1305c:	00d8b023          	sd	a3,0(a7)
   13060:	00178793          	addi	a5,a5,1
   13064:	00100693          	li	a3,1
   13068:	0017071b          	addiw	a4,a4,1
   1306c:	00d8b423          	sd	a3,8(a7)
   13070:	0cf13023          	sd	a5,192(sp)
   13074:	0ae12c23          	sw	a4,184(sp)
   13078:	00700693          	li	a3,7
   1307c:	01088893          	addi	a7,a7,16
   13080:	16e6ca63          	blt	a3,a4,131f4 <_vfprintf_r+0x16f4>
   13084:	12040663          	beqz	s0,131b0 <_vfprintf_r+0x16b0>
   13088:	06013703          	ld	a4,96(sp)
   1308c:	06813683          	ld	a3,104(sp)
   13090:	01088893          	addi	a7,a7,16
   13094:	fee8b823          	sd	a4,-16(a7)
   13098:	0b812703          	lw	a4,184(sp)
   1309c:	00f687b3          	add	a5,a3,a5
   130a0:	fed8bc23          	sd	a3,-8(a7)
   130a4:	0017071b          	addiw	a4,a4,1
   130a8:	0cf13023          	sd	a5,192(sp)
   130ac:	0ae12c23          	sw	a4,184(sp)
   130b0:	00700693          	li	a3,7
   130b4:	3ee6ca63          	blt	a3,a4,134a8 <_vfprintf_r+0x19a8>
   130b8:	4080043b          	negw	s0,s0
   130bc:	20805263          	blez	s0,132c0 <_vfprintf_r+0x17c0>
   130c0:	01000693          	li	a3,16
   130c4:	1a86d663          	ble	s0,a3,13270 <_vfprintf_r+0x1770>
   130c8:	01000d13          	li	s10,16
   130cc:	00913823          	sd	s1,16(sp)
   130d0:	00700813          	li	a6,7
   130d4:	000d0693          	mv	a3,s10
   130d8:	00c0006f          	j	130e4 <_vfprintf_r+0x15e4>
   130dc:	ff04041b          	addiw	s0,s0,-16
   130e0:	1886da63          	ble	s0,a3,13274 <_vfprintf_r+0x1774>
   130e4:	01078793          	addi	a5,a5,16
   130e8:	0017071b          	addiw	a4,a4,1
   130ec:	0098b023          	sd	s1,0(a7)
   130f0:	01a8b423          	sd	s10,8(a7)
   130f4:	0cf13023          	sd	a5,192(sp)
   130f8:	0ae12c23          	sw	a4,184(sp)
   130fc:	01088893          	addi	a7,a7,16
   13100:	fce85ee3          	ble	a4,a6,130dc <_vfprintf_r+0x15dc>
   13104:	0b010613          	addi	a2,sp,176
   13108:	000a0593          	mv	a1,s4
   1310c:	000b8513          	mv	a0,s7
   13110:	02d13023          	sd	a3,32(sp)
   13114:	01013023          	sd	a6,0(sp)
   13118:	6b9090ef          	jal	1cfd0 <__sprint_r>
   1311c:	00050463          	beqz	a0,13124 <_vfprintf_r+0x1624>
   13120:	cf1fe06f          	j	11e10 <_vfprintf_r+0x310>
   13124:	0c013783          	ld	a5,192(sp)
   13128:	0b812703          	lw	a4,184(sp)
   1312c:	000b0893          	mv	a7,s6
   13130:	02013683          	ld	a3,32(sp)
   13134:	00013803          	ld	a6,0(sp)
   13138:	fa5ff06f          	j	130dc <_vfprintf_r+0x15dc>
   1313c:	fff00513          	li	a0,-1
   13140:	ce5fe06f          	j	11e24 <_vfprintf_r+0x324>
   13144:	04700793          	li	a5,71
   13148:	27a7c863          	blt	a5,s10,133b8 <_vfprintf_r+0x18b8>
   1314c:	00022937          	lui	s2,0x22
   13150:	c9090913          	addi	s2,s2,-880 # 21c90 <zeroes.4123+0x680>
   13154:	00300793          	li	a5,3
   13158:	00f12423          	sw	a5,8(sp)
   1315c:	f7fc7c13          	andi	s8,s8,-129
   13160:	08f14603          	lbu	a2,143(sp)
   13164:	02f12023          	sw	a5,32(sp)
   13168:	00000413          	li	s0,0
   1316c:	04012623          	sw	zero,76(sp)
   13170:	da5fe06f          	j	11f14 <_vfprintf_r+0x414>
   13174:	01c12703          	lw	a4,28(sp)
   13178:	00e7a023          	sw	a4,0(a5)
   1317c:	aa5fe06f          	j	11c20 <_vfprintf_r+0x120>
   13180:	00022937          	lui	s2,0x22
   13184:	c8090913          	addi	s2,s2,-896 # 21c80 <zeroes.4123+0x670>
   13188:	c34ff06f          	j	125bc <_vfprintf_r+0xabc>
   1318c:	0b010613          	addi	a2,sp,176
   13190:	000a0593          	mv	a1,s4
   13194:	000b8513          	mv	a0,s7
   13198:	639090ef          	jal	1cfd0 <__sprint_r>
   1319c:	00050463          	beqz	a0,131a4 <_vfprintf_r+0x16a4>
   131a0:	c71fe06f          	j	11e10 <_vfprintf_r+0x310>
   131a4:	0c013783          	ld	a5,192(sp)
   131a8:	000b0893          	mv	a7,s6
   131ac:	931ff06f          	j	12adc <_vfprintf_r+0xfdc>
   131b0:	07012703          	lw	a4,112(sp)
   131b4:	ec071ae3          	bnez	a4,13088 <_vfprintf_r+0x1588>
   131b8:	001c7713          	andi	a4,s8,1
   131bc:	a4070c63          	beqz	a4,12414 <_vfprintf_r+0x914>
   131c0:	ec9ff06f          	j	13088 <_vfprintf_r+0x1588>
   131c4:	0b010613          	addi	a2,sp,176
   131c8:	000a0593          	mv	a1,s4
   131cc:	000b8513          	mv	a0,s7
   131d0:	601090ef          	jal	1cfd0 <__sprint_r>
   131d4:	00050463          	beqz	a0,131dc <_vfprintf_r+0x16dc>
   131d8:	c39fe06f          	j	11e10 <_vfprintf_r+0x310>
   131dc:	09812703          	lw	a4,152(sp)
   131e0:	07012683          	lw	a3,112(sp)
   131e4:	0c013783          	ld	a5,192(sp)
   131e8:	000b0893          	mv	a7,s6
   131ec:	40e6873b          	subw	a4,a3,a4
   131f0:	b15ff06f          	j	12d04 <_vfprintf_r+0x1204>
   131f4:	0b010613          	addi	a2,sp,176
   131f8:	000a0593          	mv	a1,s4
   131fc:	000b8513          	mv	a0,s7
   13200:	5d1090ef          	jal	1cfd0 <__sprint_r>
   13204:	00050463          	beqz	a0,1320c <_vfprintf_r+0x170c>
   13208:	c09fe06f          	j	11e10 <_vfprintf_r+0x310>
   1320c:	09812403          	lw	s0,152(sp)
   13210:	0c013783          	ld	a5,192(sp)
   13214:	000b0893          	mv	a7,s6
   13218:	e60418e3          	bnez	s0,13088 <_vfprintf_r+0x1588>
   1321c:	f95ff06f          	j	131b0 <_vfprintf_r+0x16b0>
   13220:	001c7793          	andi	a5,s8,1
   13224:	00078e63          	beqz	a5,13240 <_vfprintf_r+0x1740>
   13228:	03000793          	li	a5,48
   1322c:	0ef107a3          	sb	a5,239(sp)
   13230:	07813783          	ld	a5,120(sp)
   13234:	0ef10913          	addi	s2,sp,239
   13238:	02f12023          	sw	a5,32(sp)
   1323c:	cc1fe06f          	j	11efc <_vfprintf_r+0x3fc>
   13240:	02012023          	sw	zero,32(sp)
   13244:	000b0913          	mv	s2,s6
   13248:	cb5fe06f          	j	11efc <_vfprintf_r+0x3fc>
   1324c:	0b010613          	addi	a2,sp,176
   13250:	000a0593          	mv	a1,s4
   13254:	000b8513          	mv	a0,s7
   13258:	579090ef          	jal	1cfd0 <__sprint_r>
   1325c:	00050463          	beqz	a0,13264 <_vfprintf_r+0x1764>
   13260:	bb1fe06f          	j	11e10 <_vfprintf_r+0x310>
   13264:	0c013783          	ld	a5,192(sp)
   13268:	000b0893          	mv	a7,s6
   1326c:	e14ff06f          	j	12880 <_vfprintf_r+0xd80>
   13270:	00913823          	sd	s1,16(sp)
   13274:	01013683          	ld	a3,16(sp)
   13278:	008787b3          	add	a5,a5,s0
   1327c:	0017071b          	addiw	a4,a4,1
   13280:	00d8b023          	sd	a3,0(a7)
   13284:	0088b423          	sd	s0,8(a7)
   13288:	0cf13023          	sd	a5,192(sp)
   1328c:	0ae12c23          	sw	a4,184(sp)
   13290:	00700693          	li	a3,7
   13294:	01088893          	addi	a7,a7,16
   13298:	02e6d463          	ble	a4,a3,132c0 <_vfprintf_r+0x17c0>
   1329c:	0b010613          	addi	a2,sp,176
   132a0:	000a0593          	mv	a1,s4
   132a4:	000b8513          	mv	a0,s7
   132a8:	529090ef          	jal	1cfd0 <__sprint_r>
   132ac:	00050463          	beqz	a0,132b4 <_vfprintf_r+0x17b4>
   132b0:	b61fe06f          	j	11e10 <_vfprintf_r+0x310>
   132b4:	0c013783          	ld	a5,192(sp)
   132b8:	0b812703          	lw	a4,184(sp)
   132bc:	000b0893          	mv	a7,s6
   132c0:	07012683          	lw	a3,112(sp)
   132c4:	0017071b          	addiw	a4,a4,1
   132c8:	0128b023          	sd	s2,0(a7)
   132cc:	00f687b3          	add	a5,a3,a5
   132d0:	cecff06f          	j	127bc <_vfprintf_r+0xcbc>
   132d4:	00090513          	mv	a0,s2
   132d8:	f58fe0ef          	jal	11a30 <strlen>
   132dc:	0005079b          	sext.w	a5,a0
   132e0:	02f12023          	sw	a5,32(sp)
   132e4:	00078d93          	mv	s11,a5
   132e8:	00013883          	ld	a7,0(sp)
   132ec:	0007c463          	bltz	a5,132f4 <_vfprintf_r+0x17f4>
   132f0:	cf5fe06f          	j	11fe4 <_vfprintf_r+0x4e4>
   132f4:	00000d93          	li	s11,0
   132f8:	cedfe06f          	j	11fe4 <_vfprintf_r+0x4e4>
   132fc:	0c013783          	ld	a5,192(sp)
   13300:	0b812703          	lw	a4,184(sp)
   13304:	05513823          	sd	s5,80(sp)
   13308:	f6dfe06f          	j	12274 <_vfprintf_r+0x774>
   1330c:	00000413          	li	s0,0
   13310:	fd0ff06f          	j	12ae0 <_vfprintf_r+0xfe0>
   13314:	00000413          	li	s0,0
   13318:	9f1ff06f          	j	12d08 <_vfprintf_r+0x1208>
   1331c:	02d00613          	li	a2,45
   13320:	00100713          	li	a4,1
   13324:	00100693          	li	a3,1
   13328:	00d71463          	bne	a4,a3,13330 <_vfprintf_r+0x1830>
   1332c:	d05fe06f          	j	12030 <_vfprintf_r+0x530>
   13330:	00200693          	li	a3,2
   13334:	00d71463          	bne	a4,a3,1333c <_vfprintf_r+0x183c>
   13338:	a31fe06f          	j	11d68 <_vfprintf_r+0x268>
   1333c:	b81fe06f          	j	11ebc <_vfprintf_r+0x3bc>
   13340:	00600713          	li	a4,6
   13344:	00877463          	bleu	s0,a4,1334c <_vfprintf_r+0x184c>
   13348:	00070413          	mv	s0,a4
   1334c:	02812023          	sw	s0,32(sp)
   13350:	00040d93          	mv	s11,s0
   13354:	32044a63          	bltz	s0,13688 <_vfprintf_r+0x1b88>
   13358:	00022937          	lui	s2,0x22
   1335c:	01b12423          	sw	s11,8(sp)
   13360:	03913423          	sd	s9,40(sp)
   13364:	00000613          	li	a2,0
   13368:	00000413          	li	s0,0
   1336c:	04012623          	sw	zero,76(sp)
   13370:	cd090913          	addi	s2,s2,-816 # 21cd0 <zeroes.4123+0x6c0>
   13374:	e45fe06f          	j	121b8 <_vfprintf_r+0x6b8>
   13378:	0b812703          	lw	a4,184(sp)
   1337c:	05513823          	sd	s5,80(sp)
   13380:	91cff06f          	j	1249c <_vfprintf_r+0x99c>
   13384:	00070c13          	mv	s8,a4
   13388:	00000613          	li	a2,0
   1338c:	00200713          	li	a4,2
   13390:	f95ff06f          	j	13324 <_vfprintf_r+0x1824>
   13394:	001c7793          	andi	a5,s8,1
   13398:	00b50733          	add	a4,a0,a1
   1339c:	b8079ce3          	bnez	a5,12f34 <_vfprintf_r+0x1434>
   133a0:	0a813783          	ld	a5,168(sp)
   133a4:	bc1ff06f          	j	12f64 <_vfprintf_r+0x1464>
   133a8:	02d00793          	li	a5,45
   133ac:	08f107a3          	sb	a5,143(sp)
   133b0:	02d00613          	li	a2,45
   133b4:	9f8ff06f          	j	125ac <_vfprintf_r+0xaac>
   133b8:	00022937          	lui	s2,0x22
   133bc:	c9890913          	addi	s2,s2,-872 # 21c98 <zeroes.4123+0x688>
   133c0:	d95ff06f          	j	13154 <_vfprintf_r+0x1654>
   133c4:	001c7793          	andi	a5,s8,1
   133c8:	26079a63          	bnez	a5,1363c <_vfprintf_r+0x1b3c>
   133cc:	0a813783          	ld	a5,168(sp)
   133d0:	412787b3          	sub	a5,a5,s2
   133d4:	06f12823          	sw	a5,112(sp)
   133d8:	35ad9c63          	bne	s11,s10,13730 <_vfprintf_r+0x1c30>
   133dc:	09812783          	lw	a5,152(sp)
   133e0:	ffd00713          	li	a4,-3
   133e4:	02e7cc63          	blt	a5,a4,1341c <_vfprintf_r+0x191c>
   133e8:	02f44a63          	blt	s0,a5,1341c <_vfprintf_r+0x191c>
   133ec:	04f12623          	sw	a5,76(sp)
   133f0:	b9dff06f          	j	12f8c <_vfprintf_r+0x148c>
   133f4:	02d00713          	li	a4,45
   133f8:	08e107a3          	sb	a4,143(sp)
   133fc:	00f12423          	sw	a5,8(sp)
   13400:	00012c03          	lw	s8,0(sp)
   13404:	02d00613          	li	a2,45
   13408:	00000413          	li	s0,0
   1340c:	b0dfe06f          	j	11f18 <_vfprintf_r+0x418>
   13410:	0b812703          	lw	a4,184(sp)
   13414:	00913823          	sd	s1,16(sp)
   13418:	d78ff06f          	j	12990 <_vfprintf_r+0xe90>
   1341c:	ffed0d1b          	addiw	s10,s10,-2
   13420:	fff7879b          	addiw	a5,a5,-1
   13424:	08f12c23          	sw	a5,152(sp)
   13428:	0ba10023          	sb	s10,160(sp)
   1342c:	2c07c863          	bltz	a5,136fc <_vfprintf_r+0x1bfc>
   13430:	02b00713          	li	a4,43
   13434:	0ae100a3          	sb	a4,161(sp)
   13438:	00900613          	li	a2,9
   1343c:	16f64463          	blt	a2,a5,135a4 <_vfprintf_r+0x1aa4>
   13440:	0307879b          	addiw	a5,a5,48
   13444:	03000713          	li	a4,48
   13448:	0af101a3          	sb	a5,163(sp)
   1344c:	0ae10123          	sb	a4,162(sp)
   13450:	0a410793          	addi	a5,sp,164
   13454:	0a010713          	addi	a4,sp,160
   13458:	40e787bb          	subw	a5,a5,a4
   1345c:	07012703          	lw	a4,112(sp)
   13460:	06f12a23          	sw	a5,116(sp)
   13464:	00e787bb          	addw	a5,a5,a4
   13468:	02f12023          	sw	a5,32(sp)
   1346c:	00100793          	li	a5,1
   13470:	26e7d263          	ble	a4,a5,136d4 <_vfprintf_r+0x1bd4>
   13474:	02012783          	lw	a5,32(sp)
   13478:	0017879b          	addiw	a5,a5,1
   1347c:	02f12023          	sw	a5,32(sp)
   13480:	2607c463          	bltz	a5,136e8 <_vfprintf_r+0x1be8>
   13484:	04012623          	sw	zero,76(sp)
   13488:	b2dff06f          	j	12fb4 <_vfprintf_r+0x14b4>
   1348c:	00812423          	sw	s0,8(sp)
   13490:	02812023          	sw	s0,32(sp)
   13494:	08f14603          	lbu	a2,143(sp)
   13498:	03913423          	sd	s9,40(sp)
   1349c:	00000413          	li	s0,0
   134a0:	04012623          	sw	zero,76(sp)
   134a4:	a71fe06f          	j	11f14 <_vfprintf_r+0x414>
   134a8:	0b010613          	addi	a2,sp,176
   134ac:	000a0593          	mv	a1,s4
   134b0:	000b8513          	mv	a0,s7
   134b4:	31d090ef          	jal	1cfd0 <__sprint_r>
   134b8:	00050463          	beqz	a0,134c0 <_vfprintf_r+0x19c0>
   134bc:	955fe06f          	j	11e10 <_vfprintf_r+0x310>
   134c0:	09812403          	lw	s0,152(sp)
   134c4:	0c013783          	ld	a5,192(sp)
   134c8:	0b812703          	lw	a4,184(sp)
   134cc:	000b0893          	mv	a7,s6
   134d0:	be9ff06f          	j	130b8 <_vfprintf_r+0x15b8>
   134d4:	9e0410e3          	bnez	s0,12eb4 <_vfprintf_r+0x13b4>
   134d8:	00090413          	mv	s0,s2
   134dc:	9d9ff06f          	j	12eb4 <_vfprintf_r+0x13b4>
   134e0:	00600413          	li	s0,6
   134e4:	9d1ff06f          	j	12eb4 <_vfprintf_r+0x13b4>
   134e8:	228405d3          	fmv.d	fa1,fs0
   134ec:	09810713          	addi	a4,sp,152
   134f0:	0a810813          	addi	a6,sp,168
   134f4:	09c10793          	addi	a5,sp,156
   134f8:	00040693          	mv	a3,s0
   134fc:	00300613          	li	a2,3
   13500:	000b8513          	mv	a0,s7
   13504:	01113423          	sd	a7,8(sp)
   13508:	475010ef          	jal	1517c <_dtoa_r>
   1350c:	00813883          	ld	a7,8(sp)
   13510:	00040713          	mv	a4,s0
   13514:	00050913          	mv	s2,a0
   13518:	00e50733          	add	a4,a0,a4
   1351c:	00040593          	mv	a1,s0
   13520:	00094683          	lbu	a3,0(s2)
   13524:	03000793          	li	a5,48
   13528:	14f68063          	beq	a3,a5,13668 <_vfprintf_r+0x1b68>
   1352c:	09812583          	lw	a1,152(sp)
   13530:	00b70733          	add	a4,a4,a1
   13534:	a01ff06f          	j	12f34 <_vfprintf_r+0x1434>
   13538:	22841453          	fneg.d	fs0,fs0
   1353c:	02d00c93          	li	s9,45
   13540:	991ff06f          	j	12ed0 <_vfprintf_r+0x13d0>
   13544:	04c12703          	lw	a4,76(sp)
   13548:	00100793          	li	a5,1
   1354c:	1ae05263          	blez	a4,136f0 <_vfprintf_r+0x1bf0>
   13550:	07012703          	lw	a4,112(sp)
   13554:	00e787bb          	addw	a5,a5,a4
   13558:	02f12023          	sw	a5,32(sp)
   1355c:	0007ce63          	bltz	a5,13578 <_vfprintf_r+0x1a78>
   13560:	06700d13          	li	s10,103
   13564:	a51ff06f          	j	12fb4 <_vfprintf_r+0x14b4>
   13568:	04c12783          	lw	a5,76(sp)
   1356c:	0017879b          	addiw	a5,a5,1
   13570:	02f12023          	sw	a5,32(sp)
   13574:	fe07d6e3          	bgez	a5,13560 <_vfprintf_r+0x1a60>
   13578:	00000793          	li	a5,0
   1357c:	06700d13          	li	s10,103
   13580:	a35ff06f          	j	12fb4 <_vfprintf_r+0x14b4>
   13584:	09812783          	lw	a5,152(sp)
   13588:	04f12623          	sw	a5,76(sp)
   1358c:	12f05263          	blez	a5,136b0 <_vfprintf_r+0x1bb0>
   13590:	0a041e63          	bnez	s0,1364c <_vfprintf_r+0x1b4c>
   13594:	001c7c13          	andi	s8,s8,1
   13598:	0a0c1a63          	bnez	s8,1364c <_vfprintf_r+0x1b4c>
   1359c:	02f12023          	sw	a5,32(sp)
   135a0:	a15ff06f          	j	12fb4 <_vfprintf_r+0x14b4>
   135a4:	0af10593          	addi	a1,sp,175
   135a8:	00058713          	mv	a4,a1
   135ac:	00a00513          	li	a0,10
   135b0:	02a7e6bb          	remw	a3,a5,a0
   135b4:	fff70713          	addi	a4,a4,-1
   135b8:	02a7c7bb          	divw	a5,a5,a0
   135bc:	0306869b          	addiw	a3,a3,48
   135c0:	00d70023          	sb	a3,0(a4)
   135c4:	fef646e3          	blt	a2,a5,135b0 <_vfprintf_r+0x1ab0>
   135c8:	0307879b          	addiw	a5,a5,48
   135cc:	0ff7f793          	andi	a5,a5,255
   135d0:	fff70693          	addi	a3,a4,-1
   135d4:	fef70fa3          	sb	a5,-1(a4)
   135d8:	16b6f863          	bleu	a1,a3,13748 <_vfprintf_r+0x1c48>
   135dc:	0a210613          	addi	a2,sp,162
   135e0:	0080006f          	j	135e8 <_vfprintf_r+0x1ae8>
   135e4:	0006c783          	lbu	a5,0(a3)
   135e8:	00160613          	addi	a2,a2,1 # 2001 <_ftext-0xdfff>
   135ec:	00168693          	addi	a3,a3,1
   135f0:	fef60fa3          	sb	a5,-1(a2)
   135f4:	feb698e3          	bne	a3,a1,135e4 <_vfprintf_r+0x1ae4>
   135f8:	0b010793          	addi	a5,sp,176
   135fc:	40e787b3          	sub	a5,a5,a4
   13600:	0a210713          	addi	a4,sp,162
   13604:	00f707b3          	add	a5,a4,a5
   13608:	e4dff06f          	j	13454 <_vfprintf_r+0x1954>
   1360c:	228405d3          	fmv.d	fa1,fs0
   13610:	0a810813          	addi	a6,sp,168
   13614:	09c10793          	addi	a5,sp,156
   13618:	09810713          	addi	a4,sp,152
   1361c:	00040693          	mv	a3,s0
   13620:	00300613          	li	a2,3
   13624:	000b8513          	mv	a0,s7
   13628:	01113423          	sd	a7,8(sp)
   1362c:	351010ef          	jal	1517c <_dtoa_r>
   13630:	00813883          	ld	a7,8(sp)
   13634:	00050913          	mv	s2,a0
   13638:	00040593          	mv	a1,s0
   1363c:	04600793          	li	a5,70
   13640:	00b90733          	add	a4,s2,a1
   13644:	ecfd0ee3          	beq	s10,a5,13520 <_vfprintf_r+0x1a20>
   13648:	8edff06f          	j	12f34 <_vfprintf_r+0x1434>
   1364c:	04c12783          	lw	a5,76(sp)
   13650:	0014041b          	addiw	s0,s0,1
   13654:	008787bb          	addw	a5,a5,s0
   13658:	02f12023          	sw	a5,32(sp)
   1365c:	9407dce3          	bgez	a5,12fb4 <_vfprintf_r+0x14b4>
   13660:	00000793          	li	a5,0
   13664:	951ff06f          	j	12fb4 <_vfprintf_r+0x14b4>
   13668:	f20007d3          	fmv.d.x	fa5,zero
   1366c:	a2f427d3          	feq.d	a5,fs0,fa5
   13670:	ea079ee3          	bnez	a5,1352c <_vfprintf_r+0x1a2c>
   13674:	00100793          	li	a5,1
   13678:	40b785bb          	subw	a1,a5,a1
   1367c:	08b12c23          	sw	a1,152(sp)
   13680:	00b70733          	add	a4,a4,a1
   13684:	8b1ff06f          	j	12f34 <_vfprintf_r+0x1434>
   13688:	00000d93          	li	s11,0
   1368c:	ccdff06f          	j	13358 <_vfprintf_r+0x1858>
   13690:	02813783          	ld	a5,40(sp)
   13694:	0007a403          	lw	s0,0(a5)
   13698:	00878793          	addi	a5,a5,8
   1369c:	02f13423          	sd	a5,40(sp)
   136a0:	00044463          	bltz	s0,136a8 <_vfprintf_r+0x1ba8>
   136a4:	e18fe06f          	j	11cbc <_vfprintf_r+0x1bc>
   136a8:	fff00413          	li	s0,-1
   136ac:	e10fe06f          	j	11cbc <_vfprintf_r+0x1bc>
   136b0:	00041a63          	bnez	s0,136c4 <_vfprintf_r+0x1bc4>
   136b4:	00100793          	li	a5,1
   136b8:	00fc7c33          	and	s8,s8,a5
   136bc:	02f12023          	sw	a5,32(sp)
   136c0:	8e0c0ae3          	beqz	s8,12fb4 <_vfprintf_r+0x14b4>
   136c4:	0024079b          	addiw	a5,s0,2
   136c8:	02f12023          	sw	a5,32(sp)
   136cc:	8e07d4e3          	bgez	a5,12fb4 <_vfprintf_r+0x14b4>
   136d0:	f91ff06f          	j	13660 <_vfprintf_r+0x1b60>
   136d4:	00fc7c33          	and	s8,s8,a5
   136d8:	d80c1ee3          	bnez	s8,13474 <_vfprintf_r+0x1974>
   136dc:	02012703          	lw	a4,32(sp)
   136e0:	00070793          	mv	a5,a4
   136e4:	da0750e3          	bgez	a4,13484 <_vfprintf_r+0x1984>
   136e8:	00000793          	li	a5,0
   136ec:	d99ff06f          	j	13484 <_vfprintf_r+0x1984>
   136f0:	00200793          	li	a5,2
   136f4:	40e787bb          	subw	a5,a5,a4
   136f8:	e59ff06f          	j	13550 <_vfprintf_r+0x1a50>
   136fc:	02d00713          	li	a4,45
   13700:	40f007bb          	negw	a5,a5
   13704:	0ae100a3          	sb	a4,161(sp)
   13708:	d31ff06f          	j	13438 <_vfprintf_r+0x1938>
   1370c:	08b107a3          	sb	a1,143(sp)
   13710:	ed9fe06f          	j	125e8 <_vfprintf_r+0xae8>
   13714:	00000793          	li	a5,0
   13718:	891ff06f          	j	12fa8 <_vfprintf_r+0x14a8>
   1371c:	08b107a3          	sb	a1,143(sp)
   13720:	010c6c13          	ori	s8,s8,16
   13724:	f2dfe06f          	j	12650 <_vfprintf_r+0xb50>
   13728:	08b107a3          	sb	a1,143(sp)
   1372c:	ef5fe06f          	j	12620 <_vfprintf_r+0xb20>
   13730:	09812783          	lw	a5,152(sp)
   13734:	cedff06f          	j	13420 <_vfprintf_r+0x1920>
   13738:	08b107a3          	sb	a1,143(sp)
   1373c:	e2dfe06f          	j	12568 <_vfprintf_r+0xa68>
   13740:	08b107a3          	sb	a1,143(sp)
   13744:	dd5fe06f          	j	12518 <_vfprintf_r+0xa18>
   13748:	0a210793          	addi	a5,sp,162
   1374c:	d09ff06f          	j	13454 <_vfprintf_r+0x1954>
   13750:	08b107a3          	sb	a1,143(sp)
   13754:	f41fe06f          	j	12694 <_vfprintf_r+0xb94>
   13758:	08b107a3          	sb	a1,143(sp)
   1375c:	f28fe06f          	j	11e84 <_vfprintf_r+0x384>
   13760:	08b107a3          	sb	a1,143(sp)
   13764:	9c5fe06f          	j	12128 <_vfprintf_r+0x628>
   13768:	08b107a3          	sb	a1,143(sp)
   1376c:	010c6c13          	ori	s8,s8,16
   13770:	979fe06f          	j	120e8 <_vfprintf_r+0x5e8>
   13774:	08b107a3          	sb	a1,143(sp)
   13778:	010c6c13          	ori	s8,s8,16
   1377c:	929fe06f          	j	120a4 <_vfprintf_r+0x5a4>
   13780:	08b107a3          	sb	a1,143(sp)
   13784:	881fe06f          	j	12004 <_vfprintf_r+0x504>

0000000000013788 <vfprintf>:
   13788:	00060693          	mv	a3,a2
   1378c:	00058613          	mv	a2,a1
   13790:	00050593          	mv	a1,a0
   13794:	8101b503          	ld	a0,-2032(gp) # 243e0 <_impure_ptr>
   13798:	b68fe06f          	j	11b00 <_vfprintf_r>

000000000001379c <__sbprintf>:
   1379c:	0105d783          	lhu	a5,16(a1)
   137a0:	0ac5ae03          	lw	t3,172(a1)
   137a4:	0125d303          	lhu	t1,18(a1)
   137a8:	0305b883          	ld	a7,48(a1)
   137ac:	0405b803          	ld	a6,64(a1)
   137b0:	b3010113          	addi	sp,sp,-1232
   137b4:	ffd7f793          	andi	a5,a5,-3
   137b8:	40000713          	li	a4,1024
   137bc:	4c813023          	sd	s0,1216(sp)
   137c0:	00f11823          	sh	a5,16(sp)
   137c4:	00058413          	mv	s0,a1
   137c8:	0b010793          	addi	a5,sp,176
   137cc:	00010593          	mv	a1,sp
   137d0:	4a913c23          	sd	s1,1208(sp)
   137d4:	4b213823          	sd	s2,1200(sp)
   137d8:	4c113423          	sd	ra,1224(sp)
   137dc:	00050913          	mv	s2,a0
   137e0:	0bc12623          	sw	t3,172(sp)
   137e4:	00611923          	sh	t1,18(sp)
   137e8:	03113823          	sd	a7,48(sp)
   137ec:	05013023          	sd	a6,64(sp)
   137f0:	00f13023          	sd	a5,0(sp)
   137f4:	00f13c23          	sd	a5,24(sp)
   137f8:	00e12623          	sw	a4,12(sp)
   137fc:	02e12023          	sw	a4,32(sp)
   13800:	02012423          	sw	zero,40(sp)
   13804:	afcfe0ef          	jal	11b00 <_vfprintf_r>
   13808:	00050493          	mv	s1,a0
   1380c:	00054a63          	bltz	a0,13820 <__sbprintf+0x84>
   13810:	00010593          	mv	a1,sp
   13814:	00090513          	mv	a0,s2
   13818:	4cd020ef          	jal	164e4 <_fflush_r>
   1381c:	02051c63          	bnez	a0,13854 <__sbprintf+0xb8>
   13820:	01015783          	lhu	a5,16(sp)
   13824:	0407f793          	andi	a5,a5,64
   13828:	00078863          	beqz	a5,13838 <__sbprintf+0x9c>
   1382c:	01045783          	lhu	a5,16(s0)
   13830:	0407e793          	ori	a5,a5,64
   13834:	00f41823          	sh	a5,16(s0)
   13838:	4c813083          	ld	ra,1224(sp)
   1383c:	00048513          	mv	a0,s1
   13840:	4c013403          	ld	s0,1216(sp)
   13844:	4b813483          	ld	s1,1208(sp)
   13848:	4b013903          	ld	s2,1200(sp)
   1384c:	4d010113          	addi	sp,sp,1232
   13850:	00008067          	ret
   13854:	fff00493          	li	s1,-1
   13858:	fc9ff06f          	j	13820 <__sbprintf+0x84>

000000000001385c <__svfscanf_r>:
   1385c:	cb010113          	addi	sp,sp,-848
   13860:	31813023          	sd	s8,768(sp)
   13864:	00058c13          	mv	s8,a1
   13868:	01059583          	lh	a1,16(a1)
   1386c:	34813023          	sd	s0,832(sp)
   13870:	32913c23          	sd	s1,824(sp)
   13874:	31613823          	sd	s6,784(sp)
   13878:	34113423          	sd	ra,840(sp)
   1387c:	33213823          	sd	s2,816(sp)
   13880:	33313423          	sd	s3,808(sp)
   13884:	33413023          	sd	s4,800(sp)
   13888:	31513c23          	sd	s5,792(sp)
   1388c:	31713423          	sd	s7,776(sp)
   13890:	2f913c23          	sd	s9,760(sp)
   13894:	2fa13823          	sd	s10,752(sp)
   13898:	2fb13423          	sd	s11,744(sp)
   1389c:	2c813c27          	fsd	fs0,728(sp)
   138a0:	03259793          	slli	a5,a1,0x32
   138a4:	00050493          	mv	s1,a0
   138a8:	00060413          	mv	s0,a2
   138ac:	00068b13          	mv	s6,a3
   138b0:	0207c263          	bltz	a5,138d4 <__svfscanf_r+0x78>
   138b4:	0acc2603          	lw	a2,172(s8)
   138b8:	ffffe737          	lui	a4,0xffffe
   138bc:	000026b7          	lui	a3,0x2
   138c0:	fff7071b          	addiw	a4,a4,-1
   138c4:	00d5e5b3          	or	a1,a1,a3
   138c8:	00e67733          	and	a4,a2,a4
   138cc:	00bc1823          	sh	a1,16(s8)
   138d0:	0aec2623          	sw	a4,172(s8)
   138d4:	000217b7          	lui	a5,0x21
   138d8:	bc878793          	addi	a5,a5,-1080 # 20bc8 <zeroes.4194+0x330>
   138dc:	fffff737          	lui	a4,0xfffff
   138e0:	000219b7          	lui	s3,0x21
   138e4:	00f13c23          	sd	a5,24(sp)
   138e8:	47f7079b          	addiw	a5,a4,1151
   138ec:	02013423          	sd	zero,40(sp)
   138f0:	00012823          	sw	zero,16(sp)
   138f4:	00000b93          	li	s7,0
   138f8:	00012a23          	sw	zero,20(sp)
   138fc:	8a898993          	addi	s3,s3,-1880 # 208a8 <zeroes.4194+0x10>
   13900:	04f12423          	sw	a5,72(sp)
   13904:	00044703          	lbu	a4,0(s0)
   13908:	00140413          	addi	s0,s0,1
   1390c:	06e12223          	sw	a4,100(sp)
   13910:	00070693          	mv	a3,a4
   13914:	06070e63          	beqz	a4,13990 <__svfscanf_r+0x134>
   13918:	8281b503          	ld	a0,-2008(gp) # 243f8 <__ctype_ptr__>
   1391c:	00e50733          	add	a4,a0,a4
   13920:	00174703          	lbu	a4,1(a4) # fffffffffffff001 <_end+0xfffffffffffd8259>
   13924:	00877713          	andi	a4,a4,8
   13928:	06070863          	beqz	a4,13998 <__svfscanf_r+0x13c>
   1392c:	008c2703          	lw	a4,8(s8)
   13930:	02e05e63          	blez	a4,1396c <__svfscanf_r+0x110>
   13934:	000c3683          	ld	a3,0(s8)
   13938:	8281b703          	ld	a4,-2008(gp) # 243f8 <__ctype_ptr__>
   1393c:	0006c603          	lbu	a2,0(a3) # 2000 <_ftext-0xe000>
   13940:	00c70733          	add	a4,a4,a2
   13944:	00174703          	lbu	a4,1(a4)
   13948:	00877713          	andi	a4,a4,8
   1394c:	fa070ce3          	beqz	a4,13904 <__svfscanf_r+0xa8>
   13950:	008c2703          	lw	a4,8(s8)
   13954:	00168693          	addi	a3,a3,1
   13958:	00dc3023          	sd	a3,0(s8)
   1395c:	fff7071b          	addiw	a4,a4,-1
   13960:	00ec2423          	sw	a4,8(s8)
   13964:	001b8b9b          	addiw	s7,s7,1
   13968:	fce046e3          	bgtz	a4,13934 <__svfscanf_r+0xd8>
   1396c:	000c0593          	mv	a1,s8
   13970:	00048513          	mv	a0,s1
   13974:	1f5050ef          	jal	19368 <__srefill_r>
   13978:	fa050ee3          	beqz	a0,13934 <__svfscanf_r+0xd8>
   1397c:	00044703          	lbu	a4,0(s0)
   13980:	00140413          	addi	s0,s0,1
   13984:	06e12223          	sw	a4,100(sp)
   13988:	00070693          	mv	a3,a4
   1398c:	f80716e3          	bnez	a4,13918 <__svfscanf_r+0xbc>
   13990:	01412503          	lw	a0,20(sp)
   13994:	06c0006f          	j	13a00 <__svfscanf_r+0x1a4>
   13998:	02500713          	li	a4,37
   1399c:	02e69663          	bne	a3,a4,139c8 <__svfscanf_r+0x16c>
   139a0:	00000a93          	li	s5,0
   139a4:	00000913          	li	s2,0
   139a8:	07800613          	li	a2,120
   139ac:	00140413          	addi	s0,s0,1
   139b0:	fff44683          	lbu	a3,-1(s0)
   139b4:	1ad66a63          	bltu	a2,a3,13b68 <__svfscanf_r+0x30c>
   139b8:	00269713          	slli	a4,a3,0x2
   139bc:	01370733          	add	a4,a4,s3
   139c0:	00072703          	lw	a4,0(a4)
   139c4:	00070067          	jr	a4
   139c8:	008c2703          	lw	a4,8(s8)
   139cc:	58e05a63          	blez	a4,13f60 <__svfscanf_r+0x704>
   139d0:	000c3703          	ld	a4,0(s8)
   139d4:	fff44683          	lbu	a3,-1(s0)
   139d8:	00074603          	lbu	a2,0(a4)
   139dc:	fad61ae3          	bne	a2,a3,13990 <__svfscanf_r+0x134>
   139e0:	008c2683          	lw	a3,8(s8)
   139e4:	00170713          	addi	a4,a4,1
   139e8:	00ec3023          	sd	a4,0(s8)
   139ec:	fff6871b          	addiw	a4,a3,-1
   139f0:	00ec2423          	sw	a4,8(s8)
   139f4:	001b8b9b          	addiw	s7,s7,1
   139f8:	f0dff06f          	j	13904 <__svfscanf_r+0xa8>
   139fc:	fff00513          	li	a0,-1
   13a00:	34813083          	ld	ra,840(sp)
   13a04:	34013403          	ld	s0,832(sp)
   13a08:	33813483          	ld	s1,824(sp)
   13a0c:	33013903          	ld	s2,816(sp)
   13a10:	32813983          	ld	s3,808(sp)
   13a14:	32013a03          	ld	s4,800(sp)
   13a18:	31813a83          	ld	s5,792(sp)
   13a1c:	31013b03          	ld	s6,784(sp)
   13a20:	30813b83          	ld	s7,776(sp)
   13a24:	30013c03          	ld	s8,768(sp)
   13a28:	2f813c83          	ld	s9,760(sp)
   13a2c:	2f013d03          	ld	s10,752(sp)
   13a30:	2e813d83          	ld	s11,744(sp)
   13a34:	2d813407          	fld	fs0,728(sp)
   13a38:	35010113          	addi	sp,sp,848
   13a3c:	00008067          	ret
   13a40:	008c2703          	lw	a4,8(s8)
   13a44:	0001ba37          	lui	s4,0x1b
   13a48:	e1ca0793          	addi	a5,s4,-484 # 1ae1c <_strtoul_r>
   13a4c:	02f13423          	sd	a5,40(sp)
   13a50:	00a00793          	li	a5,10
   13a54:	00f12823          	sw	a5,16(sp)
   13a58:	00300c93          	li	s9,3
   13a5c:	02e05e63          	blez	a4,13a98 <__svfscanf_r+0x23c>
   13a60:	000c3683          	ld	a3,0(s8)
   13a64:	00c0006f          	j	13a70 <__svfscanf_r+0x214>
   13a68:	00168693          	addi	a3,a3,1
   13a6c:	00dc3023          	sd	a3,0(s8)
   13a70:	0006c603          	lbu	a2,0(a3)
   13a74:	00c50733          	add	a4,a0,a2
   13a78:	00174703          	lbu	a4,1(a4)
   13a7c:	00877593          	andi	a1,a4,8
   13a80:	58058063          	beqz	a1,14000 <__svfscanf_r+0x7a4>
   13a84:	008c2703          	lw	a4,8(s8)
   13a88:	001b8b9b          	addiw	s7,s7,1
   13a8c:	fff7071b          	addiw	a4,a4,-1
   13a90:	00ec2423          	sw	a4,8(s8)
   13a94:	fce04ae3          	bgtz	a4,13a68 <__svfscanf_r+0x20c>
   13a98:	000c0593          	mv	a1,s8
   13a9c:	00048513          	mv	a0,s1
   13aa0:	0c9050ef          	jal	19368 <__srefill_r>
   13aa4:	04051863          	bnez	a0,13af4 <__svfscanf_r+0x298>
   13aa8:	8281b503          	ld	a0,-2008(gp) # 243f8 <__ctype_ptr__>
   13aac:	fb5ff06f          	j	13a60 <__svfscanf_r+0x204>
   13ab0:	008c2703          	lw	a4,8(s8)
   13ab4:	00200c93          	li	s9,2
   13ab8:	fae044e3          	bgtz	a4,13a60 <__svfscanf_r+0x204>
   13abc:	fddff06f          	j	13a98 <__svfscanf_r+0x23c>
   13ac0:	008c2703          	lw	a4,8(s8)
   13ac4:	220aea93          	ori	s5,s5,544
   13ac8:	0001ba37          	lui	s4,0x1b
   13acc:	e1ca0793          	addi	a5,s4,-484 # 1ae1c <_strtoul_r>
   13ad0:	02f13423          	sd	a5,40(sp)
   13ad4:	01000793          	li	a5,16
   13ad8:	00f12823          	sw	a5,16(sp)
   13adc:	00300c93          	li	s9,3
   13ae0:	f8e040e3          	bgtz	a4,13a60 <__svfscanf_r+0x204>
   13ae4:	000c0593          	mv	a1,s8
   13ae8:	00048513          	mv	a0,s1
   13aec:	07d050ef          	jal	19368 <__srefill_r>
   13af0:	fa050ce3          	beqz	a0,13aa8 <__svfscanf_r+0x24c>
   13af4:	01412703          	lw	a4,20(sp)
   13af8:	fff00513          	li	a0,-1
   13afc:	f00702e3          	beqz	a4,13a00 <__svfscanf_r+0x1a4>
   13b00:	010c5783          	lhu	a5,16(s8)
   13b04:	0407f793          	andi	a5,a5,64
   13b08:	ee079ce3          	bnez	a5,13a00 <__svfscanf_r+0x1a4>
   13b0c:	00070513          	mv	a0,a4
   13b10:	ef1ff06f          	j	13a00 <__svfscanf_r+0x1a4>
   13b14:	008c2703          	lw	a4,8(s8)
   13b18:	4ce05863          	blez	a4,13fe8 <__svfscanf_r+0x78c>
   13b1c:	0001ba37          	lui	s4,0x1b
   13b20:	e1ca0793          	addi	a5,s4,-484 # 1ae1c <_strtoul_r>
   13b24:	02f13423          	sd	a5,40(sp)
   13b28:	00800793          	li	a5,8
   13b2c:	00f12823          	sw	a5,16(sp)
   13b30:	00300c93          	li	s9,3
   13b34:	f2dff06f          	j	13a60 <__svfscanf_r+0x204>
   13b38:	010af713          	andi	a4,s5,16
   13b3c:	dc0714e3          	bnez	a4,13904 <__svfscanf_r+0xa8>
   13b40:	004af713          	andi	a4,s5,4
   13b44:	42070e63          	beqz	a4,13f80 <__svfscanf_r+0x724>
   13b48:	000b3703          	ld	a4,0(s6)
   13b4c:	008b0b13          	addi	s6,s6,8
   13b50:	01771023          	sh	s7,0(a4)
   13b54:	db1ff06f          	j	13904 <__svfscanf_r+0xa8>
   13b58:	00140413          	addi	s0,s0,1
   13b5c:	fff44683          	lbu	a3,-1(s0)
   13b60:	001aea93          	ori	s5,s5,1
   13b64:	e4d67ae3          	bleu	a3,a2,139b8 <__svfscanf_r+0x15c>
   13b68:	00d506b3          	add	a3,a0,a3
   13b6c:	0016c703          	lbu	a4,1(a3)
   13b70:	00100693          	li	a3,1
   13b74:	00377713          	andi	a4,a4,3
   13b78:	3ed70e63          	beq	a4,a3,13f74 <__svfscanf_r+0x718>
   13b7c:	008c2703          	lw	a4,8(s8)
   13b80:	1440006f          	j	13cc4 <__svfscanf_r+0x468>
   13b84:	004aea93          	ori	s5,s5,4
   13b88:	e25ff06f          	j	139ac <__svfscanf_r+0x150>
   13b8c:	008c2703          	lw	a4,8(s8)
   13b90:	40e05463          	blez	a4,13f98 <__svfscanf_r+0x73c>
   13b94:	0001ba37          	lui	s4,0x1b
   13b98:	c2ca0793          	addi	a5,s4,-980 # 1ac2c <_strtol_r>
   13b9c:	02f13423          	sd	a5,40(sp)
   13ba0:	00a00793          	li	a5,10
   13ba4:	00f12823          	sw	a5,16(sp)
   13ba8:	00300c93          	li	s9,3
   13bac:	eb5ff06f          	j	13a60 <__svfscanf_r+0x204>
   13bb0:	008c2703          	lw	a4,8(s8)
   13bb4:	34e05663          	blez	a4,13f00 <__svfscanf_r+0x6a4>
   13bb8:	00091463          	bnez	s2,13bc0 <__svfscanf_r+0x364>
   13bbc:	00100913          	li	s2,1
   13bc0:	001af713          	andi	a4,s5,1
   13bc4:	22071063          	bnez	a4,13de4 <__svfscanf_r+0x588>
   13bc8:	010afa93          	andi	s5,s5,16
   13bcc:	360a8063          	beqz	s5,13f2c <__svfscanf_r+0x6d0>
   13bd0:	00000a93          	li	s5,0
   13bd4:	0280006f          	j	13bfc <__svfscanf_r+0x3a0>
   13bd8:	000c3683          	ld	a3,0(s8)
   13bdc:	000c0593          	mv	a1,s8
   13be0:	00048513          	mv	a0,s1
   13be4:	00e686b3          	add	a3,a3,a4
   13be8:	00dc3023          	sd	a3,0(s8)
   13bec:	00ea8ab3          	add	s5,s5,a4
   13bf0:	40e90933          	sub	s2,s2,a4
   13bf4:	774050ef          	jal	19368 <__srefill_r>
   13bf8:	30051e63          	bnez	a0,13f14 <__svfscanf_r+0x6b8>
   13bfc:	008c2703          	lw	a4,8(s8)
   13c00:	0009069b          	sext.w	a3,s2
   13c04:	fcd74ae3          	blt	a4,a3,13bd8 <__svfscanf_r+0x37c>
   13c08:	000c3603          	ld	a2,0(s8)
   13c0c:	40d7073b          	subw	a4,a4,a3
   13c10:	012a8ab3          	add	s5,s5,s2
   13c14:	01260333          	add	t1,a2,s2
   13c18:	00ec2423          	sw	a4,8(s8)
   13c1c:	006c3023          	sd	t1,0(s8)
   13c20:	017a8bbb          	addw	s7,s5,s7
   13c24:	ce1ff06f          	j	13904 <__svfscanf_r+0xa8>
   13c28:	00040593          	mv	a1,s0
   13c2c:	07010513          	addi	a0,sp,112
   13c30:	181050ef          	jal	195b0 <__sccl>
   13c34:	008c2703          	lw	a4,8(s8)
   13c38:	00050413          	mv	s0,a0
   13c3c:	38e05063          	blez	a4,13fbc <__svfscanf_r+0x760>
   13c40:	000c3683          	ld	a3,0(s8)
   13c44:	0006c703          	lbu	a4,0(a3)
   13c48:	10090263          	beqz	s2,13d4c <__svfscanf_r+0x4f0>
   13c4c:	010afa93          	andi	s5,s5,16
   13c50:	100a8463          	beqz	s5,13d58 <__svfscanf_r+0x4fc>
   13c54:	00000a93          	li	s5,0
   13c58:	0080006f          	j	13c60 <__svfscanf_r+0x404>
   13c5c:	0006c703          	lbu	a4,0(a3)
   13c60:	2d010793          	addi	a5,sp,720
   13c64:	00e78733          	add	a4,a5,a4
   13c68:	da074703          	lbu	a4,-608(a4)
   13c6c:	2a070a63          	beqz	a4,13f20 <__svfscanf_r+0x6c4>
   13c70:	008c2703          	lw	a4,8(s8)
   13c74:	00168693          	addi	a3,a3,1
   13c78:	00dc3023          	sd	a3,0(s8)
   13c7c:	fff7071b          	addiw	a4,a4,-1
   13c80:	00ec2423          	sw	a4,8(s8)
   13c84:	fff90913          	addi	s2,s2,-1
   13c88:	001a8a9b          	addiw	s5,s5,1
   13c8c:	14090863          	beqz	s2,13ddc <__svfscanf_r+0x580>
   13c90:	fce046e3          	bgtz	a4,13c5c <__svfscanf_r+0x400>
   13c94:	000c0593          	mv	a1,s8
   13c98:	00048513          	mv	a0,s1
   13c9c:	6cc050ef          	jal	19368 <__srefill_r>
   13ca0:	12051e63          	bnez	a0,13ddc <__svfscanf_r+0x580>
   13ca4:	000c3683          	ld	a3,0(s8)
   13ca8:	fb5ff06f          	j	13c5c <__svfscanf_r+0x400>
   13cac:	008c2703          	lw	a4,8(s8)
   13cb0:	00400c93          	li	s9,4
   13cb4:	dae046e3          	bgtz	a4,13a60 <__svfscanf_r+0x204>
   13cb8:	de1ff06f          	j	13a98 <__svfscanf_r+0x23c>
   13cbc:	008c2703          	lw	a4,8(s8)
   13cc0:	001aea93          	ori	s5,s5,1
   13cc4:	0001ba37          	lui	s4,0x1b
   13cc8:	c2ca0793          	addi	a5,s4,-980 # 1ac2c <_strtol_r>
   13ccc:	d81ff06f          	j	13a4c <__svfscanf_r+0x1f0>
   13cd0:	0001ba37          	lui	s4,0x1b
   13cd4:	e1ca0793          	addi	a5,s4,-484 # 1ae1c <_strtoul_r>
   13cd8:	008c2703          	lw	a4,8(s8)
   13cdc:	02f13423          	sd	a5,40(sp)
   13ce0:	00800793          	li	a5,8
   13ce4:	00f12823          	sw	a5,16(sp)
   13ce8:	001aea93          	ori	s5,s5,1
   13cec:	00300c93          	li	s9,3
   13cf0:	d6e048e3          	bgtz	a4,13a60 <__svfscanf_r+0x204>
   13cf4:	da5ff06f          	j	13a98 <__svfscanf_r+0x23c>
   13cf8:	002aea93          	ori	s5,s5,2
   13cfc:	cb1ff06f          	j	139ac <__svfscanf_r+0x150>
   13d00:	008c2703          	lw	a4,8(s8)
   13d04:	200aea93          	ori	s5,s5,512
   13d08:	dc1ff06f          	j	13ac8 <__svfscanf_r+0x26c>
   13d0c:	00191713          	slli	a4,s2,0x1
   13d10:	00391313          	slli	t1,s2,0x3
   13d14:	00670333          	add	t1,a4,t1
   13d18:	fd068693          	addi	a3,a3,-48
   13d1c:	00668933          	add	s2,a3,t1
   13d20:	c8dff06f          	j	139ac <__svfscanf_r+0x150>
   13d24:	010aea93          	ori	s5,s5,16
   13d28:	c85ff06f          	j	139ac <__svfscanf_r+0x150>
   13d2c:	008c2703          	lw	a4,8(s8)
   13d30:	2ae05063          	blez	a4,13fd0 <__svfscanf_r+0x774>
   13d34:	0001ba37          	lui	s4,0x1b
   13d38:	c2ca0793          	addi	a5,s4,-980 # 1ac2c <_strtol_r>
   13d3c:	02f13423          	sd	a5,40(sp)
   13d40:	00012823          	sw	zero,16(sp)
   13d44:	00300c93          	li	s9,3
   13d48:	d19ff06f          	j	13a60 <__svfscanf_r+0x204>
   13d4c:	010afa93          	andi	s5,s5,16
   13d50:	fff00913          	li	s2,-1
   13d54:	f00a90e3          	bnez	s5,13c54 <__svfscanf_r+0x3f8>
   13d58:	000b3a83          	ld	s5,0(s6)
   13d5c:	008b0b13          	addi	s6,s6,8
   13d60:	012a8d33          	add	s10,s5,s2
   13d64:	000a8c93          	mv	s9,s5
   13d68:	00c0006f          	j	13d74 <__svfscanf_r+0x518>
   13d6c:	000c3683          	ld	a3,0(s8)
   13d70:	0006c703          	lbu	a4,0(a3)
   13d74:	2d010793          	addi	a5,sp,720
   13d78:	00e78733          	add	a4,a5,a4
   13d7c:	da074703          	lbu	a4,-608(a4)
   13d80:	04070263          	beqz	a4,13dc4 <__svfscanf_r+0x568>
   13d84:	008c2703          	lw	a4,8(s8)
   13d88:	00168613          	addi	a2,a3,1
   13d8c:	00cc3023          	sd	a2,0(s8)
   13d90:	fff7071b          	addiw	a4,a4,-1
   13d94:	00ec2423          	sw	a4,8(s8)
   13d98:	0006c703          	lbu	a4,0(a3)
   13d9c:	001c8c93          	addi	s9,s9,1
   13da0:	feec8fa3          	sb	a4,-1(s9)
   13da4:	03ac8063          	beq	s9,s10,13dc4 <__svfscanf_r+0x568>
   13da8:	008c2703          	lw	a4,8(s8)
   13dac:	fce040e3          	bgtz	a4,13d6c <__svfscanf_r+0x510>
   13db0:	000c0593          	mv	a1,s8
   13db4:	00048513          	mv	a0,s1
   13db8:	5b0050ef          	jal	19368 <__srefill_r>
   13dbc:	fa0508e3          	beqz	a0,13d6c <__svfscanf_r+0x510>
   13dc0:	d39a8ae3          	beq	s5,s9,13af4 <__svfscanf_r+0x298>
   13dc4:	415c8abb          	subw	s5,s9,s5
   13dc8:	bc0a84e3          	beqz	s5,13990 <__svfscanf_r+0x134>
   13dcc:	01412783          	lw	a5,20(sp)
   13dd0:	000c8023          	sb	zero,0(s9)
   13dd4:	0017879b          	addiw	a5,a5,1
   13dd8:	00f12a23          	sw	a5,20(sp)
   13ddc:	015b8bbb          	addw	s7,s7,s5
   13de0:	b25ff06f          	j	13904 <__svfscanf_r+0xa8>
   13de4:	010af793          	andi	a5,s5,16
   13de8:	06810c93          	addi	s9,sp,104
   13dec:	00800613          	li	a2,8
   13df0:	00000593          	li	a1,0
   13df4:	000c8513          	mv	a0,s9
   13df8:	00078a13          	mv	s4,a5
   13dfc:	00f12423          	sw	a5,8(sp)
   13e00:	00000a93          	li	s5,0
   13e04:	68d030ef          	jal	17c90 <memset>
   13e08:	0e0a0663          	beqz	s4,13ef4 <__svfscanf_r+0x698>
   13e0c:	00000a13          	li	s4,0
   13e10:	fff00d13          	li	s10,-1
   13e14:	029030ef          	jal	1763c <__locale_mb_cur_max>
   13e18:	cd450ee3          	beq	a0,s4,13af4 <__svfscanf_r+0x298>
   13e1c:	000c3683          	ld	a3,0(s8)
   13e20:	008c2603          	lw	a2,8(s8)
   13e24:	001a0d9b          	addiw	s11,s4,1
   13e28:	0006ce83          	lbu	t4,0(a3)
   13e2c:	fff6061b          	addiw	a2,a2,-1
   13e30:	00168693          	addi	a3,a3,1
   13e34:	2d010793          	addi	a5,sp,720
   13e38:	014788b3          	add	a7,a5,s4
   13e3c:	00cc2423          	sw	a2,8(s8)
   13e40:	00dc3023          	sd	a3,0(s8)
   13e44:	000c8713          	mv	a4,s9
   13e48:	000d8693          	mv	a3,s11
   13e4c:	17010613          	addi	a2,sp,368
   13e50:	000a8593          	mv	a1,s5
   13e54:	00048513          	mv	a0,s1
   13e58:	ebd88023          	sb	t4,-352(a7)
   13e5c:	1d1030ef          	jal	1782c <_mbrtowc_r>
   13e60:	c9a50ae3          	beq	a0,s10,13af4 <__svfscanf_r+0x298>
   13e64:	04051263          	bnez	a0,13ea8 <__svfscanf_r+0x64c>
   13e68:	00812783          	lw	a5,8(sp)
   13e6c:	06079463          	bnez	a5,13ed4 <__svfscanf_r+0x678>
   13e70:	000aa023          	sw	zero,0(s5)
   13e74:	01bb8bbb          	addw	s7,s7,s11
   13e78:	fff90913          	addi	s2,s2,-1
   13e7c:	004a8a93          	addi	s5,s5,4
   13e80:	008c2683          	lw	a3,8(s8)
   13e84:	00000a13          	li	s4,0
   13e88:	02d05a63          	blez	a3,13ebc <__svfscanf_r+0x660>
   13e8c:	f80914e3          	bnez	s2,13e14 <__svfscanf_r+0x5b8>
   13e90:	00812783          	lw	a5,8(sp)
   13e94:	0017ba93          	seqz	s5,a5
   13e98:	01412783          	lw	a5,20(sp)
   13e9c:	015787bb          	addw	a5,a5,s5
   13ea0:	00f12a23          	sw	a5,20(sp)
   13ea4:	a61ff06f          	j	13904 <__svfscanf_r+0xa8>
   13ea8:	ffe00793          	li	a5,-2
   13eac:	02f51a63          	bne	a0,a5,13ee0 <__svfscanf_r+0x684>
   13eb0:	008c2703          	lw	a4,8(s8)
   13eb4:	000d8a13          	mv	s4,s11
   13eb8:	f4e04ee3          	bgtz	a4,13e14 <__svfscanf_r+0x5b8>
   13ebc:	000c0593          	mv	a1,s8
   13ec0:	00048513          	mv	a0,s1
   13ec4:	4a4050ef          	jal	19368 <__srefill_r>
   13ec8:	fc0502e3          	beqz	a0,13e8c <__svfscanf_r+0x630>
   13ecc:	fc0a02e3          	beqz	s4,13e90 <__svfscanf_r+0x634>
   13ed0:	c25ff06f          	j	13af4 <__svfscanf_r+0x298>
   13ed4:	01bb8bbb          	addw	s7,s7,s11
   13ed8:	fff90913          	addi	s2,s2,-1
   13edc:	fa5ff06f          	j	13e80 <__svfscanf_r+0x624>
   13ee0:	00812783          	lw	a5,8(sp)
   13ee4:	01bb8bbb          	addw	s7,s7,s11
   13ee8:	fff90913          	addi	s2,s2,-1
   13eec:	f80788e3          	beqz	a5,13e7c <__svfscanf_r+0x620>
   13ef0:	f91ff06f          	j	13e80 <__svfscanf_r+0x624>
   13ef4:	000b3a83          	ld	s5,0(s6)
   13ef8:	008b0b13          	addi	s6,s6,8
   13efc:	f11ff06f          	j	13e0c <__svfscanf_r+0x5b0>
   13f00:	000c0593          	mv	a1,s8
   13f04:	00048513          	mv	a0,s1
   13f08:	460050ef          	jal	19368 <__srefill_r>
   13f0c:	ca0506e3          	beqz	a0,13bb8 <__svfscanf_r+0x35c>
   13f10:	be5ff06f          	j	13af4 <__svfscanf_r+0x298>
   13f14:	be0a80e3          	beqz	s5,13af4 <__svfscanf_r+0x298>
   13f18:	017a8bbb          	addw	s7,s5,s7
   13f1c:	9e9ff06f          	j	13904 <__svfscanf_r+0xa8>
   13f20:	a60a88e3          	beqz	s5,13990 <__svfscanf_r+0x134>
   13f24:	015b8bbb          	addw	s7,s7,s5
   13f28:	9ddff06f          	j	13904 <__svfscanf_r+0xa8>
   13f2c:	000b3583          	ld	a1,0(s6)
   13f30:	000c0713          	mv	a4,s8
   13f34:	00090693          	mv	a3,s2
   13f38:	00100613          	li	a2,1
   13f3c:	00048513          	mv	a0,s1
   13f40:	191020ef          	jal	168d0 <_fread_r>
   13f44:	008b0b13          	addi	s6,s6,8
   13f48:	ba0506e3          	beqz	a0,13af4 <__svfscanf_r+0x298>
   13f4c:	01412783          	lw	a5,20(sp)
   13f50:	01750bbb          	addw	s7,a0,s7
   13f54:	0017879b          	addiw	a5,a5,1
   13f58:	00f12a23          	sw	a5,20(sp)
   13f5c:	9a9ff06f          	j	13904 <__svfscanf_r+0xa8>
   13f60:	000c0593          	mv	a1,s8
   13f64:	00048513          	mv	a0,s1
   13f68:	400050ef          	jal	19368 <__srefill_r>
   13f6c:	a60502e3          	beqz	a0,139d0 <__svfscanf_r+0x174>
   13f70:	b85ff06f          	j	13af4 <__svfscanf_r+0x298>
   13f74:	008c2703          	lw	a4,8(s8)
   13f78:	00daeab3          	or	s5,s5,a3
   13f7c:	d49ff06f          	j	13cc4 <__svfscanf_r+0x468>
   13f80:	001afa93          	andi	s5,s5,1
   13f84:	000b3703          	ld	a4,0(s6)
   13f88:	020a8463          	beqz	s5,13fb0 <__svfscanf_r+0x754>
   13f8c:	008b0b13          	addi	s6,s6,8
   13f90:	01773023          	sd	s7,0(a4)
   13f94:	971ff06f          	j	13904 <__svfscanf_r+0xa8>
   13f98:	000c0593          	mv	a1,s8
   13f9c:	00048513          	mv	a0,s1
   13fa0:	3c8050ef          	jal	19368 <__srefill_r>
   13fa4:	b40518e3          	bnez	a0,13af4 <__svfscanf_r+0x298>
   13fa8:	8281b503          	ld	a0,-2008(gp) # 243f8 <__ctype_ptr__>
   13fac:	be9ff06f          	j	13b94 <__svfscanf_r+0x338>
   13fb0:	008b0b13          	addi	s6,s6,8
   13fb4:	01772023          	sw	s7,0(a4)
   13fb8:	94dff06f          	j	13904 <__svfscanf_r+0xa8>
   13fbc:	000c0593          	mv	a1,s8
   13fc0:	00048513          	mv	a0,s1
   13fc4:	3a4050ef          	jal	19368 <__srefill_r>
   13fc8:	c6050ce3          	beqz	a0,13c40 <__svfscanf_r+0x3e4>
   13fcc:	b29ff06f          	j	13af4 <__svfscanf_r+0x298>
   13fd0:	000c0593          	mv	a1,s8
   13fd4:	00048513          	mv	a0,s1
   13fd8:	390050ef          	jal	19368 <__srefill_r>
   13fdc:	b0051ce3          	bnez	a0,13af4 <__svfscanf_r+0x298>
   13fe0:	8281b503          	ld	a0,-2008(gp) # 243f8 <__ctype_ptr__>
   13fe4:	d51ff06f          	j	13d34 <__svfscanf_r+0x4d8>
   13fe8:	000c0593          	mv	a1,s8
   13fec:	00048513          	mv	a0,s1
   13ff0:	378050ef          	jal	19368 <__srefill_r>
   13ff4:	b00510e3          	bnez	a0,13af4 <__svfscanf_r+0x298>
   13ff8:	8281b503          	ld	a0,-2008(gp) # 243f8 <__ctype_ptr__>
   13ffc:	b21ff06f          	j	13b1c <__svfscanf_r+0x2c0>
   14000:	00300593          	li	a1,3
   14004:	3ebc8e63          	beq	s9,a1,14400 <__svfscanf_r+0xba4>
   14008:	00400613          	li	a2,4
   1400c:	38cc9063          	bne	s9,a2,1438c <__svfscanf_r+0xb30>
   14010:	00048513          	mv	a0,s1
   14014:	644030ef          	jal	17658 <_localeconv_r>
   14018:	00053783          	ld	a5,0(a0)
   1401c:	fff90713          	addi	a4,s2,-1
   14020:	04012623          	sw	zero,76(sp)
   14024:	04f13023          	sd	a5,64(sp)
   14028:	15c00693          	li	a3,348
   1402c:	00e6f863          	bleu	a4,a3,1403c <__svfscanf_r+0x7e0>
   14030:	ea39079b          	addiw	a5,s2,-349
   14034:	04f12623          	sw	a5,76(sp)
   14038:	15d00913          	li	s2,349
   1403c:	17010793          	addi	a5,sp,368
   14040:	00021637          	lui	a2,0x21
   14044:	780aea13          	ori	s4,s5,1920
   14048:	02f13823          	sd	a5,48(sp)
   1404c:	00000c93          	li	s9,0
   14050:	00000d13          	li	s10,0
   14054:	04013c23          	sd	zero,88(sp)
   14058:	04013823          	sd	zero,80(sp)
   1405c:	00000a93          	li	s5,0
   14060:	02013c23          	sd	zero,56(sp)
   14064:	00078d93          	mv	s11,a5
   14068:	04e00e93          	li	t4,78
   1406c:	a8c60613          	addi	a2,a2,-1396 # 20a8c <zeroes.4194+0x1f4>
   14070:	000c3583          	ld	a1,0(s8)
   14074:	0005c503          	lbu	a0,0(a1)
   14078:	fd55071b          	addiw	a4,a0,-43
   1407c:	0ff77f93          	andi	t6,a4,255
   14080:	2dfee463          	bltu	t4,t6,14348 <__svfscanf_r+0xaec>
   14084:	0ff77713          	andi	a4,a4,255
   14088:	00271713          	slli	a4,a4,0x2
   1408c:	00c70733          	add	a4,a4,a2
   14090:	00072703          	lw	a4,0(a4)
   14094:	00070067          	jr	a4
   14098:	019d073b          	addw	a4,s10,s9
   1409c:	02071a63          	bnez	a4,140d0 <__svfscanf_r+0x874>
   140a0:	e7fa7a13          	andi	s4,s4,-385
   140a4:	00ad8023          	sb	a0,0(s11)
   140a8:	001d8d93          	addi	s11,s11,1
   140ac:	008c2703          	lw	a4,8(s8)
   140b0:	fff90913          	addi	s2,s2,-1
   140b4:	001b8b9b          	addiw	s7,s7,1
   140b8:	fff7071b          	addiw	a4,a4,-1
   140bc:	00ec2423          	sw	a4,8(s8)
   140c0:	04e05c63          	blez	a4,14118 <__svfscanf_r+0x8bc>
   140c4:	00158593          	addi	a1,a1,1
   140c8:	00bc3023          	sd	a1,0(s8)
   140cc:	fa0912e3          	bnez	s2,14070 <__svfscanf_r+0x814>
   140d0:	0e0a8263          	beqz	s5,141b4 <__svfscanf_r+0x958>
   140d4:	effa7a13          	andi	s4,s4,-257
   140d8:	0dc0006f          	j	141b4 <__svfscanf_r+0x958>
   140dc:	100a7713          	andi	a4,s4,256
   140e0:	fa070ce3          	beqz	a4,14098 <__svfscanf_r+0x83c>
   140e4:	04c12783          	lw	a5,76(sp)
   140e8:	f7fa7a13          	andi	s4,s4,-129
   140ec:	001a8a93          	addi	s5,s5,1
   140f0:	fa078ee3          	beqz	a5,140ac <__svfscanf_r+0x850>
   140f4:	008c2703          	lw	a4,8(s8)
   140f8:	fff7879b          	addiw	a5,a5,-1
   140fc:	00190913          	addi	s2,s2,1
   14100:	fff7071b          	addiw	a4,a4,-1
   14104:	04f12623          	sw	a5,76(sp)
   14108:	00ec2423          	sw	a4,8(s8)
   1410c:	fff90913          	addi	s2,s2,-1
   14110:	001b8b9b          	addiw	s7,s7,1
   14114:	fae048e3          	bgtz	a4,140c4 <__svfscanf_r+0x868>
   14118:	000c0593          	mv	a1,s8
   1411c:	00048513          	mv	a0,s1
   14120:	02c13023          	sd	a2,32(sp)
   14124:	01d13423          	sd	t4,8(sp)
   14128:	240050ef          	jal	19368 <__srefill_r>
   1412c:	00813e83          	ld	t4,8(sp)
   14130:	02013603          	ld	a2,32(sp)
   14134:	f8051ee3          	bnez	a0,140d0 <__svfscanf_r+0x874>
   14138:	f2091ce3          	bnez	s2,14070 <__svfscanf_r+0x814>
   1413c:	f95ff06f          	j	140d0 <__svfscanf_r+0x874>
   14140:	00700793          	li	a5,7
   14144:	f8fc96e3          	bne	s9,a5,140d0 <__svfscanf_r+0x874>
   14148:	00800c93          	li	s9,8
   1414c:	f59ff06f          	j	140a4 <__svfscanf_r+0x848>
   14150:	080a7713          	andi	a4,s4,128
   14154:	f6070ee3          	beqz	a4,140d0 <__svfscanf_r+0x874>
   14158:	f7fa7a13          	andi	s4,s4,-129
   1415c:	f49ff06f          	j	140a4 <__svfscanf_r+0x848>
   14160:	00600793          	li	a5,6
   14164:	f6fc96e3          	bne	s9,a5,140d0 <__svfscanf_r+0x874>
   14168:	00700c93          	li	s9,7
   1416c:	f39ff06f          	j	140a4 <__svfscanf_r+0x848>
   14170:	1e0d1c63          	bnez	s10,14368 <__svfscanf_r+0xb0c>
   14174:	000a9863          	bnez	s5,14184 <__svfscanf_r+0x928>
   14178:	700a7713          	andi	a4,s4,1792
   1417c:	70000793          	li	a5,1792
   14180:	56f70863          	beq	a4,a5,146f0 <__svfscanf_r+0xe94>
   14184:	00100713          	li	a4,1
   14188:	00ec8663          	beq	s9,a4,14194 <__svfscanf_r+0x938>
   1418c:	00400713          	li	a4,4
   14190:	f4ec90e3          	bne	s9,a4,140d0 <__svfscanf_r+0x874>
   14194:	001c8e1b          	addiw	t3,s9,1
   14198:	0ffe7c93          	andi	s9,t3,255
   1419c:	f09ff06f          	j	140a4 <__svfscanf_r+0x848>
   141a0:	1c0c9c63          	bnez	s9,14378 <__svfscanf_r+0xb1c>
   141a4:	f20a98e3          	bnez	s5,140d4 <__svfscanf_r+0x878>
   141a8:	700a7713          	andi	a4,s4,1792
   141ac:	70000793          	li	a5,1792
   141b0:	54f70663          	beq	a4,a5,146fc <__svfscanf_r+0xea0>
   141b4:	fffd0f1b          	addiw	t5,s10,-1
   141b8:	00100713          	li	a4,1
   141bc:	6fe77c63          	bleu	t5,a4,148b4 <__svfscanf_r+0x1058>
   141c0:	fffc871b          	addiw	a4,s9,-1
   141c4:	00600613          	li	a2,6
   141c8:	06e66063          	bltu	a2,a4,14228 <__svfscanf_r+0x9cc>
   141cc:	00200793          	li	a5,2
   141d0:	7397fa63          	bleu	s9,a5,14904 <__svfscanf_r+0x10a8>
   141d4:	00300613          	li	a2,3
   141d8:	0ff77713          	andi	a4,a4,255
   141dc:	000d8d13          	mv	s10,s11
   141e0:	00078913          	mv	s2,a5
   141e4:	04cc8263          	beq	s9,a2,14228 <__svfscanf_r+0x9cc>
   141e8:	fffd0d13          	addi	s10,s10,-1
   141ec:	000d4583          	lbu	a1,0(s10)
   141f0:	000c0613          	mv	a2,s8
   141f4:	00048513          	mv	a0,s1
   141f8:	00e13423          	sd	a4,8(sp)
   141fc:	30d080ef          	jal	1cd08 <_ungetc_r>
   14200:	00813703          	ld	a4,8(sp)
   14204:	fff7071b          	addiw	a4,a4,-1
   14208:	0ff77713          	andi	a4,a4,255
   1420c:	fd271ee3          	bne	a4,s2,141e8 <__svfscanf_r+0x98c>
   14210:	ffcc871b          	addiw	a4,s9,-4
   14214:	0ff77713          	andi	a4,a4,255
   14218:	fff74613          	not	a2,a4
   1421c:	fffb881b          	addiw	a6,s7,-1
   14220:	00cd8db3          	add	s11,s11,a2
   14224:	40e80bbb          	subw	s7,a6,a4
   14228:	100a7713          	andi	a4,s4,256
   1422c:	04070e63          	beqz	a4,14288 <__svfscanf_r+0xa2c>
   14230:	400a7713          	andi	a4,s4,1024
   14234:	6a071463          	bnez	a4,148dc <__svfscanf_r+0x1080>
   14238:	fffdc583          	lbu	a1,-1(s11)
   1423c:	06500613          	li	a2,101
   14240:	fffd8d13          	addi	s10,s11,-1
   14244:	fffb871b          	addiw	a4,s7,-1
   14248:	02c58263          	beq	a1,a2,1426c <__svfscanf_r+0xa10>
   1424c:	04500613          	li	a2,69
   14250:	00c58e63          	beq	a1,a2,1426c <__svfscanf_r+0xa10>
   14254:	000c0613          	mv	a2,s8
   14258:	00048513          	mv	a0,s1
   1425c:	2ad080ef          	jal	1cd08 <_ungetc_r>
   14260:	ffedc583          	lbu	a1,-2(s11)
   14264:	ffed8d13          	addi	s10,s11,-2
   14268:	ffeb871b          	addiw	a4,s7,-2
   1426c:	000c0613          	mv	a2,s8
   14270:	00048513          	mv	a0,s1
   14274:	00e13423          	sd	a4,8(sp)
   14278:	291080ef          	jal	1cd08 <_ungetc_r>
   1427c:	00813703          	ld	a4,8(sp)
   14280:	000d0d93          	mv	s11,s10
   14284:	00070b93          	mv	s7,a4
   14288:	010a7713          	andi	a4,s4,16
   1428c:	e6071c63          	bnez	a4,13904 <__svfscanf_r+0xa8>
   14290:	000d8023          	sb	zero,0(s11)
   14294:	600a7713          	andi	a4,s4,1536
   14298:	40000613          	li	a2,1024
   1429c:	48c70e63          	beq	a4,a2,14738 <__svfscanf_r+0xedc>
   142a0:	05013783          	ld	a5,80(sp)
   142a4:	4c079263          	bnez	a5,14768 <__svfscanf_r+0xf0c>
   142a8:	03013583          	ld	a1,48(sp)
   142ac:	00000613          	li	a2,0
   142b0:	00048513          	mv	a0,s1
   142b4:	674050ef          	jal	19928 <_strtod_r>
   142b8:	001a7713          	andi	a4,s4,1
   142bc:	22a50453          	fmv.d	fs0,fa0
   142c0:	00071663          	bnez	a4,142cc <__svfscanf_r+0xa70>
   142c4:	002a7893          	andi	a7,s4,2
   142c8:	4c088e63          	beqz	a7,147a4 <__svfscanf_r+0xf48>
   142cc:	000b3703          	ld	a4,0(s6)
   142d0:	008b0b13          	addi	s6,s6,8
   142d4:	00873027          	fsd	fs0,0(a4)
   142d8:	01412783          	lw	a5,20(sp)
   142dc:	0017879b          	addiw	a5,a5,1
   142e0:	00f12a23          	sw	a5,20(sp)
   142e4:	e20ff06f          	j	13904 <__svfscanf_r+0xa8>
   142e8:	00200793          	li	a5,2
   142ec:	defc92e3          	bne	s9,a5,140d0 <__svfscanf_r+0x874>
   142f0:	00300c93          	li	s9,3
   142f4:	db1ff06f          	j	140a4 <__svfscanf_r+0x848>
   142f8:	500a7713          	andi	a4,s4,1280
   142fc:	40000793          	li	a5,1024
   14300:	00f70863          	beq	a4,a5,14310 <__svfscanf_r+0xab4>
   14304:	00fa7733          	and	a4,s4,a5
   14308:	dc0704e3          	beqz	a4,140d0 <__svfscanf_r+0x874>
   1430c:	ea0a84e3          	beqz	s5,141b4 <__svfscanf_r+0x958>
   14310:	200a7713          	andi	a4,s4,512
   14314:	00071a63          	bnez	a4,14328 <__svfscanf_r+0xacc>
   14318:	03813783          	ld	a5,56(sp)
   1431c:	05b13c23          	sd	s11,88(sp)
   14320:	40fa87b3          	sub	a5,s5,a5
   14324:	04f13823          	sd	a5,80(sp)
   14328:	87fa7a93          	andi	s5,s4,-1921
   1432c:	180aea13          	ori	s4,s5,384
   14330:	00000a93          	li	s5,0
   14334:	d71ff06f          	j	140a4 <__svfscanf_r+0x848>
   14338:	00100713          	li	a4,1
   1433c:	d8ed1ae3          	bne	s10,a4,140d0 <__svfscanf_r+0x874>
   14340:	00200d13          	li	s10,2
   14344:	d61ff06f          	j	140a4 <__svfscanf_r+0x848>
   14348:	04013783          	ld	a5,64(sp)
   1434c:	0007c703          	lbu	a4,0(a5)
   14350:	d8a710e3          	bne	a4,a0,140d0 <__svfscanf_r+0x874>
   14354:	200a7713          	andi	a4,s4,512
   14358:	d6070ce3          	beqz	a4,140d0 <__svfscanf_r+0x874>
   1435c:	d7fa7a13          	andi	s4,s4,-641
   14360:	03513c23          	sd	s5,56(sp)
   14364:	d41ff06f          	j	140a4 <__svfscanf_r+0x848>
   14368:	00200793          	li	a5,2
   1436c:	e0fd1ce3          	bne	s10,a5,14184 <__svfscanf_r+0x928>
   14370:	00300d13          	li	s10,3
   14374:	d31ff06f          	j	140a4 <__svfscanf_r+0x848>
   14378:	ffdc871b          	addiw	a4,s9,-3
   1437c:	0fd77713          	andi	a4,a4,253
   14380:	e0070ae3          	beqz	a4,14194 <__svfscanf_r+0x938>
   14384:	e20a88e3          	beqz	s5,141b4 <__svfscanf_r+0x958>
   14388:	d4dff06f          	j	140d4 <__svfscanf_r+0x878>
   1438c:	00091463          	bnez	s2,14394 <__svfscanf_r+0xb38>
   14390:	fff00913          	li	s2,-1
   14394:	001af613          	andi	a2,s5,1
   14398:	2c061863          	bnez	a2,14668 <__svfscanf_r+0xe0c>
   1439c:	010afa93          	andi	s5,s5,16
   143a0:	1e0a8e63          	beqz	s5,1459c <__svfscanf_r+0xd40>
   143a4:	00000a93          	li	s5,0
   143a8:	0100006f          	j	143b8 <__svfscanf_r+0xb5c>
   143ac:	0006c703          	lbu	a4,0(a3)
   143b0:	00e50733          	add	a4,a0,a4
   143b4:	00174703          	lbu	a4,1(a4)
   143b8:	00877713          	andi	a4,a4,8
   143bc:	a20710e3          	bnez	a4,13ddc <__svfscanf_r+0x580>
   143c0:	008c2703          	lw	a4,8(s8)
   143c4:	00168693          	addi	a3,a3,1
   143c8:	00dc3023          	sd	a3,0(s8)
   143cc:	fff7071b          	addiw	a4,a4,-1
   143d0:	00ec2423          	sw	a4,8(s8)
   143d4:	fff90913          	addi	s2,s2,-1
   143d8:	001a8a9b          	addiw	s5,s5,1
   143dc:	a00900e3          	beqz	s2,13ddc <__svfscanf_r+0x580>
   143e0:	fce046e3          	bgtz	a4,143ac <__svfscanf_r+0xb50>
   143e4:	000c0593          	mv	a1,s8
   143e8:	00048513          	mv	a0,s1
   143ec:	77d040ef          	jal	19368 <__srefill_r>
   143f0:	9e0516e3          	bnez	a0,13ddc <__svfscanf_r+0x580>
   143f4:	8281b503          	ld	a0,-2008(gp) # 243f8 <__ctype_ptr__>
   143f8:	000c3683          	ld	a3,0(s8)
   143fc:	fb1ff06f          	j	143ac <__svfscanf_r+0xb50>
   14400:	fff90713          	addi	a4,s2,-1
   14404:	15c00593          	li	a1,348
   14408:	00000e13          	li	t3,0
   1440c:	00e5f663          	bleu	a4,a1,14418 <__svfscanf_r+0xbbc>
   14410:	ea390e1b          	addiw	t3,s2,-349
   14414:	15d00913          	li	s2,349
   14418:	17010793          	addi	a5,sp,368
   1441c:	00001737          	lui	a4,0x1
   14420:	02f13823          	sd	a5,48(sp)
   14424:	d807071b          	addiw	a4,a4,-640
   14428:	00078d13          	mv	s10,a5
   1442c:	00021db7          	lui	s11,0x21
   14430:	000017b7          	lui	a5,0x1
   14434:	00eaeab3          	or	s5,s5,a4
   14438:	00000a13          	li	s4,0
   1443c:	d00d8d93          	addi	s11,s11,-768 # 20d00 <basefix.4147>
   14440:	80078c9b          	addiw	s9,a5,-2048
   14444:	fd56071b          	addiw	a4,a2,-43
   14448:	0ff77513          	andi	a0,a4,255
   1444c:	04d00593          	li	a1,77
   14450:	0aa5e063          	bltu	a1,a0,144f0 <__svfscanf_r+0xc94>
   14454:	01813783          	ld	a5,24(sp)
   14458:	0ff77713          	andi	a4,a4,255
   1445c:	00271713          	slli	a4,a4,0x2
   14460:	00f70733          	add	a4,a4,a5
   14464:	00072703          	lw	a4,0(a4) # 1000 <_ftext-0xf000>
   14468:	00070067          	jr	a4
   1446c:	600af713          	andi	a4,s5,1536
   14470:	20000593          	li	a1,512
   14474:	06b71e63          	bne	a4,a1,144f0 <__svfscanf_r+0xc94>
   14478:	dffafa93          	andi	s5,s5,-513
   1447c:	01000793          	li	a5,16
   14480:	500aea93          	ori	s5,s5,1280
   14484:	00f12823          	sw	a5,16(sp)
   14488:	00cd0023          	sb	a2,0(s10)
   1448c:	001d0d13          	addi	s10,s10,1
   14490:	008c2703          	lw	a4,8(s8)
   14494:	fff7071b          	addiw	a4,a4,-1
   14498:	00ec2423          	sw	a4,8(s8)
   1449c:	0ee05263          	blez	a4,14580 <__svfscanf_r+0xd24>
   144a0:	00168693          	addi	a3,a3,1
   144a4:	00dc3023          	sd	a3,0(s8)
   144a8:	fff90913          	addi	s2,s2,-1
   144ac:	04090263          	beqz	s2,144f0 <__svfscanf_r+0xc94>
   144b0:	000c3683          	ld	a3,0(s8)
   144b4:	0006c603          	lbu	a2,0(a3)
   144b8:	f8dff06f          	j	14444 <__svfscanf_r+0xbe8>
   144bc:	01012783          	lw	a5,16(sp)
   144c0:	00a00713          	li	a4,10
   144c4:	02f75663          	ble	a5,a4,144f0 <__svfscanf_r+0xc94>
   144c8:	04812783          	lw	a5,72(sp)
   144cc:	00fafab3          	and	s5,s5,a5
   144d0:	fb9ff06f          	j	14488 <__svfscanf_r+0xc2c>
   144d4:	01012703          	lw	a4,16(sp)
   144d8:	00171713          	slli	a4,a4,0x1
   144dc:	00ed8733          	add	a4,s11,a4
   144e0:	00071783          	lh	a5,0(a4)
   144e4:	00800713          	li	a4,8
   144e8:	00f12823          	sw	a5,16(sp)
   144ec:	fcf74ee3          	blt	a4,a5,144c8 <__svfscanf_r+0xc6c>
   144f0:	100af713          	andi	a4,s5,256
   144f4:	00070a63          	beqz	a4,14508 <__svfscanf_r+0xcac>
   144f8:	03013783          	ld	a5,48(sp)
   144fc:	21a7e663          	bltu	a5,s10,14708 <__svfscanf_r+0xeac>
   14500:	03013783          	ld	a5,48(sp)
   14504:	c8fd0663          	beq	s10,a5,13990 <__svfscanf_r+0x134>
   14508:	010af713          	andi	a4,s5,16
   1450c:	10070e63          	beqz	a4,14628 <__svfscanf_r+0xdcc>
   14510:	03013783          	ld	a5,48(sp)
   14514:	017a083b          	addw	a6,s4,s7
   14518:	40fd0cb3          	sub	s9,s10,a5
   1451c:	010c8bbb          	addw	s7,s9,a6
   14520:	be4ff06f          	j	13904 <__svfscanf_r+0xa8>
   14524:	01012703          	lw	a4,16(sp)
   14528:	00171713          	slli	a4,a4,0x1
   1452c:	00ed8733          	add	a4,s11,a4
   14530:	00071783          	lh	a5,0(a4)
   14534:	00f12823          	sw	a5,16(sp)
   14538:	04812783          	lw	a5,72(sp)
   1453c:	00fafab3          	and	s5,s5,a5
   14540:	f49ff06f          	j	14488 <__svfscanf_r+0xc2c>
   14544:	019af733          	and	a4,s5,s9
   14548:	f40700e3          	beqz	a4,14488 <__svfscanf_r+0xc2c>
   1454c:	01012783          	lw	a5,16(sp)
   14550:	00079863          	bnez	a5,14560 <__svfscanf_r+0xd04>
   14554:	00800793          	li	a5,8
   14558:	200aea93          	ori	s5,s5,512
   1455c:	00f12823          	sw	a5,16(sp)
   14560:	400af713          	andi	a4,s5,1024
   14564:	16070a63          	beqz	a4,146d8 <__svfscanf_r+0xe7c>
   14568:	a7fafa93          	andi	s5,s5,-1409
   1456c:	f1dff06f          	j	14488 <__svfscanf_r+0xc2c>
   14570:	080af713          	andi	a4,s5,128
   14574:	f6070ee3          	beqz	a4,144f0 <__svfscanf_r+0xc94>
   14578:	f7fafa93          	andi	s5,s5,-129
   1457c:	f0dff06f          	j	14488 <__svfscanf_r+0xc2c>
   14580:	000c0593          	mv	a1,s8
   14584:	00048513          	mv	a0,s1
   14588:	01c13423          	sd	t3,8(sp)
   1458c:	5dd040ef          	jal	19368 <__srefill_r>
   14590:	00813e03          	ld	t3,8(sp)
   14594:	f0050ae3          	beqz	a0,144a8 <__svfscanf_r+0xc4c>
   14598:	f59ff06f          	j	144f0 <__svfscanf_r+0xc94>
   1459c:	000b3c83          	ld	s9,0(s6)
   145a0:	008b0b13          	addi	s6,s6,8
   145a4:	012c8d33          	add	s10,s9,s2
   145a8:	000c8a93          	mv	s5,s9
   145ac:	0180006f          	j	145c4 <__svfscanf_r+0xd68>
   145b0:	000c3683          	ld	a3,0(s8)
   145b4:	8281b703          	ld	a4,-2008(gp) # 243f8 <__ctype_ptr__>
   145b8:	0006c603          	lbu	a2,0(a3)
   145bc:	00c70733          	add	a4,a4,a2
   145c0:	00174703          	lbu	a4,1(a4)
   145c4:	00877713          	andi	a4,a4,8
   145c8:	04071063          	bnez	a4,14608 <__svfscanf_r+0xdac>
   145cc:	008c2703          	lw	a4,8(s8)
   145d0:	00168613          	addi	a2,a3,1
   145d4:	00cc3023          	sd	a2,0(s8)
   145d8:	fff7071b          	addiw	a4,a4,-1
   145dc:	00ec2423          	sw	a4,8(s8)
   145e0:	0006c703          	lbu	a4,0(a3)
   145e4:	001a8a93          	addi	s5,s5,1
   145e8:	feea8fa3          	sb	a4,-1(s5)
   145ec:	035d0063          	beq	s10,s5,1460c <__svfscanf_r+0xdb0>
   145f0:	008c2703          	lw	a4,8(s8)
   145f4:	fae04ee3          	bgtz	a4,145b0 <__svfscanf_r+0xd54>
   145f8:	000c0593          	mv	a1,s8
   145fc:	00048513          	mv	a0,s1
   14600:	569040ef          	jal	19368 <__srefill_r>
   14604:	fa0506e3          	beqz	a0,145b0 <__svfscanf_r+0xd54>
   14608:	000a8d13          	mv	s10,s5
   1460c:	01412783          	lw	a5,20(sp)
   14610:	419d0cb3          	sub	s9,s10,s9
   14614:	000d0023          	sb	zero,0(s10)
   14618:	0017879b          	addiw	a5,a5,1
   1461c:	017c8bbb          	addw	s7,s9,s7
   14620:	00f12a23          	sw	a5,20(sp)
   14624:	ae0ff06f          	j	13904 <__svfscanf_r+0xa8>
   14628:	01012683          	lw	a3,16(sp)
   1462c:	03013583          	ld	a1,48(sp)
   14630:	02813783          	ld	a5,40(sp)
   14634:	00000613          	li	a2,0
   14638:	00048513          	mv	a0,s1
   1463c:	000d0023          	sb	zero,0(s10)
   14640:	000780e7          	jalr	a5
   14644:	020af713          	andi	a4,s5,32
   14648:	0c070c63          	beqz	a4,14720 <__svfscanf_r+0xec4>
   1464c:	000b3703          	ld	a4,0(s6)
   14650:	008b0b13          	addi	s6,s6,8
   14654:	00a73023          	sd	a0,0(a4)
   14658:	01412783          	lw	a5,20(sp)
   1465c:	0017879b          	addiw	a5,a5,1
   14660:	00f12a23          	sw	a5,20(sp)
   14664:	eadff06f          	j	14510 <__svfscanf_r+0xcb4>
   14668:	010af793          	andi	a5,s5,16
   1466c:	06810c93          	addi	s9,sp,104
   14670:	00800613          	li	a2,8
   14674:	00000593          	li	a1,0
   14678:	000c8513          	mv	a0,s9
   1467c:	00078a13          	mv	s4,a5
   14680:	00f12423          	sw	a5,8(sp)
   14684:	06410a93          	addi	s5,sp,100
   14688:	608030ef          	jal	17c90 <memset>
   1468c:	000a1663          	bnez	s4,14698 <__svfscanf_r+0xe3c>
   14690:	000b3a83          	ld	s5,0(s6)
   14694:	008b0b13          	addi	s6,s6,8
   14698:	00000a13          	li	s4,0
   1469c:	000c3603          	ld	a2,0(s8)
   146a0:	8281b683          	ld	a3,-2008(gp) # 243f8 <__ctype_ptr__>
   146a4:	00064603          	lbu	a2,0(a2)
   146a8:	00c686b3          	add	a3,a3,a2
   146ac:	0016c683          	lbu	a3,1(a3)
   146b0:	0086f693          	andi	a3,a3,8
   146b4:	00069463          	bnez	a3,146bc <__svfscanf_r+0xe60>
   146b8:	10091663          	bnez	s2,147c4 <__svfscanf_r+0xf68>
   146bc:	00812783          	lw	a5,8(sp)
   146c0:	a4079263          	bnez	a5,13904 <__svfscanf_r+0xa8>
   146c4:	01412783          	lw	a5,20(sp)
   146c8:	000aa023          	sw	zero,0(s5)
   146cc:	0017879b          	addiw	a5,a5,1
   146d0:	00f12a23          	sw	a5,20(sp)
   146d4:	a30ff06f          	j	13904 <__svfscanf_r+0xa8>
   146d8:	c7fafa93          	andi	s5,s5,-897
   146dc:	000e0663          	beqz	t3,146e8 <__svfscanf_r+0xe8c>
   146e0:	fffe0e1b          	addiw	t3,t3,-1
   146e4:	00190913          	addi	s2,s2,1
   146e8:	001a0a1b          	addiw	s4,s4,1
   146ec:	da5ff06f          	j	14490 <__svfscanf_r+0xc34>
   146f0:	87fa7a13          	andi	s4,s4,-1921
   146f4:	00100d13          	li	s10,1
   146f8:	9adff06f          	j	140a4 <__svfscanf_r+0x848>
   146fc:	87fa7a13          	andi	s4,s4,-1921
   14700:	00100c93          	li	s9,1
   14704:	9a1ff06f          	j	140a4 <__svfscanf_r+0x848>
   14708:	fffd4583          	lbu	a1,-1(s10)
   1470c:	000c0613          	mv	a2,s8
   14710:	00048513          	mv	a0,s1
   14714:	fffd0d13          	addi	s10,s10,-1
   14718:	5f0080ef          	jal	1cd08 <_ungetc_r>
   1471c:	de5ff06f          	j	14500 <__svfscanf_r+0xca4>
   14720:	004af713          	andi	a4,s5,4
   14724:	06070463          	beqz	a4,1478c <__svfscanf_r+0xf30>
   14728:	000b3703          	ld	a4,0(s6)
   1472c:	008b0b13          	addi	s6,s6,8
   14730:	00a71023          	sh	a0,0(a4)
   14734:	f25ff06f          	j	14658 <__svfscanf_r+0xdfc>
   14738:	03813783          	ld	a5,56(sp)
   1473c:	40fa8ab3          	sub	s5,s5,a5
   14740:	41500633          	neg	a2,s5
   14744:	b60a82e3          	beqz	s5,142a8 <__svfscanf_r+0xa4c>
   14748:	2b910713          	addi	a4,sp,697
   1474c:	00ede463          	bltu	s11,a4,14754 <__svfscanf_r+0xef8>
   14750:	2b810d93          	addi	s11,sp,696
   14754:	000225b7          	lui	a1,0x22
   14758:	ce058593          	addi	a1,a1,-800 # 21ce0 <zeroes.4123+0x6d0>
   1475c:	000d8513          	mv	a0,s11
   14760:	7fd040ef          	jal	1975c <sprintf>
   14764:	b45ff06f          	j	142a8 <__svfscanf_r+0xa4c>
   14768:	05813d83          	ld	s11,88(sp)
   1476c:	00000613          	li	a2,0
   14770:	00a00693          	li	a3,10
   14774:	001d8593          	addi	a1,s11,1
   14778:	00048513          	mv	a0,s1
   1477c:	4b0060ef          	jal	1ac2c <_strtol_r>
   14780:	05013783          	ld	a5,80(sp)
   14784:	40f50633          	sub	a2,a0,a5
   14788:	fc1ff06f          	j	14748 <__svfscanf_r+0xeec>
   1478c:	001afa93          	andi	s5,s5,1
   14790:	000b3703          	ld	a4,0(s6)
   14794:	008b0b13          	addi	s6,s6,8
   14798:	0c0a8063          	beqz	s5,14858 <__svfscanf_r+0xffc>
   1479c:	00a73023          	sd	a0,0(a4)
   147a0:	eb9ff06f          	j	14658 <__svfscanf_r+0xdfc>
   147a4:	008b0a93          	addi	s5,s6,8
   147a8:	000b3c83          	ld	s9,0(s6)
   147ac:	6c9040ef          	jal	19674 <__fpclassifyd>
   147b0:	18050063          	beqz	a0,14930 <__svfscanf_r+0x10d4>
   147b4:	40147453          	fcvt.s.d	fs0,fs0
   147b8:	000a8b13          	mv	s6,s5
   147bc:	008ca027          	fsw	fs0,0(s9)
   147c0:	b19ff06f          	j	142d8 <__svfscanf_r+0xa7c>
   147c4:	679020ef          	jal	1763c <__locale_mb_cur_max>
   147c8:	b2aa0663          	beq	s4,a0,13af4 <__svfscanf_r+0x298>
   147cc:	000c3683          	ld	a3,0(s8)
   147d0:	008c2603          	lw	a2,8(s8)
   147d4:	2d010793          	addi	a5,sp,720
   147d8:	0006cf03          	lbu	t5,0(a3)
   147dc:	fff6061b          	addiw	a2,a2,-1
   147e0:	00168693          	addi	a3,a3,1
   147e4:	001a0d1b          	addiw	s10,s4,1
   147e8:	01478eb3          	add	t4,a5,s4
   147ec:	00cc2423          	sw	a2,8(s8)
   147f0:	00dc3023          	sd	a3,0(s8)
   147f4:	000c8713          	mv	a4,s9
   147f8:	000d0693          	mv	a3,s10
   147fc:	17010613          	addi	a2,sp,368
   14800:	000a8593          	mv	a1,s5
   14804:	00048513          	mv	a0,s1
   14808:	ebee8023          	sb	t5,-352(t4)
   1480c:	020030ef          	jal	1782c <_mbrtowc_r>
   14810:	fff00793          	li	a5,-1
   14814:	aef50063          	beq	a0,a5,13af4 <__svfscanf_r+0x298>
   14818:	04051463          	bnez	a0,14860 <__svfscanf_r+0x1004>
   1481c:	000aa023          	sw	zero,0(s5)
   14820:	00000513          	li	a0,0
   14824:	565020ef          	jal	17588 <iswspace>
   14828:	06050263          	beqz	a0,1488c <__svfscanf_r+0x1030>
   1482c:	e80d08e3          	beqz	s10,146bc <__svfscanf_r+0xe60>
   14830:	fffd0d1b          	addiw	s10,s10,-1
   14834:	000d0713          	mv	a4,s10
   14838:	2d010793          	addi	a5,sp,720
   1483c:	00e78733          	add	a4,a5,a4
   14840:	ea074583          	lbu	a1,-352(a4)
   14844:	000c0613          	mv	a2,s8
   14848:	00048513          	mv	a0,s1
   1484c:	4bc080ef          	jal	1cd08 <_ungetc_r>
   14850:	fe0d10e3          	bnez	s10,14830 <__svfscanf_r+0xfd4>
   14854:	e69ff06f          	j	146bc <__svfscanf_r+0xe60>
   14858:	00a72023          	sw	a0,0(a4)
   1485c:	dfdff06f          	j	14658 <__svfscanf_r+0xdfc>
   14860:	ffe00793          	li	a5,-2
   14864:	000d0a13          	mv	s4,s10
   14868:	04f51263          	bne	a0,a5,148ac <__svfscanf_r+0x1050>
   1486c:	008c2683          	lw	a3,8(s8)
   14870:	e2d046e3          	bgtz	a3,1469c <__svfscanf_r+0xe40>
   14874:	000c0593          	mv	a1,s8
   14878:	00048513          	mv	a0,s1
   1487c:	2ed040ef          	jal	19368 <__srefill_r>
   14880:	e0050ee3          	beqz	a0,1469c <__svfscanf_r+0xe40>
   14884:	a60a1863          	bnez	s4,13af4 <__svfscanf_r+0x298>
   14888:	e35ff06f          	j	146bc <__svfscanf_r+0xe60>
   1488c:	00812783          	lw	a5,8(sp)
   14890:	01ab8bbb          	addw	s7,s7,s10
   14894:	fff90913          	addi	s2,s2,-1
   14898:	00000a13          	li	s4,0
   1489c:	fc0798e3          	bnez	a5,1486c <__svfscanf_r+0x1010>
   148a0:	004a8a93          	addi	s5,s5,4
   148a4:	00078a13          	mv	s4,a5
   148a8:	fc5ff06f          	j	1486c <__svfscanf_r+0x1010>
   148ac:	000aa503          	lw	a0,0(s5)
   148b0:	f75ff06f          	j	14824 <__svfscanf_r+0xfc8>
   148b4:	03013783          	ld	a5,48(sp)
   148b8:	8db7fc63          	bleu	s11,a5,13990 <__svfscanf_r+0x134>
   148bc:	fffd8d93          	addi	s11,s11,-1
   148c0:	000dc583          	lbu	a1,0(s11)
   148c4:	000c0613          	mv	a2,s8
   148c8:	00048513          	mv	a0,s1
   148cc:	43c080ef          	jal	1cd08 <_ungetc_r>
   148d0:	03013783          	ld	a5,48(sp)
   148d4:	fefd94e3          	bne	s11,a5,148bc <__svfscanf_r+0x1060>
   148d8:	8b8ff06f          	j	13990 <__svfscanf_r+0x134>
   148dc:	03013783          	ld	a5,48(sp)
   148e0:	8bb7f863          	bleu	s11,a5,13990 <__svfscanf_r+0x134>
   148e4:	fffd8d93          	addi	s11,s11,-1
   148e8:	000dc583          	lbu	a1,0(s11)
   148ec:	000c0613          	mv	a2,s8
   148f0:	00048513          	mv	a0,s1
   148f4:	414080ef          	jal	1cd08 <_ungetc_r>
   148f8:	03013783          	ld	a5,48(sp)
   148fc:	fefd94e3          	bne	s11,a5,148e4 <__svfscanf_r+0x1088>
   14900:	890ff06f          	j	13990 <__svfscanf_r+0x134>
   14904:	03013783          	ld	a5,48(sp)
   14908:	01b7e463          	bltu	a5,s11,14910 <__svfscanf_r+0x10b4>
   1490c:	884ff06f          	j	13990 <__svfscanf_r+0x134>
   14910:	fffd8d93          	addi	s11,s11,-1
   14914:	000dc583          	lbu	a1,0(s11)
   14918:	000c0613          	mv	a2,s8
   1491c:	00048513          	mv	a0,s1
   14920:	3e8080ef          	jal	1cd08 <_ungetc_r>
   14924:	03013783          	ld	a5,48(sp)
   14928:	fefd94e3          	bne	s11,a5,14910 <__svfscanf_r+0x10b4>
   1492c:	864ff06f          	j	13990 <__svfscanf_r+0x134>
   14930:	00000513          	li	a0,0
   14934:	535040ef          	jal	19668 <nanf>
   14938:	00aca027          	fsw	fa0,0(s9)
   1493c:	000a8b13          	mv	s6,s5
   14940:	999ff06f          	j	142d8 <__svfscanf_r+0xa7c>

0000000000014944 <vfscanf>:
   14944:	fd010113          	addi	sp,sp,-48
   14948:	02813023          	sd	s0,32(sp)
   1494c:	8101b403          	ld	s0,-2032(gp) # 243e0 <_impure_ptr>
   14950:	00913c23          	sd	s1,24(sp)
   14954:	02113423          	sd	ra,40(sp)
   14958:	00050493          	mv	s1,a0
   1495c:	00060693          	mv	a3,a2
   14960:	02040263          	beqz	s0,14984 <vfscanf+0x40>
   14964:	05042783          	lw	a5,80(s0)
   14968:	00079e63          	bnez	a5,14984 <vfscanf+0x40>
   1496c:	00040513          	mv	a0,s0
   14970:	00b13023          	sd	a1,0(sp)
   14974:	00c13423          	sd	a2,8(sp)
   14978:	719010ef          	jal	16890 <__sinit>
   1497c:	00813683          	ld	a3,8(sp)
   14980:	00013583          	ld	a1,0(sp)
   14984:	00058613          	mv	a2,a1
   14988:	00040513          	mv	a0,s0
   1498c:	00048593          	mv	a1,s1
   14990:	02813083          	ld	ra,40(sp)
   14994:	02013403          	ld	s0,32(sp)
   14998:	01813483          	ld	s1,24(sp)
   1499c:	03010113          	addi	sp,sp,48
   149a0:	ebdfe06f          	j	1385c <__svfscanf_r>

00000000000149a4 <__svfscanf>:
   149a4:	00060693          	mv	a3,a2
   149a8:	00058613          	mv	a2,a1
   149ac:	00050593          	mv	a1,a0
   149b0:	8101b503          	ld	a0,-2032(gp) # 243e0 <_impure_ptr>
   149b4:	ea9fe06f          	j	1385c <__svfscanf_r>

00000000000149b8 <_vfscanf_r>:
   149b8:	fd010113          	addi	sp,sp,-48
   149bc:	02813023          	sd	s0,32(sp)
   149c0:	02113423          	sd	ra,40(sp)
   149c4:	00050413          	mv	s0,a0
   149c8:	02050463          	beqz	a0,149f0 <_vfscanf_r+0x38>
   149cc:	05052783          	lw	a5,80(a0)
   149d0:	02079063          	bnez	a5,149f0 <_vfscanf_r+0x38>
   149d4:	00d13c23          	sd	a3,24(sp)
   149d8:	00c13823          	sd	a2,16(sp)
   149dc:	00b13423          	sd	a1,8(sp)
   149e0:	6b1010ef          	jal	16890 <__sinit>
   149e4:	01813683          	ld	a3,24(sp)
   149e8:	01013603          	ld	a2,16(sp)
   149ec:	00813583          	ld	a1,8(sp)
   149f0:	00040513          	mv	a0,s0
   149f4:	02813083          	ld	ra,40(sp)
   149f8:	02013403          	ld	s0,32(sp)
   149fc:	03010113          	addi	sp,sp,48
   14a00:	e5dfe06f          	j	1385c <__svfscanf_r>

0000000000014a04 <__swbuf_r>:
   14a04:	fd010113          	addi	sp,sp,-48
   14a08:	02813023          	sd	s0,32(sp)
   14a0c:	00913c23          	sd	s1,24(sp)
   14a10:	01313423          	sd	s3,8(sp)
   14a14:	02113423          	sd	ra,40(sp)
   14a18:	01213823          	sd	s2,16(sp)
   14a1c:	00050493          	mv	s1,a0
   14a20:	00058993          	mv	s3,a1
   14a24:	00060413          	mv	s0,a2
   14a28:	00050663          	beqz	a0,14a34 <__swbuf_r+0x30>
   14a2c:	05052783          	lw	a5,80(a0)
   14a30:	12078e63          	beqz	a5,14b6c <__swbuf_r+0x168>
   14a34:	01041683          	lh	a3,16(s0)
   14a38:	02842783          	lw	a5,40(s0)
   14a3c:	03069713          	slli	a4,a3,0x30
   14a40:	03075713          	srli	a4,a4,0x30
   14a44:	00f42623          	sw	a5,12(s0)
   14a48:	00877793          	andi	a5,a4,8
   14a4c:	0e078e63          	beqz	a5,14b48 <__swbuf_r+0x144>
   14a50:	01843783          	ld	a5,24(s0)
   14a54:	0e078a63          	beqz	a5,14b48 <__swbuf_r+0x144>
   14a58:	03271613          	slli	a2,a4,0x32
   14a5c:	0ff9f913          	andi	s2,s3,255
   14a60:	06065663          	bgez	a2,14acc <__swbuf_r+0xc8>
   14a64:	00043703          	ld	a4,0(s0)
   14a68:	02042683          	lw	a3,32(s0)
   14a6c:	40f707bb          	subw	a5,a4,a5
   14a70:	08d7d663          	ble	a3,a5,14afc <__swbuf_r+0xf8>
   14a74:	0017879b          	addiw	a5,a5,1
   14a78:	00c42683          	lw	a3,12(s0)
   14a7c:	00170613          	addi	a2,a4,1
   14a80:	00c43023          	sd	a2,0(s0)
   14a84:	fff6869b          	addiw	a3,a3,-1
   14a88:	00d42623          	sw	a3,12(s0)
   14a8c:	01370023          	sb	s3,0(a4)
   14a90:	02042703          	lw	a4,32(s0)
   14a94:	08f70263          	beq	a4,a5,14b18 <__swbuf_r+0x114>
   14a98:	01045783          	lhu	a5,16(s0)
   14a9c:	00090513          	mv	a0,s2
   14aa0:	0017f793          	andi	a5,a5,1
   14aa4:	00078663          	beqz	a5,14ab0 <__swbuf_r+0xac>
   14aa8:	00a00793          	li	a5,10
   14aac:	06f90663          	beq	s2,a5,14b18 <__swbuf_r+0x114>
   14ab0:	02813083          	ld	ra,40(sp)
   14ab4:	02013403          	ld	s0,32(sp)
   14ab8:	01813483          	ld	s1,24(sp)
   14abc:	01013903          	ld	s2,16(sp)
   14ac0:	00813983          	ld	s3,8(sp)
   14ac4:	03010113          	addi	sp,sp,48
   14ac8:	00008067          	ret
   14acc:	0ac42583          	lw	a1,172(s0)
   14ad0:	ffffe737          	lui	a4,0xffffe
   14ad4:	fff7071b          	addiw	a4,a4,-1
   14ad8:	00e5f733          	and	a4,a1,a4
   14adc:	00002637          	lui	a2,0x2
   14ae0:	00c6e6b3          	or	a3,a3,a2
   14ae4:	0ae42623          	sw	a4,172(s0)
   14ae8:	00043703          	ld	a4,0(s0)
   14aec:	00d41823          	sh	a3,16(s0)
   14af0:	02042683          	lw	a3,32(s0)
   14af4:	40f707bb          	subw	a5,a4,a5
   14af8:	f6d7cee3          	blt	a5,a3,14a74 <__swbuf_r+0x70>
   14afc:	00040593          	mv	a1,s0
   14b00:	00048513          	mv	a0,s1
   14b04:	1e1010ef          	jal	164e4 <_fflush_r>
   14b08:	06051663          	bnez	a0,14b74 <__swbuf_r+0x170>
   14b0c:	00043703          	ld	a4,0(s0)
   14b10:	00100793          	li	a5,1
   14b14:	f65ff06f          	j	14a78 <__swbuf_r+0x74>
   14b18:	00040593          	mv	a1,s0
   14b1c:	00048513          	mv	a0,s1
   14b20:	1c5010ef          	jal	164e4 <_fflush_r>
   14b24:	04051863          	bnez	a0,14b74 <__swbuf_r+0x170>
   14b28:	02813083          	ld	ra,40(sp)
   14b2c:	00090513          	mv	a0,s2
   14b30:	02013403          	ld	s0,32(sp)
   14b34:	01813483          	ld	s1,24(sp)
   14b38:	01013903          	ld	s2,16(sp)
   14b3c:	00813983          	ld	s3,8(sp)
   14b40:	03010113          	addi	sp,sp,48
   14b44:	00008067          	ret
   14b48:	00040593          	mv	a1,s0
   14b4c:	00048513          	mv	a0,s1
   14b50:	03c000ef          	jal	14b8c <__swsetup_r>
   14b54:	02051063          	bnez	a0,14b74 <__swbuf_r+0x170>
   14b58:	01041683          	lh	a3,16(s0)
   14b5c:	01843783          	ld	a5,24(s0)
   14b60:	03069713          	slli	a4,a3,0x30
   14b64:	03075713          	srli	a4,a4,0x30
   14b68:	ef1ff06f          	j	14a58 <__swbuf_r+0x54>
   14b6c:	525010ef          	jal	16890 <__sinit>
   14b70:	ec5ff06f          	j	14a34 <__swbuf_r+0x30>
   14b74:	fff00513          	li	a0,-1
   14b78:	f39ff06f          	j	14ab0 <__swbuf_r+0xac>

0000000000014b7c <__swbuf>:
   14b7c:	00058613          	mv	a2,a1
   14b80:	00050593          	mv	a1,a0
   14b84:	8101b503          	ld	a0,-2032(gp) # 243e0 <_impure_ptr>
   14b88:	e7dff06f          	j	14a04 <__swbuf_r>

0000000000014b8c <__swsetup_r>:
   14b8c:	8101b783          	ld	a5,-2032(gp) # 243e0 <_impure_ptr>
   14b90:	fe010113          	addi	sp,sp,-32
   14b94:	00813823          	sd	s0,16(sp)
   14b98:	00913423          	sd	s1,8(sp)
   14b9c:	00113c23          	sd	ra,24(sp)
   14ba0:	00050493          	mv	s1,a0
   14ba4:	00058413          	mv	s0,a1
   14ba8:	00078663          	beqz	a5,14bb4 <__swsetup_r+0x28>
   14bac:	0507a703          	lw	a4,80(a5) # 1050 <_ftext-0xefb0>
   14bb0:	0e070063          	beqz	a4,14c90 <__swsetup_r+0x104>
   14bb4:	01041703          	lh	a4,16(s0)
   14bb8:	03071793          	slli	a5,a4,0x30
   14bbc:	0307d793          	srli	a5,a5,0x30
   14bc0:	0087f693          	andi	a3,a5,8
   14bc4:	04068263          	beqz	a3,14c08 <__swsetup_r+0x7c>
   14bc8:	01843683          	ld	a3,24(s0)
   14bcc:	06068663          	beqz	a3,14c38 <__swsetup_r+0xac>
   14bd0:	0017f713          	andi	a4,a5,1
   14bd4:	08071463          	bnez	a4,14c5c <__swsetup_r+0xd0>
   14bd8:	0027f793          	andi	a5,a5,2
   14bdc:	00000713          	li	a4,0
   14be0:	00079463          	bnez	a5,14be8 <__swsetup_r+0x5c>
   14be4:	02042703          	lw	a4,32(s0)
   14be8:	00e42623          	sw	a4,12(s0)
   14bec:	00000513          	li	a0,0
   14bf0:	08068263          	beqz	a3,14c74 <__swsetup_r+0xe8>
   14bf4:	01813083          	ld	ra,24(sp)
   14bf8:	01013403          	ld	s0,16(sp)
   14bfc:	00813483          	ld	s1,8(sp)
   14c00:	02010113          	addi	sp,sp,32
   14c04:	00008067          	ret
   14c08:	0107f693          	andi	a3,a5,16
   14c0c:	0c068663          	beqz	a3,14cd8 <__swsetup_r+0x14c>
   14c10:	0047f793          	andi	a5,a5,4
   14c14:	08079463          	bnez	a5,14c9c <__swsetup_r+0x110>
   14c18:	01843683          	ld	a3,24(s0)
   14c1c:	00876793          	ori	a5,a4,8
   14c20:	0107979b          	slliw	a5,a5,0x10
   14c24:	4107d79b          	sraiw	a5,a5,0x10
   14c28:	00f41823          	sh	a5,16(s0)
   14c2c:	03079793          	slli	a5,a5,0x30
   14c30:	0307d793          	srli	a5,a5,0x30
   14c34:	f8069ee3          	bnez	a3,14bd0 <__swsetup_r+0x44>
   14c38:	2807f713          	andi	a4,a5,640
   14c3c:	20000613          	li	a2,512
   14c40:	f8c708e3          	beq	a4,a2,14bd0 <__swsetup_r+0x44>
   14c44:	00040593          	mv	a1,s0
   14c48:	00048513          	mv	a0,s1
   14c4c:	235020ef          	jal	17680 <__smakebuf_r>
   14c50:	01045783          	lhu	a5,16(s0)
   14c54:	01843683          	ld	a3,24(s0)
   14c58:	f79ff06f          	j	14bd0 <__swsetup_r+0x44>
   14c5c:	02042783          	lw	a5,32(s0)
   14c60:	00042623          	sw	zero,12(s0)
   14c64:	00000513          	li	a0,0
   14c68:	40f007bb          	negw	a5,a5
   14c6c:	02f42423          	sw	a5,40(s0)
   14c70:	f80692e3          	bnez	a3,14bf4 <__swsetup_r+0x68>
   14c74:	01041783          	lh	a5,16(s0)
   14c78:	0807f713          	andi	a4,a5,128
   14c7c:	f6070ce3          	beqz	a4,14bf4 <__swsetup_r+0x68>
   14c80:	0407e793          	ori	a5,a5,64
   14c84:	00f41823          	sh	a5,16(s0)
   14c88:	fff00513          	li	a0,-1
   14c8c:	f69ff06f          	j	14bf4 <__swsetup_r+0x68>
   14c90:	00078513          	mv	a0,a5
   14c94:	3fd010ef          	jal	16890 <__sinit>
   14c98:	f1dff06f          	j	14bb4 <__swsetup_r+0x28>
   14c9c:	05843583          	ld	a1,88(s0)
   14ca0:	00058e63          	beqz	a1,14cbc <__swsetup_r+0x130>
   14ca4:	07440793          	addi	a5,s0,116
   14ca8:	00f58863          	beq	a1,a5,14cb8 <__swsetup_r+0x12c>
   14cac:	00048513          	mv	a0,s1
   14cb0:	7a5010ef          	jal	16c54 <_free_r>
   14cb4:	01041703          	lh	a4,16(s0)
   14cb8:	04043c23          	sd	zero,88(s0)
   14cbc:	01843683          	ld	a3,24(s0)
   14cc0:	fdb77713          	andi	a4,a4,-37
   14cc4:	0107171b          	slliw	a4,a4,0x10
   14cc8:	4107571b          	sraiw	a4,a4,0x10
   14ccc:	00042423          	sw	zero,8(s0)
   14cd0:	00d43023          	sd	a3,0(s0)
   14cd4:	f49ff06f          	j	14c1c <__swsetup_r+0x90>
   14cd8:	00900793          	li	a5,9
   14cdc:	00f4a023          	sw	a5,0(s1)
   14ce0:	04076713          	ori	a4,a4,64
   14ce4:	00e41823          	sh	a4,16(s0)
   14ce8:	fff00513          	li	a0,-1
   14cec:	f09ff06f          	j	14bf4 <__swsetup_r+0x68>

0000000000014cf0 <__register_exitproc>:
   14cf0:	fd010113          	addi	sp,sp,-48
   14cf4:	02813023          	sd	s0,32(sp)
   14cf8:	8081b403          	ld	s0,-2040(gp) # 243d8 <_global_impure_ptr>
   14cfc:	00913c23          	sd	s1,24(sp)
   14d00:	00050493          	mv	s1,a0
   14d04:	1f843503          	ld	a0,504(s0)
   14d08:	01213823          	sd	s2,16(sp)
   14d0c:	01313423          	sd	s3,8(sp)
   14d10:	01413023          	sd	s4,0(sp)
   14d14:	02113423          	sd	ra,40(sp)
   14d18:	00058913          	mv	s2,a1
   14d1c:	00060a13          	mv	s4,a2
   14d20:	00068993          	mv	s3,a3
   14d24:	0c050463          	beqz	a0,14dec <__register_exitproc+0xfc>
   14d28:	00852703          	lw	a4,8(a0)
   14d2c:	01f00793          	li	a5,31
   14d30:	0017059b          	addiw	a1,a4,1
   14d34:	02e7de63          	ble	a4,a5,14d70 <__register_exitproc+0x80>
   14d38:	000117b7          	lui	a5,0x11
   14d3c:	cf478793          	addi	a5,a5,-780 # 10cf4 <malloc>
   14d40:	0a078c63          	beqz	a5,14df8 <__register_exitproc+0x108>
   14d44:	31800513          	li	a0,792
   14d48:	fadfb0ef          	jal	10cf4 <malloc>
   14d4c:	0a050663          	beqz	a0,14df8 <__register_exitproc+0x108>
   14d50:	1f843783          	ld	a5,504(s0)
   14d54:	00052423          	sw	zero,8(a0)
   14d58:	00100593          	li	a1,1
   14d5c:	00f53023          	sd	a5,0(a0)
   14d60:	1ea43c23          	sd	a0,504(s0)
   14d64:	30052823          	sw	zero,784(a0)
   14d68:	30052a23          	sw	zero,788(a0)
   14d6c:	00000713          	li	a4,0
   14d70:	00070793          	mv	a5,a4
   14d74:	02049e63          	bnez	s1,14db0 <__register_exitproc+0xc0>
   14d78:	00278793          	addi	a5,a5,2
   14d7c:	00379793          	slli	a5,a5,0x3
   14d80:	00b52423          	sw	a1,8(a0)
   14d84:	00f50533          	add	a0,a0,a5
   14d88:	01253023          	sd	s2,0(a0)
   14d8c:	00000513          	li	a0,0
   14d90:	02813083          	ld	ra,40(sp)
   14d94:	02013403          	ld	s0,32(sp)
   14d98:	01813483          	ld	s1,24(sp)
   14d9c:	01013903          	ld	s2,16(sp)
   14da0:	00813983          	ld	s3,8(sp)
   14da4:	00013a03          	ld	s4,0(sp)
   14da8:	03010113          	addi	sp,sp,48
   14dac:	00008067          	ret
   14db0:	00371813          	slli	a6,a4,0x3
   14db4:	01050833          	add	a6,a0,a6
   14db8:	11483823          	sd	s4,272(a6)
   14dbc:	31052883          	lw	a7,784(a0)
   14dc0:	00100613          	li	a2,1
   14dc4:	00e6173b          	sllw	a4,a2,a4
   14dc8:	00e8e633          	or	a2,a7,a4
   14dcc:	30c52823          	sw	a2,784(a0)
   14dd0:	21383823          	sd	s3,528(a6)
   14dd4:	00200693          	li	a3,2
   14dd8:	fad490e3          	bne	s1,a3,14d78 <__register_exitproc+0x88>
   14ddc:	31452683          	lw	a3,788(a0)
   14de0:	00e6e733          	or	a4,a3,a4
   14de4:	30e52a23          	sw	a4,788(a0)
   14de8:	f91ff06f          	j	14d78 <__register_exitproc+0x88>
   14dec:	20040513          	addi	a0,s0,512
   14df0:	1ea43c23          	sd	a0,504(s0)
   14df4:	f35ff06f          	j	14d28 <__register_exitproc+0x38>
   14df8:	fff00513          	li	a0,-1
   14dfc:	f95ff06f          	j	14d90 <__register_exitproc+0xa0>

0000000000014e00 <__call_exitprocs>:
   14e00:	fa010113          	addi	sp,sp,-96
   14e04:	03413823          	sd	s4,48(sp)
   14e08:	8081ba03          	ld	s4,-2040(gp) # 243d8 <_global_impure_ptr>
   14e0c:	03313c23          	sd	s3,56(sp)
   14e10:	000119b7          	lui	s3,0x11
   14e14:	04913423          	sd	s1,72(sp)
   14e18:	05213023          	sd	s2,64(sp)
   14e1c:	03513423          	sd	s5,40(sp)
   14e20:	01713c23          	sd	s7,24(sp)
   14e24:	01813823          	sd	s8,16(sp)
   14e28:	04113c23          	sd	ra,88(sp)
   14e2c:	04813823          	sd	s0,80(sp)
   14e30:	03613023          	sd	s6,32(sp)
   14e34:	01913423          	sd	s9,8(sp)
   14e38:	01a13023          	sd	s10,0(sp)
   14e3c:	00050913          	mv	s2,a0
   14e40:	00058b93          	mv	s7,a1
   14e44:	1f8a0a93          	addi	s5,s4,504
   14e48:	00100493          	li	s1,1
   14e4c:	fff00c13          	li	s8,-1
   14e50:	d0098993          	addi	s3,s3,-768 # 10d00 <free>
   14e54:	1f8a3b03          	ld	s6,504(s4)
   14e58:	0c0b0463          	beqz	s6,14f20 <__call_exitprocs+0x120>
   14e5c:	000a8d13          	mv	s10,s5
   14e60:	008b2403          	lw	s0,8(s6)
   14e64:	fff4041b          	addiw	s0,s0,-1
   14e68:	02045263          	bgez	s0,14e8c <__call_exitprocs+0x8c>
   14e6c:	08c0006f          	j	14ef8 <__call_exitprocs+0xf8>
   14e70:	02040793          	addi	a5,s0,32
   14e74:	00379793          	slli	a5,a5,0x3
   14e78:	00fb07b3          	add	a5,s6,a5
   14e7c:	1107b783          	ld	a5,272(a5)
   14e80:	00fb8a63          	beq	s7,a5,14e94 <__call_exitprocs+0x94>
   14e84:	fff4041b          	addiw	s0,s0,-1
   14e88:	07840863          	beq	s0,s8,14ef8 <__call_exitprocs+0xf8>
   14e8c:	00040713          	mv	a4,s0
   14e90:	fe0b90e3          	bnez	s7,14e70 <__call_exitprocs+0x70>
   14e94:	008b2783          	lw	a5,8(s6)
   14e98:	00371713          	slli	a4,a4,0x3
   14e9c:	00eb0733          	add	a4,s6,a4
   14ea0:	fff7879b          	addiw	a5,a5,-1
   14ea4:	01073683          	ld	a3,16(a4) # ffffffffffffe010 <_end+0xfffffffffffd7268>
   14ea8:	0a878c63          	beq	a5,s0,14f60 <__call_exitprocs+0x160>
   14eac:	00073823          	sd	zero,16(a4)
   14eb0:	fc068ae3          	beqz	a3,14e84 <__call_exitprocs+0x84>
   14eb4:	310b2783          	lw	a5,784(s6)
   14eb8:	0084963b          	sllw	a2,s1,s0
   14ebc:	008b2c83          	lw	s9,8(s6)
   14ec0:	00f677b3          	and	a5,a2,a5
   14ec4:	08078a63          	beqz	a5,14f58 <__call_exitprocs+0x158>
   14ec8:	314b2783          	lw	a5,788(s6)
   14ecc:	00f67633          	and	a2,a2,a5
   14ed0:	08061c63          	bnez	a2,14f68 <__call_exitprocs+0x168>
   14ed4:	11073583          	ld	a1,272(a4)
   14ed8:	00090513          	mv	a0,s2
   14edc:	000680e7          	jalr	a3
   14ee0:	008b2783          	lw	a5,8(s6)
   14ee4:	f79798e3          	bne	a5,s9,14e54 <__call_exitprocs+0x54>
   14ee8:	000d3783          	ld	a5,0(s10)
   14eec:	f76794e3          	bne	a5,s6,14e54 <__call_exitprocs+0x54>
   14ef0:	fff4041b          	addiw	s0,s0,-1
   14ef4:	f9841ce3          	bne	s0,s8,14e8c <__call_exitprocs+0x8c>
   14ef8:	02098463          	beqz	s3,14f20 <__call_exitprocs+0x120>
   14efc:	008b2783          	lw	a5,8(s6)
   14f00:	06079a63          	bnez	a5,14f74 <__call_exitprocs+0x174>
   14f04:	000b3783          	ld	a5,0(s6)
   14f08:	08078063          	beqz	a5,14f88 <__call_exitprocs+0x188>
   14f0c:	000b0513          	mv	a0,s6
   14f10:	00fd3023          	sd	a5,0(s10)
   14f14:	dedfb0ef          	jal	10d00 <free>
   14f18:	000d3b03          	ld	s6,0(s10)
   14f1c:	f40b12e3          	bnez	s6,14e60 <__call_exitprocs+0x60>
   14f20:	05813083          	ld	ra,88(sp)
   14f24:	05013403          	ld	s0,80(sp)
   14f28:	04813483          	ld	s1,72(sp)
   14f2c:	04013903          	ld	s2,64(sp)
   14f30:	03813983          	ld	s3,56(sp)
   14f34:	03013a03          	ld	s4,48(sp)
   14f38:	02813a83          	ld	s5,40(sp)
   14f3c:	02013b03          	ld	s6,32(sp)
   14f40:	01813b83          	ld	s7,24(sp)
   14f44:	01013c03          	ld	s8,16(sp)
   14f48:	00813c83          	ld	s9,8(sp)
   14f4c:	00013d03          	ld	s10,0(sp)
   14f50:	06010113          	addi	sp,sp,96
   14f54:	00008067          	ret
   14f58:	000680e7          	jalr	a3
   14f5c:	f85ff06f          	j	14ee0 <__call_exitprocs+0xe0>
   14f60:	008b2423          	sw	s0,8(s6)
   14f64:	f4dff06f          	j	14eb0 <__call_exitprocs+0xb0>
   14f68:	11073503          	ld	a0,272(a4)
   14f6c:	000680e7          	jalr	a3
   14f70:	f71ff06f          	j	14ee0 <__call_exitprocs+0xe0>
   14f74:	000b3783          	ld	a5,0(s6)
   14f78:	000b0d13          	mv	s10,s6
   14f7c:	00078b13          	mv	s6,a5
   14f80:	ee0b10e3          	bnez	s6,14e60 <__call_exitprocs+0x60>
   14f84:	f9dff06f          	j	14f20 <__call_exitprocs+0x120>
   14f88:	00000793          	li	a5,0
   14f8c:	fedff06f          	j	14f78 <__call_exitprocs+0x178>

0000000000014f90 <quorem>:
   14f90:	fc010113          	addi	sp,sp,-64
   14f94:	03213023          	sd	s2,32(sp)
   14f98:	01452783          	lw	a5,20(a0)
   14f9c:	0145a903          	lw	s2,20(a1)
   14fa0:	02113c23          	sd	ra,56(sp)
   14fa4:	02813823          	sd	s0,48(sp)
   14fa8:	02913423          	sd	s1,40(sp)
   14fac:	01313c23          	sd	s3,24(sp)
   14fb0:	01413823          	sd	s4,16(sp)
   14fb4:	01513423          	sd	s5,8(sp)
   14fb8:	1b27ce63          	blt	a5,s2,15174 <quorem+0x1e4>
   14fbc:	fff9091b          	addiw	s2,s2,-1
   14fc0:	00090f13          	mv	t5,s2
   14fc4:	002f1f13          	slli	t5,t5,0x2
   14fc8:	01858413          	addi	s0,a1,24
   14fcc:	01e409b3          	add	s3,s0,t5
   14fd0:	01850a13          	addi	s4,a0,24
   14fd4:	01ea0f33          	add	t5,s4,t5
   14fd8:	0009a783          	lw	a5,0(s3)
   14fdc:	000f2483          	lw	s1,0(t5)
   14fe0:	0017879b          	addiw	a5,a5,1
   14fe4:	02f4d4bb          	divuw	s1,s1,a5
   14fe8:	0a048e63          	beqz	s1,150a4 <quorem+0x114>
   14fec:	00010337          	lui	t1,0x10
   14ff0:	00040e93          	mv	t4,s0
   14ff4:	000a0e13          	mv	t3,s4
   14ff8:	00000613          	li	a2,0
   14ffc:	00000713          	li	a4,0
   15000:	fff3031b          	addiw	t1,t1,-1
   15004:	004e8e93          	addi	t4,t4,4
   15008:	ffcea803          	lw	a6,-4(t4)
   1500c:	000e2683          	lw	a3,0(t3)
   15010:	004e0e13          	addi	t3,t3,4
   15014:	006878b3          	and	a7,a6,t1
   15018:	029888bb          	mulw	a7,a7,s1
   1501c:	0108581b          	srliw	a6,a6,0x10
   15020:	0066f7b3          	and	a5,a3,t1
   15024:	0106d69b          	srliw	a3,a3,0x10
   15028:	0298083b          	mulw	a6,a6,s1
   1502c:	00c888bb          	addw	a7,a7,a2
   15030:	0108d61b          	srliw	a2,a7,0x10
   15034:	0068f8b3          	and	a7,a7,t1
   15038:	4117073b          	subw	a4,a4,a7
   1503c:	00f707bb          	addw	a5,a4,a5
   15040:	4107d71b          	sraiw	a4,a5,0x10
   15044:	0067f7b3          	and	a5,a5,t1
   15048:	00c8063b          	addw	a2,a6,a2
   1504c:	00667833          	and	a6,a2,t1
   15050:	410686bb          	subw	a3,a3,a6
   15054:	00e6873b          	addw	a4,a3,a4
   15058:	0107169b          	slliw	a3,a4,0x10
   1505c:	00f6e6b3          	or	a3,a3,a5
   15060:	fede2e23          	sw	a3,-4(t3)
   15064:	0106561b          	srliw	a2,a2,0x10
   15068:	4107571b          	sraiw	a4,a4,0x10
   1506c:	f9d9fce3          	bleu	t4,s3,15004 <quorem+0x74>
   15070:	000f2783          	lw	a5,0(t5)
   15074:	02079863          	bnez	a5,150a4 <quorem+0x114>
   15078:	ffcf0793          	addi	a5,t5,-4
   1507c:	02fa7263          	bleu	a5,s4,150a0 <quorem+0x110>
   15080:	ffcf2703          	lw	a4,-4(t5)
   15084:	00070863          	beqz	a4,15094 <quorem+0x104>
   15088:	0180006f          	j	150a0 <quorem+0x110>
   1508c:	0007a703          	lw	a4,0(a5)
   15090:	00071863          	bnez	a4,150a0 <quorem+0x110>
   15094:	ffc78793          	addi	a5,a5,-4
   15098:	fff9091b          	addiw	s2,s2,-1
   1509c:	fefa68e3          	bltu	s4,a5,1508c <quorem+0xfc>
   150a0:	01252a23          	sw	s2,20(a0)
   150a4:	00050a93          	mv	s5,a0
   150a8:	5bc030ef          	jal	18664 <__mcmp>
   150ac:	0a054063          	bltz	a0,1514c <quorem+0x1bc>
   150b0:	000105b7          	lui	a1,0x10
   150b4:	0014849b          	addiw	s1,s1,1
   150b8:	000a0613          	mv	a2,s4
   150bc:	00000793          	li	a5,0
   150c0:	fff5859b          	addiw	a1,a1,-1
   150c4:	00440413          	addi	s0,s0,4
   150c8:	ffc42683          	lw	a3,-4(s0)
   150cc:	00062703          	lw	a4,0(a2) # 2000 <_ftext-0xe000>
   150d0:	00460613          	addi	a2,a2,4
   150d4:	00b6f833          	and	a6,a3,a1
   150d8:	410787bb          	subw	a5,a5,a6
   150dc:	00b77833          	and	a6,a4,a1
   150e0:	010787bb          	addw	a5,a5,a6
   150e4:	0106d69b          	srliw	a3,a3,0x10
   150e8:	0107571b          	srliw	a4,a4,0x10
   150ec:	40d7073b          	subw	a4,a4,a3
   150f0:	4107d69b          	sraiw	a3,a5,0x10
   150f4:	00d706bb          	addw	a3,a4,a3
   150f8:	0106981b          	slliw	a6,a3,0x10
   150fc:	00b7f733          	and	a4,a5,a1
   15100:	00e86733          	or	a4,a6,a4
   15104:	fee62e23          	sw	a4,-4(a2)
   15108:	4106d79b          	sraiw	a5,a3,0x10
   1510c:	fa89fce3          	bleu	s0,s3,150c4 <quorem+0x134>
   15110:	00291713          	slli	a4,s2,0x2
   15114:	00ea0733          	add	a4,s4,a4
   15118:	00072783          	lw	a5,0(a4)
   1511c:	02079863          	bnez	a5,1514c <quorem+0x1bc>
   15120:	ffc70793          	addi	a5,a4,-4
   15124:	02fa7263          	bleu	a5,s4,15148 <quorem+0x1b8>
   15128:	ffc72703          	lw	a4,-4(a4)
   1512c:	00070863          	beqz	a4,1513c <quorem+0x1ac>
   15130:	0180006f          	j	15148 <quorem+0x1b8>
   15134:	0007a703          	lw	a4,0(a5)
   15138:	00071863          	bnez	a4,15148 <quorem+0x1b8>
   1513c:	ffc78793          	addi	a5,a5,-4
   15140:	fff9091b          	addiw	s2,s2,-1
   15144:	fefa68e3          	bltu	s4,a5,15134 <quorem+0x1a4>
   15148:	012aaa23          	sw	s2,20(s5)
   1514c:	00048513          	mv	a0,s1
   15150:	03813083          	ld	ra,56(sp)
   15154:	03013403          	ld	s0,48(sp)
   15158:	02813483          	ld	s1,40(sp)
   1515c:	02013903          	ld	s2,32(sp)
   15160:	01813983          	ld	s3,24(sp)
   15164:	01013a03          	ld	s4,16(sp)
   15168:	00813a83          	ld	s5,8(sp)
   1516c:	04010113          	addi	sp,sp,64
   15170:	00008067          	ret
   15174:	00000513          	li	a0,0
   15178:	fd9ff06f          	j	15150 <quorem+0x1c0>

000000000001517c <_dtoa_r>:
   1517c:	e20585d3          	fmv.x.d	a1,fa1
   15180:	06053883          	ld	a7,96(a0)
   15184:	f3010113          	addi	sp,sp,-208
   15188:	0c813023          	sd	s0,192(sp)
   1518c:	0a913c23          	sd	s1,184(sp)
   15190:	0b313423          	sd	s3,168(sp)
   15194:	09613823          	sd	s6,144(sp)
   15198:	07913c23          	sd	s9,120(sp)
   1519c:	07a13823          	sd	s10,112(sp)
   151a0:	0c113423          	sd	ra,200(sp)
   151a4:	0b213823          	sd	s2,176(sp)
   151a8:	0b413023          	sd	s4,160(sp)
   151ac:	09513c23          	sd	s5,152(sp)
   151b0:	09713423          	sd	s7,136(sp)
   151b4:	09813023          	sd	s8,128(sp)
   151b8:	07b13423          	sd	s11,104(sp)
   151bc:	00e13023          	sd	a4,0(sp)
   151c0:	00050413          	mv	s0,a0
   151c4:	00060993          	mv	s3,a2
   151c8:	00068c93          	mv	s9,a3
   151cc:	00078493          	mv	s1,a5
   151d0:	00080b13          	mv	s6,a6
   151d4:	00058d13          	mv	s10,a1
   151d8:	02088263          	beqz	a7,151fc <_dtoa_r+0x80>
   151dc:	06852603          	lw	a2,104(a0)
   151e0:	00100693          	li	a3,1
   151e4:	00088593          	mv	a1,a7
   151e8:	00c696bb          	sllw	a3,a3,a2
   151ec:	00c8a423          	sw	a2,8(a7)
   151f0:	00d8a623          	sw	a3,12(a7)
   151f4:	425020ef          	jal	17e18 <_Bfree>
   151f8:	06043023          	sd	zero,96(s0)
   151fc:	420d5913          	srai	s2,s10,0x20
   15200:	0c094063          	bltz	s2,152c0 <_dtoa_r+0x144>
   15204:	0004a023          	sw	zero,0(s1)
   15208:	7ff007b7          	lui	a5,0x7ff00
   1520c:	00f976b3          	and	a3,s2,a5
   15210:	06f68a63          	beq	a3,a5,15284 <_dtoa_r+0x108>
   15214:	f20007d3          	fmv.d.x	fa5,zero
   15218:	f20d0753          	fmv.d.x	fa4,s10
   1521c:	a2f727d3          	feq.d	a5,fa4,fa5
   15220:	0c078463          	beqz	a5,152e8 <_dtoa_r+0x16c>
   15224:	00013703          	ld	a4,0(sp)
   15228:	00100793          	li	a5,1
   1522c:	00f72023          	sw	a5,0(a4)
   15230:	480b0a63          	beqz	s6,156c4 <_dtoa_r+0x548>
   15234:	000227b7          	lui	a5,0x22
   15238:	cd978793          	addi	a5,a5,-807 # 21cd9 <zeroes.4123+0x6c9>
   1523c:	00022537          	lui	a0,0x22
   15240:	00fb3023          	sd	a5,0(s6)
   15244:	cd850513          	addi	a0,a0,-808 # 21cd8 <zeroes.4123+0x6c8>
   15248:	0c813083          	ld	ra,200(sp)
   1524c:	0c013403          	ld	s0,192(sp)
   15250:	0b813483          	ld	s1,184(sp)
   15254:	0b013903          	ld	s2,176(sp)
   15258:	0a813983          	ld	s3,168(sp)
   1525c:	0a013a03          	ld	s4,160(sp)
   15260:	09813a83          	ld	s5,152(sp)
   15264:	09013b03          	ld	s6,144(sp)
   15268:	08813b83          	ld	s7,136(sp)
   1526c:	08013c03          	ld	s8,128(sp)
   15270:	07813c83          	ld	s9,120(sp)
   15274:	07013d03          	ld	s10,112(sp)
   15278:	06813d83          	ld	s11,104(sp)
   1527c:	0d010113          	addi	sp,sp,208
   15280:	00008067          	ret
   15284:	00013703          	ld	a4,0(sp)
   15288:	000027b7          	lui	a5,0x2
   1528c:	70f7879b          	addiw	a5,a5,1807
   15290:	00f72023          	sw	a5,0(a4)
   15294:	00cd1793          	slli	a5,s10,0xc
   15298:	3e079863          	bnez	a5,15688 <_dtoa_r+0x50c>
   1529c:	00022537          	lui	a0,0x22
   152a0:	ce850513          	addi	a0,a0,-792 # 21ce8 <zeroes.4123+0x6d8>
   152a4:	fa0b02e3          	beqz	s6,15248 <_dtoa_r+0xcc>
   152a8:	00354703          	lbu	a4,3(a0)
   152ac:	00350793          	addi	a5,a0,3
   152b0:	00070463          	beqz	a4,152b8 <_dtoa_r+0x13c>
   152b4:	00850793          	addi	a5,a0,8
   152b8:	00fb3023          	sd	a5,0(s6)
   152bc:	f8dff06f          	j	15248 <_dtoa_r+0xcc>
   152c0:	800007b7          	lui	a5,0x80000
   152c4:	fff7c793          	not	a5,a5
   152c8:	020d1713          	slli	a4,s10,0x20
   152cc:	00f97933          	and	s2,s2,a5
   152d0:	02091793          	slli	a5,s2,0x20
   152d4:	02075713          	srli	a4,a4,0x20
   152d8:	00100693          	li	a3,1
   152dc:	00d4a023          	sw	a3,0(s1)
   152e0:	00f76d33          	or	s10,a4,a5
   152e4:	f25ff06f          	j	15208 <_dtoa_r+0x8c>
   152e8:	f20d05d3          	fmv.d.x	fa1,s10
   152ec:	05810693          	addi	a3,sp,88
   152f0:	05c10613          	addi	a2,sp,92
   152f4:	00040513          	mv	a0,s0
   152f8:	7ac030ef          	jal	18aa4 <__d2b>
   152fc:	02a13023          	sd	a0,32(sp)
   15300:	0149581b          	srliw	a6,s2,0x14
   15304:	38081863          	bnez	a6,15694 <_dtoa_r+0x518>
   15308:	05812603          	lw	a2,88(sp)
   1530c:	05c12803          	lw	a6,92(sp)
   15310:	02000793          	li	a5,32
   15314:	0106083b          	addw	a6,a2,a6
   15318:	4328069b          	addiw	a3,a6,1074
   1531c:	6ad7de63          	ble	a3,a5,159d8 <_dtoa_r+0x85c>
   15320:	04000593          	li	a1,64
   15324:	4128049b          	addiw	s1,a6,1042
   15328:	000d079b          	sext.w	a5,s10
   1532c:	40d585bb          	subw	a1,a1,a3
   15330:	0097d7bb          	srlw	a5,a5,s1
   15334:	00b914bb          	sllw	s1,s2,a1
   15338:	0097e4b3          	or	s1,a5,s1
   1533c:	d21487d3          	fcvt.d.wu	fa5,s1
   15340:	fe1006b7          	lui	a3,0xfe100
   15344:	fff8081b          	addiw	a6,a6,-1
   15348:	e20784d3          	fmv.x.d	s1,fa5
   1534c:	00100913          	li	s2,1
   15350:	4204d793          	srai	a5,s1,0x20
   15354:	00d787bb          	addw	a5,a5,a3
   15358:	02049493          	slli	s1,s1,0x20
   1535c:	02079793          	slli	a5,a5,0x20
   15360:	0204d493          	srli	s1,s1,0x20
   15364:	00f4e4b3          	or	s1,s1,a5
   15368:	000247b7          	lui	a5,0x24
   1536c:	4307b787          	fld	fa5,1072(a5) # 24430 <mask+0x8>
   15370:	f2048753          	fmv.d.x	fa4,s1
   15374:	000247b7          	lui	a5,0x24
   15378:	0af77653          	fsub.d	fa2,fa4,fa5
   1537c:	4407b787          	fld	fa5,1088(a5) # 24440 <mask+0x18>
   15380:	000247b7          	lui	a5,0x24
   15384:	4387b687          	fld	fa3,1080(a5) # 24438 <mask+0x10>
   15388:	000247b7          	lui	a5,0x24
   1538c:	d2080753          	fcvt.d.w	fa4,a6
   15390:	7ad677c3          	fmadd.d	fa5,fa2,fa3,fa5
   15394:	4487b687          	fld	fa3,1096(a5) # 24448 <mask+0x20>
   15398:	7ad777c3          	fmadd.d	fa5,fa4,fa3,fa5
   1539c:	f2000753          	fmv.d.x	fa4,zero
   153a0:	a2e797d3          	flt.d	a5,fa5,fa4
   153a4:	c2079bd3          	fcvt.w.d	s7,fa5,rtz
   153a8:	5e079e63          	bnez	a5,159a4 <_dtoa_r+0x828>
   153ac:	00100793          	li	a5,1
   153b0:	02f12823          	sw	a5,48(sp)
   153b4:	01600793          	li	a5,22
   153b8:	0377e663          	bltu	a5,s7,153e4 <_dtoa_r+0x268>
   153bc:	000217b7          	lui	a5,0x21
   153c0:	003b9693          	slli	a3,s7,0x3
   153c4:	e4078793          	addi	a5,a5,-448 # 20e40 <__mprec_tens>
   153c8:	00f687b3          	add	a5,a3,a5
   153cc:	0007b787          	fld	fa5,0(a5)
   153d0:	f20d0753          	fmv.d.x	fa4,s10
   153d4:	a2f717d3          	flt.d	a5,fa4,fa5
   153d8:	60078863          	beqz	a5,159e8 <_dtoa_r+0x86c>
   153dc:	fffb8b9b          	addiw	s7,s7,-1
   153e0:	02012823          	sw	zero,48(sp)
   153e4:	4106083b          	subw	a6,a2,a6
   153e8:	fff80d9b          	addiw	s11,a6,-1
   153ec:	00000813          	li	a6,0
   153f0:	2e0dc063          	bltz	s11,156d0 <_dtoa_r+0x554>
   153f4:	5c0bc263          	bltz	s7,159b8 <_dtoa_r+0x83c>
   153f8:	017d8dbb          	addw	s11,s11,s7
   153fc:	03712423          	sw	s7,40(sp)
   15400:	00000c13          	li	s8,0
   15404:	00900793          	li	a5,9
   15408:	2d37ea63          	bltu	a5,s3,156dc <_dtoa_r+0x560>
   1540c:	00500793          	li	a5,5
   15410:	00100a13          	li	s4,1
   15414:	0137d663          	ble	s3,a5,15420 <_dtoa_r+0x2a4>
   15418:	ffc9899b          	addiw	s3,s3,-4
   1541c:	00000a13          	li	s4,0
   15420:	00300793          	li	a5,3
   15424:	2af982e3          	beq	s3,a5,15ec8 <_dtoa_r+0xd4c>
   15428:	1f37dce3          	ble	s3,a5,15e20 <_dtoa_r+0xca4>
   1542c:	00400793          	li	a5,4
   15430:	0cf98ae3          	beq	s3,a5,15d04 <_dtoa_r+0xb88>
   15434:	00100793          	li	a5,1
   15438:	00f12823          	sw	a5,16(sp)
   1543c:	00500793          	li	a5,5
   15440:	1ef996e3          	bne	s3,a5,15e2c <_dtoa_r+0xcb0>
   15444:	019b87bb          	addw	a5,s7,s9
   15448:	00178a9b          	addiw	s5,a5,1
   1544c:	02f12a23          	sw	a5,52(sp)
   15450:	000a8513          	mv	a0,s5
   15454:	000a8493          	mv	s1,s5
   15458:	1b505ee3          	blez	s5,15e14 <_dtoa_r+0xc98>
   1545c:	06042423          	sw	zero,104(s0)
   15460:	01f00793          	li	a5,31
   15464:	00000593          	li	a1,0
   15468:	02a7f463          	bleu	a0,a5,15490 <_dtoa_r+0x314>
   1546c:	00100613          	li	a2,1
   15470:	00400693          	li	a3,4
   15474:	0016969b          	slliw	a3,a3,0x1
   15478:	00068793          	mv	a5,a3
   1547c:	01c78793          	addi	a5,a5,28
   15480:	00060593          	mv	a1,a2
   15484:	0016061b          	addiw	a2,a2,1
   15488:	fef576e3          	bleu	a5,a0,15474 <_dtoa_r+0x2f8>
   1548c:	06b42423          	sw	a1,104(s0)
   15490:	00040513          	mv	a0,s0
   15494:	03013c23          	sd	a6,56(sp)
   15498:	0d5020ef          	jal	17d6c <_Balloc>
   1549c:	00a13423          	sd	a0,8(sp)
   154a0:	06a43023          	sd	a0,96(s0)
   154a4:	00e00793          	li	a5,14
   154a8:	03813803          	ld	a6,56(sp)
   154ac:	2697e463          	bltu	a5,s1,15714 <_dtoa_r+0x598>
   154b0:	260a0263          	beqz	s4,15714 <_dtoa_r+0x598>
   154b4:	03a13c23          	sd	s10,56(sp)
   154b8:	317054e3          	blez	s7,15fc0 <_dtoa_r+0xe44>
   154bc:	00fbf713          	andi	a4,s7,15
   154c0:	00371693          	slli	a3,a4,0x3
   154c4:	00021737          	lui	a4,0x21
   154c8:	404bd79b          	sraiw	a5,s7,0x4
   154cc:	e4070713          	addi	a4,a4,-448 # 20e40 <__mprec_tens>
   154d0:	00e68733          	add	a4,a3,a4
   154d4:	0107f693          	andi	a3,a5,16
   154d8:	00073687          	fld	fa3,0(a4)
   154dc:	f20d07d3          	fmv.d.x	fa5,s10
   154e0:	00200713          	li	a4,2
   154e4:	00068c63          	beqz	a3,154fc <_dtoa_r+0x380>
   154e8:	00021737          	lui	a4,0x21
   154ec:	f5073707          	fld	fa4,-176(a4) # 20f50 <__mprec_bigtens+0x20>
   154f0:	00f7f793          	andi	a5,a5,15
   154f4:	00300713          	li	a4,3
   154f8:	1ae7f7d3          	fdiv.d	fa5,fa5,fa4
   154fc:	02078663          	beqz	a5,15528 <_dtoa_r+0x3ac>
   15500:	000216b7          	lui	a3,0x21
   15504:	f3068693          	addi	a3,a3,-208 # 20f30 <__mprec_bigtens>
   15508:	0017f613          	andi	a2,a5,1
   1550c:	4017d79b          	sraiw	a5,a5,0x1
   15510:	00060863          	beqz	a2,15520 <_dtoa_r+0x3a4>
   15514:	0006b707          	fld	fa4,0(a3)
   15518:	0017071b          	addiw	a4,a4,1
   1551c:	12e6f6d3          	fmul.d	fa3,fa3,fa4
   15520:	00868693          	addi	a3,a3,8
   15524:	fe0792e3          	bnez	a5,15508 <_dtoa_r+0x38c>
   15528:	1ad7f7d3          	fdiv.d	fa5,fa5,fa3
   1552c:	03012783          	lw	a5,48(sp)
   15530:	00078a63          	beqz	a5,15544 <_dtoa_r+0x3c8>
   15534:	000247b7          	lui	a5,0x24
   15538:	4507b707          	fld	fa4,1104(a5) # 24450 <mask+0x28>
   1553c:	a2e797d3          	flt.d	a5,fa5,fa4
   15540:	440790e3          	bnez	a5,16180 <_dtoa_r+0x1004>
   15544:	000247b7          	lui	a5,0x24
   15548:	d20706d3          	fcvt.d.w	fa3,a4
   1554c:	4607b707          	fld	fa4,1120(a5) # 24460 <mask+0x38>
   15550:	fcc006b7          	lui	a3,0xfcc00
   15554:	72f6f743          	fmadd.d	fa4,fa3,fa5,fa4
   15558:	e2070753          	fmv.x.d	a4,fa4
   1555c:	42075793          	srai	a5,a4,0x20
   15560:	00d787bb          	addw	a5,a5,a3
   15564:	02071713          	slli	a4,a4,0x20
   15568:	02079793          	slli	a5,a5,0x20
   1556c:	02075713          	srli	a4,a4,0x20
   15570:	00f76733          	or	a4,a4,a5
   15574:	180a86e3          	beqz	s5,15f00 <_dtoa_r+0xd84>
   15578:	000b8693          	mv	a3,s7
   1557c:	000a8613          	mv	a2,s5
   15580:	01012783          	lw	a5,16(sp)
   15584:	300782e3          	beqz	a5,16088 <_dtoa_r+0xf0c>
   15588:	fff6079b          	addiw	a5,a2,-1
   1558c:	000215b7          	lui	a1,0x21
   15590:	e4058593          	addi	a1,a1,-448 # 20e40 <__mprec_tens>
   15594:	00379793          	slli	a5,a5,0x3
   15598:	00b787b3          	add	a5,a5,a1
   1559c:	000245b7          	lui	a1,0x24
   155a0:	0007b687          	fld	fa3,0(a5)
   155a4:	4705b707          	fld	fa4,1136(a1) # 24470 <mask+0x48>
   155a8:	c20797d3          	fcvt.w.d	a5,fa5,rtz
   155ac:	00813503          	ld	a0,8(sp)
   155b0:	1ad77753          	fdiv.d	fa4,fa4,fa3
   155b4:	d20786d3          	fcvt.d.w	fa3,a5
   155b8:	0307879b          	addiw	a5,a5,48
   155bc:	0ff7f793          	andi	a5,a5,255
   155c0:	0ad7f7d3          	fsub.d	fa5,fa5,fa3
   155c4:	f20706d3          	fmv.d.x	fa3,a4
   155c8:	00f50023          	sb	a5,0(a0)
   155cc:	00150493          	addi	s1,a0,1
   155d0:	0ad77753          	fsub.d	fa4,fa4,fa3
   155d4:	a2e79753          	flt.d	a4,fa5,fa4
   155d8:	08071063          	bnez	a4,15658 <_dtoa_r+0x4dc>
   155dc:	00024737          	lui	a4,0x24
   155e0:	45073587          	fld	fa1,1104(a4) # 24450 <mask+0x28>
   155e4:	0af5f6d3          	fsub.d	fa3,fa1,fa5
   155e8:	a2e69753          	flt.d	a4,fa3,fa4
   155ec:	40071ae3          	bnez	a4,16200 <_dtoa_r+0x1084>
   155f0:	00100793          	li	a5,1
   155f4:	1ac7d4e3          	ble	a2,a5,15f9c <_dtoa_r+0xe20>
   155f8:	000247b7          	lui	a5,0x24
   155fc:	ffe6061b          	addiw	a2,a2,-2
   15600:	02061613          	slli	a2,a2,0x20
   15604:	4587b607          	fld	fa2,1112(a5) # 24458 <mask+0x30>
   15608:	00813783          	ld	a5,8(sp)
   1560c:	02065613          	srli	a2,a2,0x20
   15610:	00260613          	addi	a2,a2,2
   15614:	00c78633          	add	a2,a5,a2
   15618:	0140006f          	j	1562c <_dtoa_r+0x4b0>
   1561c:	0af5f6d3          	fsub.d	fa3,fa1,fa5
   15620:	a2e69753          	flt.d	a4,fa3,fa4
   15624:	3c071ee3          	bnez	a4,16200 <_dtoa_r+0x1084>
   15628:	16960ae3          	beq	a2,s1,15f9c <_dtoa_r+0xe20>
   1562c:	12c7f7d3          	fmul.d	fa5,fa5,fa2
   15630:	12c77753          	fmul.d	fa4,fa4,fa2
   15634:	00148493          	addi	s1,s1,1
   15638:	c20797d3          	fcvt.w.d	a5,fa5,rtz
   1563c:	d20786d3          	fcvt.d.w	fa3,a5
   15640:	0307879b          	addiw	a5,a5,48
   15644:	0ff7f793          	andi	a5,a5,255
   15648:	0ad7f7d3          	fsub.d	fa5,fa5,fa3
   1564c:	fef48fa3          	sb	a5,-1(s1)
   15650:	a2e79753          	flt.d	a4,fa5,fa4
   15654:	fc0704e3          	beqz	a4,1561c <_dtoa_r+0x4a0>
   15658:	00068b93          	mv	s7,a3
   1565c:	02013583          	ld	a1,32(sp)
   15660:	00040513          	mv	a0,s0
   15664:	001b8b9b          	addiw	s7,s7,1
   15668:	7b0020ef          	jal	17e18 <_Bfree>
   1566c:	00013783          	ld	a5,0(sp)
   15670:	00048023          	sb	zero,0(s1)
   15674:	0177a023          	sw	s7,0(a5)
   15678:	0c0b0ce3          	beqz	s6,15f50 <_dtoa_r+0xdd4>
   1567c:	009b3023          	sd	s1,0(s6)
   15680:	00813503          	ld	a0,8(sp)
   15684:	bc5ff06f          	j	15248 <_dtoa_r+0xcc>
   15688:	00022537          	lui	a0,0x22
   1568c:	cf850513          	addi	a0,a0,-776 # 21cf8 <zeroes.4123+0x6e8>
   15690:	c15ff06f          	j	152a4 <_dtoa_r+0x128>
   15694:	00cd1793          	slli	a5,s10,0xc
   15698:	02c7d693          	srli	a3,a5,0x2c
   1569c:	3ff007b7          	lui	a5,0x3ff00
   156a0:	00f6e7b3          	or	a5,a3,a5
   156a4:	020d1493          	slli	s1,s10,0x20
   156a8:	02079793          	slli	a5,a5,0x20
   156ac:	0204d493          	srli	s1,s1,0x20
   156b0:	00f4e4b3          	or	s1,s1,a5
   156b4:	c018081b          	addiw	a6,a6,-1023
   156b8:	05812603          	lw	a2,88(sp)
   156bc:	00000913          	li	s2,0
   156c0:	ca9ff06f          	j	15368 <_dtoa_r+0x1ec>
   156c4:	00022537          	lui	a0,0x22
   156c8:	cd850513          	addi	a0,a0,-808 # 21cd8 <zeroes.4123+0x6c8>
   156cc:	b7dff06f          	j	15248 <_dtoa_r+0xcc>
   156d0:	41b0083b          	negw	a6,s11
   156d4:	00000d93          	li	s11,0
   156d8:	d1dff06f          	j	153f4 <_dtoa_r+0x278>
   156dc:	06042423          	sw	zero,104(s0)
   156e0:	00000593          	li	a1,0
   156e4:	00040513          	mv	a0,s0
   156e8:	03013c23          	sd	a6,56(sp)
   156ec:	680020ef          	jal	17d6c <_Balloc>
   156f0:	03813803          	ld	a6,56(sp)
   156f4:	fff00a93          	li	s5,-1
   156f8:	00100793          	li	a5,1
   156fc:	00a13423          	sd	a0,8(sp)
   15700:	06a43023          	sd	a0,96(s0)
   15704:	03512a23          	sw	s5,52(sp)
   15708:	00000993          	li	s3,0
   1570c:	00000c93          	li	s9,0
   15710:	00f12823          	sw	a5,16(sp)
   15714:	05c12783          	lw	a5,92(sp)
   15718:	0e07ca63          	bltz	a5,1580c <_dtoa_r+0x690>
   1571c:	00e00693          	li	a3,14
   15720:	0f76c663          	blt	a3,s7,1580c <_dtoa_r+0x690>
   15724:	000217b7          	lui	a5,0x21
   15728:	003b9693          	slli	a3,s7,0x3
   1572c:	e4078793          	addi	a5,a5,-448 # 20e40 <__mprec_tens>
   15730:	00f687b3          	add	a5,a3,a5
   15734:	0007b687          	fld	fa3,0(a5)
   15738:	5e0cc663          	bltz	s9,15d24 <_dtoa_r+0xba8>
   1573c:	f20d0653          	fmv.d.x	fa2,s10
   15740:	00813703          	ld	a4,8(sp)
   15744:	22d69553          	fneg.d	fa0,fa3
   15748:	1ad67753          	fdiv.d	fa4,fa2,fa3
   1574c:	00170493          	addi	s1,a4,1
   15750:	c20717d3          	fcvt.w.d	a5,fa4,rtz
   15754:	d20787d3          	fcvt.d.w	fa5,a5
   15758:	0307869b          	addiw	a3,a5,48
   1575c:	00d70023          	sb	a3,0(a4)
   15760:	00100713          	li	a4,1
   15764:	62f577c3          	fmadd.d	fa5,fa0,fa5,fa2
   15768:	2aea88e3          	beq	s5,a4,16218 <_dtoa_r+0x109c>
   1576c:	000247b7          	lui	a5,0x24
   15770:	4587b587          	fld	fa1,1112(a5) # 24458 <mask+0x30>
   15774:	f2000653          	fmv.d.x	fa2,zero
   15778:	12b7f7d3          	fmul.d	fa5,fa5,fa1
   1577c:	a2c7a7d3          	feq.d	a5,fa5,fa2
   15780:	ec079ee3          	bnez	a5,1565c <_dtoa_r+0x4e0>
   15784:	ffea869b          	addiw	a3,s5,-2
   15788:	02069693          	slli	a3,a3,0x20
   1578c:	00813783          	ld	a5,8(sp)
   15790:	0206d693          	srli	a3,a3,0x20
   15794:	00268693          	addi	a3,a3,2 # fffffffffcc00002 <_end+0xfffffffffcbd925a>
   15798:	00d786b3          	add	a3,a5,a3
   1579c:	0100006f          	j	157ac <_dtoa_r+0x630>
   157a0:	12b7f7d3          	fmul.d	fa5,fa5,fa1
   157a4:	a2c7a7d3          	feq.d	a5,fa5,fa2
   157a8:	ea079ae3          	bnez	a5,1565c <_dtoa_r+0x4e0>
   157ac:	1ad7f753          	fdiv.d	fa4,fa5,fa3
   157b0:	00148493          	addi	s1,s1,1
   157b4:	c20717d3          	fcvt.w.d	a5,fa4,rtz
   157b8:	d2078753          	fcvt.d.w	fa4,a5
   157bc:	0307871b          	addiw	a4,a5,48
   157c0:	fee48fa3          	sb	a4,-1(s1)
   157c4:	7ae577c3          	fmadd.d	fa5,fa0,fa4,fa5
   157c8:	fcd49ce3          	bne	s1,a3,157a0 <_dtoa_r+0x624>
   157cc:	02f7f7d3          	fadd.d	fa5,fa5,fa5
   157d0:	a2f69753          	flt.d	a4,fa3,fa5
   157d4:	7c070863          	beqz	a4,15fa4 <_dtoa_r+0xe28>
   157d8:	fff6c783          	lbu	a5,-1(a3)
   157dc:	00068493          	mv	s1,a3
   157e0:	03900693          	li	a3,57
   157e4:	0140006f          	j	157f8 <_dtoa_r+0x67c>
   157e8:	00813783          	ld	a5,8(sp)
   157ec:	02f70ce3          	beq	a4,a5,16024 <_dtoa_r+0xea8>
   157f0:	fff74783          	lbu	a5,-1(a4)
   157f4:	00070493          	mv	s1,a4
   157f8:	fff48713          	addi	a4,s1,-1
   157fc:	fed786e3          	beq	a5,a3,157e8 <_dtoa_r+0x66c>
   15800:	0017879b          	addiw	a5,a5,1
   15804:	00f70023          	sb	a5,0(a4)
   15808:	e55ff06f          	j	1565c <_dtoa_r+0x4e0>
   1580c:	01012703          	lw	a4,16(sp)
   15810:	1a070c63          	beqz	a4,159c8 <_dtoa_r+0x84c>
   15814:	00100693          	li	a3,1
   15818:	5536d863          	ble	s3,a3,15d68 <_dtoa_r+0xbec>
   1581c:	fffa869b          	addiw	a3,s5,-1
   15820:	72dc4c63          	blt	s8,a3,15f58 <_dtoa_r+0xddc>
   15824:	40dc06bb          	subw	a3,s8,a3
   15828:	00080493          	mv	s1,a6
   1582c:	000a8793          	mv	a5,s5
   15830:	120ac2e3          	bltz	s5,16154 <_dtoa_r+0xfd8>
   15834:	00f8083b          	addw	a6,a6,a5
   15838:	00100593          	li	a1,1
   1583c:	00040513          	mv	a0,s0
   15840:	04d13423          	sd	a3,72(sp)
   15844:	05013023          	sd	a6,64(sp)
   15848:	03013c23          	sd	a6,56(sp)
   1584c:	00fd8dbb          	addw	s11,s11,a5
   15850:	155020ef          	jal	181a4 <__i2b>
   15854:	04013803          	ld	a6,64(sp)
   15858:	04813683          	ld	a3,72(sp)
   1585c:	00050a13          	mv	s4,a0
   15860:	00048e63          	beqz	s1,1587c <_dtoa_r+0x700>
   15864:	01b05c63          	blez	s11,1587c <_dtoa_r+0x700>
   15868:	00048793          	mv	a5,s1
   1586c:	489dc463          	blt	s11,s1,15cf4 <_dtoa_r+0xb78>
   15870:	40f8083b          	subw	a6,a6,a5
   15874:	40f484bb          	subw	s1,s1,a5
   15878:	40fd8dbb          	subw	s11,s11,a5
   1587c:	02013903          	ld	s2,32(sp)
   15880:	07805e63          	blez	s8,158fc <_dtoa_r+0x780>
   15884:	01012783          	lw	a5,16(sp)
   15888:	6a078463          	beqz	a5,15f30 <_dtoa_r+0xdb4>
   1588c:	04068a63          	beqz	a3,158e0 <_dtoa_r+0x764>
   15890:	00068613          	mv	a2,a3
   15894:	000a0593          	mv	a1,s4
   15898:	00040513          	mv	a0,s0
   1589c:	05013023          	sd	a6,64(sp)
   158a0:	02d13c23          	sd	a3,56(sp)
   158a4:	329020ef          	jal	183cc <__pow5mult>
   158a8:	02013603          	ld	a2,32(sp)
   158ac:	00050593          	mv	a1,a0
   158b0:	00050a13          	mv	s4,a0
   158b4:	00040513          	mv	a0,s0
   158b8:	121020ef          	jal	181d8 <__multiply>
   158bc:	03813683          	ld	a3,56(sp)
   158c0:	02013583          	ld	a1,32(sp)
   158c4:	00050913          	mv	s2,a0
   158c8:	00040513          	mv	a0,s0
   158cc:	40dc0c3b          	subw	s8,s8,a3
   158d0:	548020ef          	jal	17e18 <_Bfree>
   158d4:	04013803          	ld	a6,64(sp)
   158d8:	020c0263          	beqz	s8,158fc <_dtoa_r+0x780>
   158dc:	03213023          	sd	s2,32(sp)
   158e0:	02013583          	ld	a1,32(sp)
   158e4:	000c0613          	mv	a2,s8
   158e8:	00040513          	mv	a0,s0
   158ec:	03013c23          	sd	a6,56(sp)
   158f0:	2dd020ef          	jal	183cc <__pow5mult>
   158f4:	03813803          	ld	a6,56(sp)
   158f8:	00050913          	mv	s2,a0
   158fc:	00100593          	li	a1,1
   15900:	00040513          	mv	a0,s0
   15904:	03013023          	sd	a6,32(sp)
   15908:	09d020ef          	jal	181a4 <__i2b>
   1590c:	02812783          	lw	a5,40(sp)
   15910:	00050c13          	mv	s8,a0
   15914:	02013803          	ld	a6,32(sp)
   15918:	0c078c63          	beqz	a5,159f0 <_dtoa_r+0x874>
   1591c:	00078613          	mv	a2,a5
   15920:	00050593          	mv	a1,a0
   15924:	00040513          	mv	a0,s0
   15928:	2a5020ef          	jal	183cc <__pow5mult>
   1592c:	00100793          	li	a5,1
   15930:	00050c13          	mv	s8,a0
   15934:	02013803          	ld	a6,32(sp)
   15938:	3d37c263          	blt	a5,s3,15cfc <_dtoa_r+0xb80>
   1593c:	00cd1793          	slli	a5,s10,0xc
   15940:	3a079e63          	bnez	a5,15cfc <_dtoa_r+0xb80>
   15944:	420d5693          	srai	a3,s10,0x20
   15948:	7ff007b7          	lui	a5,0x7ff00
   1594c:	00f6f7b3          	and	a5,a3,a5
   15950:	02012023          	sw	zero,32(sp)
   15954:	00078a63          	beqz	a5,15968 <_dtoa_r+0x7ec>
   15958:	00100793          	li	a5,1
   1595c:	0018081b          	addiw	a6,a6,1
   15960:	001d8d9b          	addiw	s11,s11,1
   15964:	02f12023          	sw	a5,32(sp)
   15968:	02812783          	lw	a5,40(sp)
   1596c:	00100513          	li	a0,1
   15970:	08078863          	beqz	a5,15a00 <_dtoa_r+0x884>
   15974:	014c2783          	lw	a5,20(s8)
   15978:	03013423          	sd	a6,40(sp)
   1597c:	fff7879b          	addiw	a5,a5,-1
   15980:	00478793          	addi	a5,a5,4 # 7ff00004 <_end+0x7fed925c>
   15984:	00279793          	slli	a5,a5,0x2
   15988:	00fc07b3          	add	a5,s8,a5
   1598c:	0087a503          	lw	a0,8(a5)
   15990:	6e8020ef          	jal	18078 <__hi0bits>
   15994:	02000793          	li	a5,32
   15998:	40a7853b          	subw	a0,a5,a0
   1599c:	02813803          	ld	a6,40(sp)
   159a0:	0600006f          	j	15a00 <_dtoa_r+0x884>
   159a4:	d20b8753          	fcvt.d.w	fa4,s7
   159a8:	a2e7a7d3          	feq.d	a5,fa5,fa4
   159ac:	0017b793          	seqz	a5,a5
   159b0:	40fb8bbb          	subw	s7,s7,a5
   159b4:	9f9ff06f          	j	153ac <_dtoa_r+0x230>
   159b8:	4178083b          	subw	a6,a6,s7
   159bc:	41700c3b          	negw	s8,s7
   159c0:	02012423          	sw	zero,40(sp)
   159c4:	a41ff06f          	j	15404 <_dtoa_r+0x288>
   159c8:	000c0693          	mv	a3,s8
   159cc:	00080493          	mv	s1,a6
   159d0:	00000a13          	li	s4,0
   159d4:	e8dff06f          	j	15860 <_dtoa_r+0x6e4>
   159d8:	000d049b          	sext.w	s1,s10
   159dc:	40d787bb          	subw	a5,a5,a3
   159e0:	00f494bb          	sllw	s1,s1,a5
   159e4:	959ff06f          	j	1533c <_dtoa_r+0x1c0>
   159e8:	02012823          	sw	zero,48(sp)
   159ec:	9f9ff06f          	j	153e4 <_dtoa_r+0x268>
   159f0:	00100793          	li	a5,1
   159f4:	0737d4e3          	ble	s3,a5,1625c <_dtoa_r+0x10e0>
   159f8:	02012023          	sw	zero,32(sp)
   159fc:	00078513          	mv	a0,a5
   15a00:	01b507bb          	addw	a5,a0,s11
   15a04:	01f7f793          	andi	a5,a5,31
   15a08:	1a078663          	beqz	a5,15bb4 <_dtoa_r+0xa38>
   15a0c:	02000693          	li	a3,32
   15a10:	40f686bb          	subw	a3,a3,a5
   15a14:	00400613          	li	a2,4
   15a18:	04d658e3          	ble	a3,a2,16268 <_dtoa_r+0x10ec>
   15a1c:	01c00693          	li	a3,28
   15a20:	40f687bb          	subw	a5,a3,a5
   15a24:	00f8083b          	addw	a6,a6,a5
   15a28:	00f484bb          	addw	s1,s1,a5
   15a2c:	00fd8dbb          	addw	s11,s11,a5
   15a30:	01005c63          	blez	a6,15a48 <_dtoa_r+0x8cc>
   15a34:	00090593          	mv	a1,s2
   15a38:	00080613          	mv	a2,a6
   15a3c:	00040513          	mv	a0,s0
   15a40:	2c5020ef          	jal	18504 <__lshift>
   15a44:	00050913          	mv	s2,a0
   15a48:	01b05c63          	blez	s11,15a60 <_dtoa_r+0x8e4>
   15a4c:	000c0593          	mv	a1,s8
   15a50:	000d8613          	mv	a2,s11
   15a54:	00040513          	mv	a0,s0
   15a58:	2ad020ef          	jal	18504 <__lshift>
   15a5c:	00050c13          	mv	s8,a0
   15a60:	03012783          	lw	a5,48(sp)
   15a64:	22079663          	bnez	a5,15c90 <_dtoa_r+0xb14>
   15a68:	3f505e63          	blez	s5,15e64 <_dtoa_r+0xce8>
   15a6c:	01012783          	lw	a5,16(sp)
   15a70:	14078c63          	beqz	a5,15bc8 <_dtoa_r+0xa4c>
   15a74:	00905c63          	blez	s1,15a8c <_dtoa_r+0x910>
   15a78:	000a0593          	mv	a1,s4
   15a7c:	00048613          	mv	a2,s1
   15a80:	00040513          	mv	a0,s0
   15a84:	281020ef          	jal	18504 <__lshift>
   15a88:	00050a13          	mv	s4,a0
   15a8c:	02012783          	lw	a5,32(sp)
   15a90:	000a0d93          	mv	s11,s4
   15a94:	5a079463          	bnez	a5,1603c <_dtoa_r+0xec0>
   15a98:	fffa849b          	addiw	s1,s5,-1
   15a9c:	00813783          	ld	a5,8(sp)
   15aa0:	02049493          	slli	s1,s1,0x20
   15aa4:	0204d493          	srli	s1,s1,0x20
   15aa8:	00148493          	addi	s1,s1,1
   15aac:	009784b3          	add	s1,a5,s1
   15ab0:	00078c93          	mv	s9,a5
   15ab4:	001d7793          	andi	a5,s10,1
   15ab8:	00f13823          	sd	a5,16(sp)
   15abc:	000c0593          	mv	a1,s8
   15ac0:	00090513          	mv	a0,s2
   15ac4:	cccff0ef          	jal	14f90 <quorem>
   15ac8:	00050d13          	mv	s10,a0
   15acc:	02a12823          	sw	a0,48(sp)
   15ad0:	000a0593          	mv	a1,s4
   15ad4:	00090513          	mv	a0,s2
   15ad8:	38d020ef          	jal	18664 <__mcmp>
   15adc:	00050a93          	mv	s5,a0
   15ae0:	000d8613          	mv	a2,s11
   15ae4:	000c0593          	mv	a1,s8
   15ae8:	00040513          	mv	a0,s0
   15aec:	3d9020ef          	jal	186c4 <__mdiff>
   15af0:	01052683          	lw	a3,16(a0)
   15af4:	00050793          	mv	a5,a0
   15af8:	030d0d1b          	addiw	s10,s10,48
   15afc:	00100713          	li	a4,1
   15b00:	00069e63          	bnez	a3,15b1c <_dtoa_r+0x9a0>
   15b04:	00050593          	mv	a1,a0
   15b08:	02a13023          	sd	a0,32(sp)
   15b0c:	00090513          	mv	a0,s2
   15b10:	355020ef          	jal	18664 <__mcmp>
   15b14:	02013783          	ld	a5,32(sp)
   15b18:	00050713          	mv	a4,a0
   15b1c:	00078593          	mv	a1,a5
   15b20:	00040513          	mv	a0,s0
   15b24:	02e13023          	sd	a4,32(sp)
   15b28:	2f0020ef          	jal	17e18 <_Bfree>
   15b2c:	02013703          	ld	a4,32(sp)
   15b30:	013767b3          	or	a5,a4,s3
   15b34:	00079663          	bnez	a5,15b40 <_dtoa_r+0x9c4>
   15b38:	01012783          	lw	a5,16(sp)
   15b3c:	24078063          	beqz	a5,15d7c <_dtoa_r+0xc00>
   15b40:	260ac463          	bltz	s5,15da8 <_dtoa_r+0xc2c>
   15b44:	013aeab3          	or	s5,s5,s3
   15b48:	000a9663          	bnez	s5,15b54 <_dtoa_r+0x9d8>
   15b4c:	01012783          	lw	a5,16(sp)
   15b50:	24078c63          	beqz	a5,15da8 <_dtoa_r+0xc2c>
   15b54:	5ee04263          	bgtz	a4,16138 <_dtoa_r+0xfbc>
   15b58:	001c8c93          	addi	s9,s9,1
   15b5c:	ffac8fa3          	sb	s10,-1(s9)
   15b60:	5f948463          	beq	s1,s9,16148 <_dtoa_r+0xfcc>
   15b64:	00090593          	mv	a1,s2
   15b68:	00000693          	li	a3,0
   15b6c:	00a00613          	li	a2,10
   15b70:	00040513          	mv	a0,s0
   15b74:	2c8020ef          	jal	17e3c <__multadd>
   15b78:	00050913          	mv	s2,a0
   15b7c:	00000693          	li	a3,0
   15b80:	00a00613          	li	a2,10
   15b84:	000a0593          	mv	a1,s4
   15b88:	00040513          	mv	a0,s0
   15b8c:	27ba0463          	beq	s4,s11,15df4 <_dtoa_r+0xc78>
   15b90:	2ac020ef          	jal	17e3c <__multadd>
   15b94:	000d8593          	mv	a1,s11
   15b98:	00050a13          	mv	s4,a0
   15b9c:	00000693          	li	a3,0
   15ba0:	00a00613          	li	a2,10
   15ba4:	00040513          	mv	a0,s0
   15ba8:	294020ef          	jal	17e3c <__multadd>
   15bac:	00050d93          	mv	s11,a0
   15bb0:	f0dff06f          	j	15abc <_dtoa_r+0x940>
   15bb4:	01c00793          	li	a5,28
   15bb8:	00f8083b          	addw	a6,a6,a5
   15bbc:	00f484bb          	addw	s1,s1,a5
   15bc0:	00fd8dbb          	addw	s11,s11,a5
   15bc4:	e6dff06f          	j	15a30 <_dtoa_r+0x8b4>
   15bc8:	00813483          	ld	s1,8(sp)
   15bcc:	00100993          	li	s3,1
   15bd0:	0100006f          	j	15be0 <_dtoa_r+0xa64>
   15bd4:	268020ef          	jal	17e3c <__multadd>
   15bd8:	00050913          	mv	s2,a0
   15bdc:	0019899b          	addiw	s3,s3,1
   15be0:	000c0593          	mv	a1,s8
   15be4:	00090513          	mv	a0,s2
   15be8:	ba8ff0ef          	jal	14f90 <quorem>
   15bec:	03050d1b          	addiw	s10,a0,48
   15bf0:	00148493          	addi	s1,s1,1
   15bf4:	ffa48fa3          	sb	s10,-1(s1)
   15bf8:	00000693          	li	a3,0
   15bfc:	00a00613          	li	a2,10
   15c00:	00090593          	mv	a1,s2
   15c04:	00040513          	mv	a0,s0
   15c08:	fd59c6e3          	blt	s3,s5,15bd4 <_dtoa_r+0xa58>
   15c0c:	00000993          	li	s3,0
   15c10:	00090593          	mv	a1,s2
   15c14:	00100613          	li	a2,1
   15c18:	00040513          	mv	a0,s0
   15c1c:	0e9020ef          	jal	18504 <__lshift>
   15c20:	000c0593          	mv	a1,s8
   15c24:	02a13023          	sd	a0,32(sp)
   15c28:	23d020ef          	jal	18664 <__mcmp>
   15c2c:	34a05463          	blez	a0,15f74 <_dtoa_r+0xdf8>
   15c30:	fff4c703          	lbu	a4,-1(s1)
   15c34:	03900693          	li	a3,57
   15c38:	0140006f          	j	15c4c <_dtoa_r+0xad0>
   15c3c:	00813703          	ld	a4,8(sp)
   15c40:	26e78a63          	beq	a5,a4,15eb4 <_dtoa_r+0xd38>
   15c44:	fff7c703          	lbu	a4,-1(a5)
   15c48:	00078493          	mv	s1,a5
   15c4c:	fff48793          	addi	a5,s1,-1
   15c50:	fed706e3          	beq	a4,a3,15c3c <_dtoa_r+0xac0>
   15c54:	0017071b          	addiw	a4,a4,1
   15c58:	00e78023          	sb	a4,0(a5)
   15c5c:	000c0593          	mv	a1,s8
   15c60:	00040513          	mv	a0,s0
   15c64:	1b4020ef          	jal	17e18 <_Bfree>
   15c68:	9e0a0ae3          	beqz	s4,1565c <_dtoa_r+0x4e0>
   15c6c:	00098a63          	beqz	s3,15c80 <_dtoa_r+0xb04>
   15c70:	01498863          	beq	s3,s4,15c80 <_dtoa_r+0xb04>
   15c74:	00098593          	mv	a1,s3
   15c78:	00040513          	mv	a0,s0
   15c7c:	19c020ef          	jal	17e18 <_Bfree>
   15c80:	000a0593          	mv	a1,s4
   15c84:	00040513          	mv	a0,s0
   15c88:	190020ef          	jal	17e18 <_Bfree>
   15c8c:	9d1ff06f          	j	1565c <_dtoa_r+0x4e0>
   15c90:	000c0593          	mv	a1,s8
   15c94:	00090513          	mv	a0,s2
   15c98:	1cd020ef          	jal	18664 <__mcmp>
   15c9c:	dc0556e3          	bgez	a0,15a68 <_dtoa_r+0x8ec>
   15ca0:	00090593          	mv	a1,s2
   15ca4:	00000693          	li	a3,0
   15ca8:	00a00613          	li	a2,10
   15cac:	00040513          	mv	a0,s0
   15cb0:	18c020ef          	jal	17e3c <__multadd>
   15cb4:	01012783          	lw	a5,16(sp)
   15cb8:	00050913          	mv	s2,a0
   15cbc:	fffb8b9b          	addiw	s7,s7,-1
   15cc0:	56079063          	bnez	a5,16220 <_dtoa_r+0x10a4>
   15cc4:	03412783          	lw	a5,52(sp)
   15cc8:	00078a93          	mv	s5,a5
   15ccc:	eef04ee3          	bgtz	a5,15bc8 <_dtoa_r+0xa4c>
   15cd0:	00200793          	li	a5,2
   15cd4:	5937c063          	blt	a5,s3,16254 <_dtoa_r+0x10d8>
   15cd8:	000c0593          	mv	a1,s8
   15cdc:	ab4ff0ef          	jal	14f90 <quorem>
   15ce0:	00813783          	ld	a5,8(sp)
   15ce4:	03050d1b          	addiw	s10,a0,48
   15ce8:	00178493          	addi	s1,a5,1
   15cec:	ffa48fa3          	sb	s10,-1(s1)
   15cf0:	f1dff06f          	j	15c0c <_dtoa_r+0xa90>
   15cf4:	000d8793          	mv	a5,s11
   15cf8:	b79ff06f          	j	15870 <_dtoa_r+0x6f4>
   15cfc:	02012023          	sw	zero,32(sp)
   15d00:	c75ff06f          	j	15974 <_dtoa_r+0x7f8>
   15d04:	00100793          	li	a5,1
   15d08:	00f12823          	sw	a5,16(sp)
   15d0c:	0f905c63          	blez	s9,15e04 <_dtoa_r+0xc88>
   15d10:	000c8513          	mv	a0,s9
   15d14:	000c8493          	mv	s1,s9
   15d18:	03912a23          	sw	s9,52(sp)
   15d1c:	000c8a93          	mv	s5,s9
   15d20:	f3cff06f          	j	1545c <_dtoa_r+0x2e0>
   15d24:	a1504ce3          	bgtz	s5,1573c <_dtoa_r+0x5c0>
   15d28:	1e0a9e63          	bnez	s5,15f24 <_dtoa_r+0xda8>
   15d2c:	000247b7          	lui	a5,0x24
   15d30:	4687b787          	fld	fa5,1128(a5) # 24468 <mask+0x40>
   15d34:	00000c13          	li	s8,0
   15d38:	00000a13          	li	s4,0
   15d3c:	12f6f6d3          	fmul.d	fa3,fa3,fa5
   15d40:	f20d07d3          	fmv.d.x	fa5,s10
   15d44:	a2d78753          	fle.d	a4,fa5,fa3
   15d48:	14070a63          	beqz	a4,15e9c <_dtoa_r+0xd20>
   15d4c:	00813483          	ld	s1,8(sp)
   15d50:	fffccb93          	not	s7,s9
   15d54:	000c0593          	mv	a1,s8
   15d58:	00040513          	mv	a0,s0
   15d5c:	0bc020ef          	jal	17e18 <_Bfree>
   15d60:	8e0a0ee3          	beqz	s4,1565c <_dtoa_r+0x4e0>
   15d64:	f1dff06f          	j	15c80 <_dtoa_r+0xb04>
   15d68:	3e090c63          	beqz	s2,16160 <_dtoa_r+0xfe4>
   15d6c:	4337879b          	addiw	a5,a5,1075
   15d70:	000c0693          	mv	a3,s8
   15d74:	00080493          	mv	s1,a6
   15d78:	abdff06f          	j	15834 <_dtoa_r+0x6b8>
   15d7c:	03900793          	li	a5,57
   15d80:	04fd0a63          	beq	s10,a5,15dd4 <_dtoa_r+0xc58>
   15d84:	01505663          	blez	s5,15d90 <_dtoa_r+0xc14>
   15d88:	03012783          	lw	a5,48(sp)
   15d8c:	03178d1b          	addiw	s10,a5,49
   15d90:	000a0993          	mv	s3,s4
   15d94:	001c8493          	addi	s1,s9,1
   15d98:	01ac8023          	sb	s10,0(s9)
   15d9c:	000d8a13          	mv	s4,s11
   15da0:	03213023          	sd	s2,32(sp)
   15da4:	eb9ff06f          	j	15c5c <_dtoa_r+0xae0>
   15da8:	fee054e3          	blez	a4,15d90 <_dtoa_r+0xc14>
   15dac:	00090593          	mv	a1,s2
   15db0:	00100613          	li	a2,1
   15db4:	00040513          	mv	a0,s0
   15db8:	74c020ef          	jal	18504 <__lshift>
   15dbc:	000c0593          	mv	a1,s8
   15dc0:	00050913          	mv	s2,a0
   15dc4:	0a1020ef          	jal	18664 <__mcmp>
   15dc8:	44a05063          	blez	a0,16208 <_dtoa_r+0x108c>
   15dcc:	03900793          	li	a5,57
   15dd0:	fafd1ce3          	bne	s10,a5,15d88 <_dtoa_r+0xc0c>
   15dd4:	03900793          	li	a5,57
   15dd8:	000a0993          	mv	s3,s4
   15ddc:	001c8493          	addi	s1,s9,1
   15de0:	00fc8023          	sb	a5,0(s9)
   15de4:	000d8a13          	mv	s4,s11
   15de8:	03213023          	sd	s2,32(sp)
   15dec:	03900713          	li	a4,57
   15df0:	e45ff06f          	j	15c34 <_dtoa_r+0xab8>
   15df4:	048020ef          	jal	17e3c <__multadd>
   15df8:	00050a13          	mv	s4,a0
   15dfc:	00050d93          	mv	s11,a0
   15e00:	cbdff06f          	j	15abc <_dtoa_r+0x940>
   15e04:	00100493          	li	s1,1
   15e08:	02912a23          	sw	s1,52(sp)
   15e0c:	00048a93          	mv	s5,s1
   15e10:	00048c93          	mv	s9,s1
   15e14:	06042423          	sw	zero,104(s0)
   15e18:	00000593          	li	a1,0
   15e1c:	e74ff06f          	j	15490 <_dtoa_r+0x314>
   15e20:	00012823          	sw	zero,16(sp)
   15e24:	00200793          	li	a5,2
   15e28:	eef982e3          	beq	s3,a5,15d0c <_dtoa_r+0xb90>
   15e2c:	06042423          	sw	zero,104(s0)
   15e30:	00000593          	li	a1,0
   15e34:	00040513          	mv	a0,s0
   15e38:	03013c23          	sd	a6,56(sp)
   15e3c:	731010ef          	jal	17d6c <_Balloc>
   15e40:	fff00a93          	li	s5,-1
   15e44:	00100793          	li	a5,1
   15e48:	00a13423          	sd	a0,8(sp)
   15e4c:	06a43023          	sd	a0,96(s0)
   15e50:	03512a23          	sw	s5,52(sp)
   15e54:	00000c93          	li	s9,0
   15e58:	00f12823          	sw	a5,16(sp)
   15e5c:	03813803          	ld	a6,56(sp)
   15e60:	8b5ff06f          	j	15714 <_dtoa_r+0x598>
   15e64:	00200793          	li	a5,2
   15e68:	c137d2e3          	ble	s3,a5,15a6c <_dtoa_r+0x8f0>
   15e6c:	300a9663          	bnez	s5,16178 <_dtoa_r+0xffc>
   15e70:	000c0593          	mv	a1,s8
   15e74:	00000693          	li	a3,0
   15e78:	00500613          	li	a2,5
   15e7c:	00040513          	mv	a0,s0
   15e80:	7bd010ef          	jal	17e3c <__multadd>
   15e84:	00050593          	mv	a1,a0
   15e88:	00050c13          	mv	s8,a0
   15e8c:	00090513          	mv	a0,s2
   15e90:	7d4020ef          	jal	18664 <__mcmp>
   15e94:	03213023          	sd	s2,32(sp)
   15e98:	eaa05ae3          	blez	a0,15d4c <_dtoa_r+0xbd0>
   15e9c:	00813703          	ld	a4,8(sp)
   15ea0:	03100793          	li	a5,49
   15ea4:	001b8b9b          	addiw	s7,s7,1
   15ea8:	00170493          	addi	s1,a4,1
   15eac:	00f70023          	sb	a5,0(a4)
   15eb0:	ea5ff06f          	j	15d54 <_dtoa_r+0xbd8>
   15eb4:	00813703          	ld	a4,8(sp)
   15eb8:	03100793          	li	a5,49
   15ebc:	001b8b9b          	addiw	s7,s7,1
   15ec0:	00f70023          	sb	a5,0(a4)
   15ec4:	d99ff06f          	j	15c5c <_dtoa_r+0xae0>
   15ec8:	00012823          	sw	zero,16(sp)
   15ecc:	d78ff06f          	j	15444 <_dtoa_r+0x2c8>
   15ed0:	000247b7          	lui	a5,0x24
   15ed4:	d20706d3          	fcvt.d.w	fa3,a4
   15ed8:	4607b707          	fld	fa4,1120(a5) # 24460 <mask+0x38>
   15edc:	fcc006b7          	lui	a3,0xfcc00
   15ee0:	72d7f743          	fmadd.d	fa4,fa5,fa3,fa4
   15ee4:	e2070753          	fmv.x.d	a4,fa4
   15ee8:	42075793          	srai	a5,a4,0x20
   15eec:	00d787bb          	addw	a5,a5,a3
   15ef0:	02071713          	slli	a4,a4,0x20
   15ef4:	02079793          	slli	a5,a5,0x20
   15ef8:	02075713          	srli	a4,a4,0x20
   15efc:	00f76733          	or	a4,a4,a5
   15f00:	000247b7          	lui	a5,0x24
   15f04:	4687b707          	fld	fa4,1128(a5) # 24468 <mask+0x40>
   15f08:	f20706d3          	fmv.d.x	fa3,a4
   15f0c:	0ae7f7d3          	fsub.d	fa5,fa5,fa4
   15f10:	a2f697d3          	flt.d	a5,fa3,fa5
   15f14:	16079463          	bnez	a5,1607c <_dtoa_r+0xf00>
   15f18:	22d69753          	fneg.d	fa4,fa3
   15f1c:	a2e797d3          	flt.d	a5,fa5,fa4
   15f20:	06078e63          	beqz	a5,15f9c <_dtoa_r+0xe20>
   15f24:	00000c13          	li	s8,0
   15f28:	00000a13          	li	s4,0
   15f2c:	e21ff06f          	j	15d4c <_dtoa_r+0xbd0>
   15f30:	00090593          	mv	a1,s2
   15f34:	000c0613          	mv	a2,s8
   15f38:	00040513          	mv	a0,s0
   15f3c:	03013023          	sd	a6,32(sp)
   15f40:	48c020ef          	jal	183cc <__pow5mult>
   15f44:	00050913          	mv	s2,a0
   15f48:	02013803          	ld	a6,32(sp)
   15f4c:	9b1ff06f          	j	158fc <_dtoa_r+0x780>
   15f50:	00813503          	ld	a0,8(sp)
   15f54:	af4ff06f          	j	15248 <_dtoa_r+0xcc>
   15f58:	02812783          	lw	a5,40(sp)
   15f5c:	41868c3b          	subw	s8,a3,s8
   15f60:	018787bb          	addw	a5,a5,s8
   15f64:	02f12423          	sw	a5,40(sp)
   15f68:	00068c13          	mv	s8,a3
   15f6c:	00000693          	li	a3,0
   15f70:	8b9ff06f          	j	15828 <_dtoa_r+0x6ac>
   15f74:	00051663          	bnez	a0,15f80 <_dtoa_r+0xe04>
   15f78:	001d7d13          	andi	s10,s10,1
   15f7c:	ca0d1ae3          	bnez	s10,15c30 <_dtoa_r+0xab4>
   15f80:	03000693          	li	a3,48
   15f84:	0080006f          	j	15f8c <_dtoa_r+0xe10>
   15f88:	00070493          	mv	s1,a4
   15f8c:	fff4c783          	lbu	a5,-1(s1)
   15f90:	fff48713          	addi	a4,s1,-1
   15f94:	fed78ae3          	beq	a5,a3,15f88 <_dtoa_r+0xe0c>
   15f98:	cc5ff06f          	j	15c5c <_dtoa_r+0xae0>
   15f9c:	03813d03          	ld	s10,56(sp)
   15fa0:	f74ff06f          	j	15714 <_dtoa_r+0x598>
   15fa4:	a2f6a753          	feq.d	a4,fa3,fa5
   15fa8:	00068493          	mv	s1,a3
   15fac:	ea070863          	beqz	a4,1565c <_dtoa_r+0x4e0>
   15fb0:	0017f793          	andi	a5,a5,1
   15fb4:	ea078463          	beqz	a5,1565c <_dtoa_r+0x4e0>
   15fb8:	fff6c783          	lbu	a5,-1(a3) # fffffffffcbfffff <_end+0xfffffffffcbd9257>
   15fbc:	825ff06f          	j	157e0 <_dtoa_r+0x664>
   15fc0:	417007bb          	negw	a5,s7
   15fc4:	03813787          	fld	fa5,56(sp)
   15fc8:	00200713          	li	a4,2
   15fcc:	d6078063          	beqz	a5,1552c <_dtoa_r+0x3b0>
   15fd0:	00f7f693          	andi	a3,a5,15
   15fd4:	00021637          	lui	a2,0x21
   15fd8:	00369693          	slli	a3,a3,0x3
   15fdc:	e4060613          	addi	a2,a2,-448 # 20e40 <__mprec_tens>
   15fe0:	00c686b3          	add	a3,a3,a2
   15fe4:	0006b787          	fld	fa5,0(a3)
   15fe8:	03813707          	fld	fa4,56(sp)
   15fec:	4047d79b          	sraiw	a5,a5,0x4
   15ff0:	12f777d3          	fmul.d	fa5,fa4,fa5
   15ff4:	d2078c63          	beqz	a5,1552c <_dtoa_r+0x3b0>
   15ff8:	000216b7          	lui	a3,0x21
   15ffc:	f3068693          	addi	a3,a3,-208 # 20f30 <__mprec_bigtens>
   16000:	0017f613          	andi	a2,a5,1
   16004:	4017d79b          	sraiw	a5,a5,0x1
   16008:	00060863          	beqz	a2,16018 <_dtoa_r+0xe9c>
   1600c:	0006b707          	fld	fa4,0(a3)
   16010:	0017071b          	addiw	a4,a4,1
   16014:	12e7f7d3          	fmul.d	fa5,fa5,fa4
   16018:	00868693          	addi	a3,a3,8
   1601c:	fe0792e3          	bnez	a5,16000 <_dtoa_r+0xe84>
   16020:	d0cff06f          	j	1552c <_dtoa_r+0x3b0>
   16024:	00813683          	ld	a3,8(sp)
   16028:	03000793          	li	a5,48
   1602c:	001b8b9b          	addiw	s7,s7,1
   16030:	00f68023          	sb	a5,0(a3)
   16034:	fff4c783          	lbu	a5,-1(s1)
   16038:	fc8ff06f          	j	15800 <_dtoa_r+0x684>
   1603c:	008a2583          	lw	a1,8(s4)
   16040:	00040513          	mv	a0,s0
   16044:	529010ef          	jal	17d6c <_Balloc>
   16048:	014a2603          	lw	a2,20(s4)
   1604c:	00050493          	mv	s1,a0
   16050:	010a0593          	addi	a1,s4,16
   16054:	00260613          	addi	a2,a2,2
   16058:	00261613          	slli	a2,a2,0x2
   1605c:	01050513          	addi	a0,a0,16
   16060:	c1cfb0ef          	jal	1147c <memcpy>
   16064:	00100613          	li	a2,1
   16068:	00048593          	mv	a1,s1
   1606c:	00040513          	mv	a0,s0
   16070:	494020ef          	jal	18504 <__lshift>
   16074:	00050d93          	mv	s11,a0
   16078:	a21ff06f          	j	15a98 <_dtoa_r+0x91c>
   1607c:	00000c13          	li	s8,0
   16080:	00000a13          	li	s4,0
   16084:	e19ff06f          	j	15e9c <_dtoa_r+0xd20>
   16088:	fff6079b          	addiw	a5,a2,-1
   1608c:	00021537          	lui	a0,0x21
   16090:	c20795d3          	fcvt.w.d	a1,fa5,rtz
   16094:	00379793          	slli	a5,a5,0x3
   16098:	e4050513          	addi	a0,a0,-448 # 20e40 <__mprec_tens>
   1609c:	00a787b3          	add	a5,a5,a0
   160a0:	0007b707          	fld	fa4,0(a5)
   160a4:	00813783          	ld	a5,8(sp)
   160a8:	d20586d3          	fcvt.d.w	fa3,a1
   160ac:	f2070653          	fmv.d.x	fa2,a4
   160b0:	0305859b          	addiw	a1,a1,48
   160b4:	00b78023          	sb	a1,0(a5)
   160b8:	00178493          	addi	s1,a5,1
   160bc:	00100793          	li	a5,1
   160c0:	12c77653          	fmul.d	fa2,fa4,fa2
   160c4:	0ad7f7d3          	fsub.d	fa5,fa5,fa3
   160c8:	04f60863          	beq	a2,a5,16118 <_dtoa_r+0xf9c>
   160cc:	ffe6061b          	addiw	a2,a2,-2
   160d0:	000247b7          	lui	a5,0x24
   160d4:	02061593          	slli	a1,a2,0x20
   160d8:	4587b687          	fld	fa3,1112(a5) # 24458 <mask+0x30>
   160dc:	00813783          	ld	a5,8(sp)
   160e0:	0205d593          	srli	a1,a1,0x20
   160e4:	00258513          	addi	a0,a1,2
   160e8:	00a78533          	add	a0,a5,a0
   160ec:	00048613          	mv	a2,s1
   160f0:	12d7f7d3          	fmul.d	fa5,fa5,fa3
   160f4:	00160613          	addi	a2,a2,1
   160f8:	c20797d3          	fcvt.w.d	a5,fa5,rtz
   160fc:	d2078753          	fcvt.d.w	fa4,a5
   16100:	0307879b          	addiw	a5,a5,48
   16104:	fef60fa3          	sb	a5,-1(a2)
   16108:	0ae7f7d3          	fsub.d	fa5,fa5,fa4
   1610c:	fea612e3          	bne	a2,a0,160f0 <_dtoa_r+0xf74>
   16110:	00158593          	addi	a1,a1,1
   16114:	00b484b3          	add	s1,s1,a1
   16118:	000247b7          	lui	a5,0x24
   1611c:	4707b707          	fld	fa4,1136(a5) # 24470 <mask+0x48>
   16120:	02e676d3          	fadd.d	fa3,fa2,fa4
   16124:	a2f697d3          	flt.d	a5,fa3,fa5
   16128:	0a078663          	beqz	a5,161d4 <_dtoa_r+0x1058>
   1612c:	fff4c783          	lbu	a5,-1(s1)
   16130:	00068b93          	mv	s7,a3
   16134:	eacff06f          	j	157e0 <_dtoa_r+0x664>
   16138:	03900793          	li	a5,57
   1613c:	c8fd0ce3          	beq	s10,a5,15dd4 <_dtoa_r+0xc58>
   16140:	001d0d1b          	addiw	s10,s10,1
   16144:	c4dff06f          	j	15d90 <_dtoa_r+0xc14>
   16148:	000a0993          	mv	s3,s4
   1614c:	000d8a13          	mv	s4,s11
   16150:	ac1ff06f          	j	15c10 <_dtoa_r+0xa94>
   16154:	415804bb          	subw	s1,a6,s5
   16158:	00000793          	li	a5,0
   1615c:	ed8ff06f          	j	15834 <_dtoa_r+0x6b8>
   16160:	05812603          	lw	a2,88(sp)
   16164:	03600793          	li	a5,54
   16168:	000c0693          	mv	a3,s8
   1616c:	40c787bb          	subw	a5,a5,a2
   16170:	00080493          	mv	s1,a6
   16174:	ec0ff06f          	j	15834 <_dtoa_r+0x6b8>
   16178:	03213023          	sd	s2,32(sp)
   1617c:	bd1ff06f          	j	15d4c <_dtoa_r+0xbd0>
   16180:	d40a88e3          	beqz	s5,15ed0 <_dtoa_r+0xd54>
   16184:	03412603          	lw	a2,52(sp)
   16188:	e0c05ae3          	blez	a2,15f9c <_dtoa_r+0xe20>
   1618c:	000247b7          	lui	a5,0x24
   16190:	4587b707          	fld	fa4,1112(a5) # 24458 <mask+0x30>
   16194:	0017071b          	addiw	a4,a4,1
   16198:	000247b7          	lui	a5,0x24
   1619c:	12e7f7d3          	fmul.d	fa5,fa5,fa4
   161a0:	d20706d3          	fcvt.d.w	fa3,a4
   161a4:	4607b707          	fld	fa4,1120(a5) # 24460 <mask+0x38>
   161a8:	fcc005b7          	lui	a1,0xfcc00
   161ac:	fffb869b          	addiw	a3,s7,-1
   161b0:	72d7f743          	fmadd.d	fa4,fa5,fa3,fa4
   161b4:	e2070753          	fmv.x.d	a4,fa4
   161b8:	42075793          	srai	a5,a4,0x20
   161bc:	00b787bb          	addw	a5,a5,a1
   161c0:	02071713          	slli	a4,a4,0x20
   161c4:	02079793          	slli	a5,a5,0x20
   161c8:	02075713          	srli	a4,a4,0x20
   161cc:	00f76733          	or	a4,a4,a5
   161d0:	bb0ff06f          	j	15580 <_dtoa_r+0x404>
   161d4:	0ac77753          	fsub.d	fa4,fa4,fa2
   161d8:	03000613          	li	a2,48
   161dc:	a2e797d3          	flt.d	a5,fa5,fa4
   161e0:	00079663          	bnez	a5,161ec <_dtoa_r+0x1070>
   161e4:	db9ff06f          	j	15f9c <_dtoa_r+0xe20>
   161e8:	00070493          	mv	s1,a4
   161ec:	fff4c783          	lbu	a5,-1(s1)
   161f0:	fff48713          	addi	a4,s1,-1
   161f4:	fec78ae3          	beq	a5,a2,161e8 <_dtoa_r+0x106c>
   161f8:	00068b93          	mv	s7,a3
   161fc:	c60ff06f          	j	1565c <_dtoa_r+0x4e0>
   16200:	00068b93          	mv	s7,a3
   16204:	ddcff06f          	j	157e0 <_dtoa_r+0x664>
   16208:	b80514e3          	bnez	a0,15d90 <_dtoa_r+0xc14>
   1620c:	001d7793          	andi	a5,s10,1
   16210:	b80780e3          	beqz	a5,15d90 <_dtoa_r+0xc14>
   16214:	bb9ff06f          	j	15dcc <_dtoa_r+0xc50>
   16218:	00048693          	mv	a3,s1
   1621c:	db0ff06f          	j	157cc <_dtoa_r+0x650>
   16220:	000a0593          	mv	a1,s4
   16224:	00000693          	li	a3,0
   16228:	00a00613          	li	a2,10
   1622c:	00040513          	mv	a0,s0
   16230:	40d010ef          	jal	17e3c <__multadd>
   16234:	03412783          	lw	a5,52(sp)
   16238:	00050a13          	mv	s4,a0
   1623c:	00078a93          	mv	s5,a5
   16240:	82f04ae3          	bgtz	a5,15a74 <_dtoa_r+0x8f8>
   16244:	00200793          	li	a5,2
   16248:	0137c663          	blt	a5,s3,16254 <_dtoa_r+0x10d8>
   1624c:	03412a83          	lw	s5,52(sp)
   16250:	825ff06f          	j	15a74 <_dtoa_r+0x8f8>
   16254:	03412a83          	lw	s5,52(sp)
   16258:	c15ff06f          	j	15e6c <_dtoa_r+0xcf0>
   1625c:	00cd1713          	slli	a4,s10,0xc
   16260:	ee070263          	beqz	a4,15944 <_dtoa_r+0x7c8>
   16264:	f94ff06f          	j	159f8 <_dtoa_r+0x87c>
   16268:	fcc68463          	beq	a3,a2,15a30 <_dtoa_r+0x8b4>
   1626c:	03c00693          	li	a3,60
   16270:	40f687bb          	subw	a5,a3,a5
   16274:	945ff06f          	j	15bb8 <_dtoa_r+0xa3c>

0000000000016278 <__sflush_r>:
   16278:	01059683          	lh	a3,16(a1) # fffffffffcc00010 <_end+0xfffffffffcbd9268>
   1627c:	fd010113          	addi	sp,sp,-48
   16280:	00913c23          	sd	s1,24(sp)
   16284:	03069713          	slli	a4,a3,0x30
   16288:	03075713          	srli	a4,a4,0x30
   1628c:	01313423          	sd	s3,8(sp)
   16290:	02113423          	sd	ra,40(sp)
   16294:	02813023          	sd	s0,32(sp)
   16298:	01213823          	sd	s2,16(sp)
   1629c:	00877793          	andi	a5,a4,8
   162a0:	00058493          	mv	s1,a1
   162a4:	00050993          	mv	s3,a0
   162a8:	0e079863          	bnez	a5,16398 <__sflush_r+0x120>
   162ac:	000017b7          	lui	a5,0x1
   162b0:	8007879b          	addiw	a5,a5,-2048
   162b4:	00f6e7b3          	or	a5,a3,a5
   162b8:	0107979b          	slliw	a5,a5,0x10
   162bc:	0085a703          	lw	a4,8(a1)
   162c0:	4107d79b          	sraiw	a5,a5,0x10
   162c4:	00f59823          	sh	a5,16(a1)
   162c8:	1ae05863          	blez	a4,16478 <__sflush_r+0x200>
   162cc:	0484b703          	ld	a4,72(s1)
   162d0:	0a070463          	beqz	a4,16378 <__sflush_r+0x100>
   162d4:	03079793          	slli	a5,a5,0x30
   162d8:	0307d793          	srli	a5,a5,0x30
   162dc:	0009a403          	lw	s0,0(s3)
   162e0:	03379693          	slli	a3,a5,0x33
   162e4:	0009a023          	sw	zero,0(s3)
   162e8:	1806de63          	bgez	a3,16484 <__sflush_r+0x20c>
   162ec:	0904b603          	ld	a2,144(s1)
   162f0:	0047f793          	andi	a5,a5,4
   162f4:	00078e63          	beqz	a5,16310 <__sflush_r+0x98>
   162f8:	0084a683          	lw	a3,8(s1)
   162fc:	0584b783          	ld	a5,88(s1)
   16300:	40d60633          	sub	a2,a2,a3
   16304:	00078663          	beqz	a5,16310 <__sflush_r+0x98>
   16308:	0704a783          	lw	a5,112(s1)
   1630c:	40f60633          	sub	a2,a2,a5
   16310:	0304b583          	ld	a1,48(s1)
   16314:	00000693          	li	a3,0
   16318:	00098513          	mv	a0,s3
   1631c:	000700e7          	jalr	a4
   16320:	fff00793          	li	a5,-1
   16324:	0ef50c63          	beq	a0,a5,1641c <__sflush_r+0x1a4>
   16328:	0104d683          	lhu	a3,16(s1)
   1632c:	fffff7b7          	lui	a5,0xfffff
   16330:	7ff7879b          	addiw	a5,a5,2047
   16334:	0184b703          	ld	a4,24(s1)
   16338:	00f6f7b3          	and	a5,a3,a5
   1633c:	0107979b          	slliw	a5,a5,0x10
   16340:	4107d79b          	sraiw	a5,a5,0x10
   16344:	00e4b023          	sd	a4,0(s1)
   16348:	00f49823          	sh	a5,16(s1)
   1634c:	0004a423          	sw	zero,8(s1)
   16350:	03379713          	slli	a4,a5,0x33
   16354:	10074e63          	bltz	a4,16470 <__sflush_r+0x1f8>
   16358:	0584b583          	ld	a1,88(s1)
   1635c:	0089a023          	sw	s0,0(s3)
   16360:	00058c63          	beqz	a1,16378 <__sflush_r+0x100>
   16364:	07448793          	addi	a5,s1,116
   16368:	00f58663          	beq	a1,a5,16374 <__sflush_r+0xfc>
   1636c:	00098513          	mv	a0,s3
   16370:	0e5000ef          	jal	16c54 <_free_r>
   16374:	0404bc23          	sd	zero,88(s1)
   16378:	00000513          	li	a0,0
   1637c:	02813083          	ld	ra,40(sp)
   16380:	02013403          	ld	s0,32(sp)
   16384:	01813483          	ld	s1,24(sp)
   16388:	01013903          	ld	s2,16(sp)
   1638c:	00813983          	ld	s3,8(sp)
   16390:	03010113          	addi	sp,sp,48
   16394:	00008067          	ret
   16398:	0185b903          	ld	s2,24(a1)
   1639c:	fc090ee3          	beqz	s2,16378 <__sflush_r+0x100>
   163a0:	0005b403          	ld	s0,0(a1)
   163a4:	00377713          	andi	a4,a4,3
   163a8:	0125b023          	sd	s2,0(a1)
   163ac:	4124043b          	subw	s0,s0,s2
   163b0:	00000793          	li	a5,0
   163b4:	00071463          	bnez	a4,163bc <__sflush_r+0x144>
   163b8:	0205a783          	lw	a5,32(a1)
   163bc:	00f4a623          	sw	a5,12(s1)
   163c0:	00804863          	bgtz	s0,163d0 <__sflush_r+0x158>
   163c4:	fb5ff06f          	j	16378 <__sflush_r+0x100>
   163c8:	00a90933          	add	s2,s2,a0
   163cc:	fa8056e3          	blez	s0,16378 <__sflush_r+0x100>
   163d0:	0404b783          	ld	a5,64(s1)
   163d4:	0304b583          	ld	a1,48(s1)
   163d8:	00040693          	mv	a3,s0
   163dc:	00090613          	mv	a2,s2
   163e0:	00098513          	mv	a0,s3
   163e4:	000780e7          	jalr	a5
   163e8:	40a4043b          	subw	s0,s0,a0
   163ec:	fca04ee3          	bgtz	a0,163c8 <__sflush_r+0x150>
   163f0:	0104d783          	lhu	a5,16(s1)
   163f4:	02813083          	ld	ra,40(sp)
   163f8:	fff00513          	li	a0,-1
   163fc:	0407e793          	ori	a5,a5,64
   16400:	00f49823          	sh	a5,16(s1)
   16404:	02013403          	ld	s0,32(sp)
   16408:	01813483          	ld	s1,24(sp)
   1640c:	01013903          	ld	s2,16(sp)
   16410:	00813983          	ld	s3,8(sp)
   16414:	03010113          	addi	sp,sp,48
   16418:	00008067          	ret
   1641c:	0009a703          	lw	a4,0(s3)
   16420:	01d00793          	li	a5,29
   16424:	fce7e6e3          	bltu	a5,a4,163f0 <__sflush_r+0x178>
   16428:	204007b7          	lui	a5,0x20400
   1642c:	00178793          	addi	a5,a5,1 # 20400001 <_end+0x203d9259>
   16430:	00e7d7b3          	srl	a5,a5,a4
   16434:	0017f793          	andi	a5,a5,1
   16438:	fa078ce3          	beqz	a5,163f0 <__sflush_r+0x178>
   1643c:	0104d603          	lhu	a2,16(s1)
   16440:	fffff7b7          	lui	a5,0xfffff
   16444:	7ff7879b          	addiw	a5,a5,2047
   16448:	0184b683          	ld	a3,24(s1)
   1644c:	00f677b3          	and	a5,a2,a5
   16450:	0107979b          	slliw	a5,a5,0x10
   16454:	4107d79b          	sraiw	a5,a5,0x10
   16458:	00d4b023          	sd	a3,0(s1)
   1645c:	00f49823          	sh	a5,16(s1)
   16460:	0004a423          	sw	zero,8(s1)
   16464:	03379693          	slli	a3,a5,0x33
   16468:	ee06d8e3          	bgez	a3,16358 <__sflush_r+0xe0>
   1646c:	ee0716e3          	bnez	a4,16358 <__sflush_r+0xe0>
   16470:	08a4b823          	sd	a0,144(s1)
   16474:	ee5ff06f          	j	16358 <__sflush_r+0xe0>
   16478:	0705a703          	lw	a4,112(a1)
   1647c:	e4e048e3          	bgtz	a4,162cc <__sflush_r+0x54>
   16480:	ef9ff06f          	j	16378 <__sflush_r+0x100>
   16484:	0304b583          	ld	a1,48(s1)
   16488:	00000613          	li	a2,0
   1648c:	00100693          	li	a3,1
   16490:	00098513          	mv	a0,s3
   16494:	000700e7          	jalr	a4
   16498:	fff00793          	li	a5,-1
   1649c:	00050613          	mv	a2,a0
   164a0:	00f50863          	beq	a0,a5,164b0 <__sflush_r+0x238>
   164a4:	0104d783          	lhu	a5,16(s1)
   164a8:	0484b703          	ld	a4,72(s1)
   164ac:	e45ff06f          	j	162f0 <__sflush_r+0x78>
   164b0:	0009a783          	lw	a5,0(s3)
   164b4:	fe0788e3          	beqz	a5,164a4 <__sflush_r+0x22c>
   164b8:	01d00713          	li	a4,29
   164bc:	00e78663          	beq	a5,a4,164c8 <__sflush_r+0x250>
   164c0:	01600713          	li	a4,22
   164c4:	00e79863          	bne	a5,a4,164d4 <__sflush_r+0x25c>
   164c8:	0089a023          	sw	s0,0(s3)
   164cc:	00000513          	li	a0,0
   164d0:	eadff06f          	j	1637c <__sflush_r+0x104>
   164d4:	0104d783          	lhu	a5,16(s1)
   164d8:	0407e793          	ori	a5,a5,64
   164dc:	00f49823          	sh	a5,16(s1)
   164e0:	e9dff06f          	j	1637c <__sflush_r+0x104>

00000000000164e4 <_fflush_r>:
   164e4:	fe010113          	addi	sp,sp,-32
   164e8:	00813823          	sd	s0,16(sp)
   164ec:	00113c23          	sd	ra,24(sp)
   164f0:	00050413          	mv	s0,a0
   164f4:	00050663          	beqz	a0,16500 <_fflush_r+0x1c>
   164f8:	05052783          	lw	a5,80(a0)
   164fc:	02078a63          	beqz	a5,16530 <_fflush_r+0x4c>
   16500:	01059783          	lh	a5,16(a1)
   16504:	00079c63          	bnez	a5,1651c <_fflush_r+0x38>
   16508:	01813083          	ld	ra,24(sp)
   1650c:	00000513          	li	a0,0
   16510:	01013403          	ld	s0,16(sp)
   16514:	02010113          	addi	sp,sp,32
   16518:	00008067          	ret
   1651c:	00040513          	mv	a0,s0
   16520:	01813083          	ld	ra,24(sp)
   16524:	01013403          	ld	s0,16(sp)
   16528:	02010113          	addi	sp,sp,32
   1652c:	d4dff06f          	j	16278 <__sflush_r>
   16530:	00b13423          	sd	a1,8(sp)
   16534:	35c000ef          	jal	16890 <__sinit>
   16538:	00813583          	ld	a1,8(sp)
   1653c:	fc5ff06f          	j	16500 <_fflush_r+0x1c>

0000000000016540 <fflush>:
   16540:	00050593          	mv	a1,a0
   16544:	00050663          	beqz	a0,16550 <fflush+0x10>
   16548:	8101b503          	ld	a0,-2032(gp) # 243e0 <_impure_ptr>
   1654c:	f99ff06f          	j	164e4 <_fflush_r>
   16550:	8081b503          	ld	a0,-2040(gp) # 243d8 <_global_impure_ptr>
   16554:	000165b7          	lui	a1,0x16
   16558:	4e458593          	addi	a1,a1,1252 # 164e4 <_fflush_r>
   1655c:	76d0006f          	j	174c8 <_fwalk_reent>

0000000000016560 <__fp_unlock>:
   16560:	00000513          	li	a0,0
   16564:	00008067          	ret

0000000000016568 <_cleanup_r>:
   16568:	0001e5b7          	lui	a1,0x1e
   1656c:	20c58593          	addi	a1,a1,524 # 1e20c <_fclose_r>
   16570:	7590006f          	j	174c8 <_fwalk_reent>

0000000000016574 <__sinit.part.1>:
   16574:	fc010113          	addi	sp,sp,-64
   16578:	000167b7          	lui	a5,0x16
   1657c:	02113c23          	sd	ra,56(sp)
   16580:	02813823          	sd	s0,48(sp)
   16584:	02913423          	sd	s1,40(sp)
   16588:	00853403          	ld	s0,8(a0)
   1658c:	03213023          	sd	s2,32(sp)
   16590:	01313c23          	sd	s3,24(sp)
   16594:	01413823          	sd	s4,16(sp)
   16598:	01513423          	sd	s5,8(sp)
   1659c:	01613023          	sd	s6,0(sp)
   165a0:	56878793          	addi	a5,a5,1384 # 16568 <_cleanup_r>
   165a4:	04f53c23          	sd	a5,88(a0)
   165a8:	53850713          	addi	a4,a0,1336
   165ac:	00300793          	li	a5,3
   165b0:	52e53823          	sd	a4,1328(a0)
   165b4:	52f52423          	sw	a5,1320(a0)
   165b8:	52053023          	sd	zero,1312(a0)
   165bc:	00400793          	li	a5,4
   165c0:	00050913          	mv	s2,a0
   165c4:	00f41823          	sh	a5,16(s0)
   165c8:	00800613          	li	a2,8
   165cc:	00000593          	li	a1,0
   165d0:	00043023          	sd	zero,0(s0)
   165d4:	00042423          	sw	zero,8(s0)
   165d8:	00042623          	sw	zero,12(s0)
   165dc:	0a042623          	sw	zero,172(s0)
   165e0:	00041923          	sh	zero,18(s0)
   165e4:	00043c23          	sd	zero,24(s0)
   165e8:	02042023          	sw	zero,32(s0)
   165ec:	02042423          	sw	zero,40(s0)
   165f0:	0a440513          	addi	a0,s0,164
   165f4:	69c010ef          	jal	17c90 <memset>
   165f8:	00019b37          	lui	s6,0x19
   165fc:	01093483          	ld	s1,16(s2)
   16600:	0001aab7          	lui	s5,0x1a
   16604:	0001aa37          	lui	s4,0x1a
   16608:	0001a9b7          	lui	s3,0x1a
   1660c:	7d8b0b13          	addi	s6,s6,2008 # 197d8 <__sread>
   16610:	844a8a93          	addi	s5,s5,-1980 # 19844 <__swrite>
   16614:	8b4a0a13          	addi	s4,s4,-1868 # 198b4 <__sseek>
   16618:	92098993          	addi	s3,s3,-1760 # 19920 <__sclose>
   1661c:	03643c23          	sd	s6,56(s0)
   16620:	05543023          	sd	s5,64(s0)
   16624:	05443423          	sd	s4,72(s0)
   16628:	05343823          	sd	s3,80(s0)
   1662c:	02843823          	sd	s0,48(s0)
   16630:	00900793          	li	a5,9
   16634:	00f49823          	sh	a5,16(s1)
   16638:	00100793          	li	a5,1
   1663c:	00f49923          	sh	a5,18(s1)
   16640:	00800613          	li	a2,8
   16644:	00000593          	li	a1,0
   16648:	0004b023          	sd	zero,0(s1)
   1664c:	0004a423          	sw	zero,8(s1)
   16650:	0004a623          	sw	zero,12(s1)
   16654:	0a04a623          	sw	zero,172(s1)
   16658:	0004bc23          	sd	zero,24(s1)
   1665c:	0204a023          	sw	zero,32(s1)
   16660:	0204a423          	sw	zero,40(s1)
   16664:	0a448513          	addi	a0,s1,164
   16668:	628010ef          	jal	17c90 <memset>
   1666c:	01893403          	ld	s0,24(s2)
   16670:	01200793          	li	a5,18
   16674:	0364bc23          	sd	s6,56(s1)
   16678:	0554b023          	sd	s5,64(s1)
   1667c:	0544b423          	sd	s4,72(s1)
   16680:	0534b823          	sd	s3,80(s1)
   16684:	0294b823          	sd	s1,48(s1)
   16688:	00f41823          	sh	a5,16(s0)
   1668c:	00200793          	li	a5,2
   16690:	00f41923          	sh	a5,18(s0)
   16694:	00043023          	sd	zero,0(s0)
   16698:	00042423          	sw	zero,8(s0)
   1669c:	00042623          	sw	zero,12(s0)
   166a0:	0a042623          	sw	zero,172(s0)
   166a4:	00043c23          	sd	zero,24(s0)
   166a8:	02042023          	sw	zero,32(s0)
   166ac:	02042423          	sw	zero,40(s0)
   166b0:	0a440513          	addi	a0,s0,164
   166b4:	00800613          	li	a2,8
   166b8:	00000593          	li	a1,0
   166bc:	5d4010ef          	jal	17c90 <memset>
   166c0:	03813083          	ld	ra,56(sp)
   166c4:	03643c23          	sd	s6,56(s0)
   166c8:	05543023          	sd	s5,64(s0)
   166cc:	05443423          	sd	s4,72(s0)
   166d0:	05343823          	sd	s3,80(s0)
   166d4:	02843823          	sd	s0,48(s0)
   166d8:	00100793          	li	a5,1
   166dc:	04f92823          	sw	a5,80(s2)
   166e0:	03013403          	ld	s0,48(sp)
   166e4:	02813483          	ld	s1,40(sp)
   166e8:	02013903          	ld	s2,32(sp)
   166ec:	01813983          	ld	s3,24(sp)
   166f0:	01013a03          	ld	s4,16(sp)
   166f4:	00813a83          	ld	s5,8(sp)
   166f8:	00013b03          	ld	s6,0(sp)
   166fc:	04010113          	addi	sp,sp,64
   16700:	00008067          	ret

0000000000016704 <__fp_lock>:
   16704:	00000513          	li	a0,0
   16708:	00008067          	ret

000000000001670c <__sfmoreglue>:
   1670c:	fe010113          	addi	sp,sp,-32
   16710:	fff5879b          	addiw	a5,a1,-1
   16714:	00913423          	sd	s1,8(sp)
   16718:	0b000493          	li	s1,176
   1671c:	029784b3          	mul	s1,a5,s1
   16720:	01213023          	sd	s2,0(sp)
   16724:	00058913          	mv	s2,a1
   16728:	00813823          	sd	s0,16(sp)
   1672c:	00113c23          	sd	ra,24(sp)
   16730:	0c848593          	addi	a1,s1,200
   16734:	dd8fa0ef          	jal	10d0c <_malloc_r>
   16738:	00050413          	mv	s0,a0
   1673c:	02050063          	beqz	a0,1675c <__sfmoreglue+0x50>
   16740:	01850513          	addi	a0,a0,24
   16744:	00043023          	sd	zero,0(s0)
   16748:	01242423          	sw	s2,8(s0)
   1674c:	00a43823          	sd	a0,16(s0)
   16750:	0b048613          	addi	a2,s1,176
   16754:	00000593          	li	a1,0
   16758:	538010ef          	jal	17c90 <memset>
   1675c:	01813083          	ld	ra,24(sp)
   16760:	00040513          	mv	a0,s0
   16764:	00813483          	ld	s1,8(sp)
   16768:	01013403          	ld	s0,16(sp)
   1676c:	00013903          	ld	s2,0(sp)
   16770:	02010113          	addi	sp,sp,32
   16774:	00008067          	ret

0000000000016778 <__sfp>:
   16778:	fd010113          	addi	sp,sp,-48
   1677c:	01213823          	sd	s2,16(sp)
   16780:	8081b903          	ld	s2,-2040(gp) # 243d8 <_global_impure_ptr>
   16784:	01313423          	sd	s3,8(sp)
   16788:	02113423          	sd	ra,40(sp)
   1678c:	05092783          	lw	a5,80(s2)
   16790:	02813023          	sd	s0,32(sp)
   16794:	00913c23          	sd	s1,24(sp)
   16798:	00050993          	mv	s3,a0
   1679c:	00079663          	bnez	a5,167a8 <__sfp+0x30>
   167a0:	00090513          	mv	a0,s2
   167a4:	dd1ff0ef          	jal	16574 <__sinit.part.1>
   167a8:	52090913          	addi	s2,s2,1312
   167ac:	fff00493          	li	s1,-1
   167b0:	00892783          	lw	a5,8(s2)
   167b4:	01093403          	ld	s0,16(s2)
   167b8:	fff7879b          	addiw	a5,a5,-1
   167bc:	0007da63          	bgez	a5,167d0 <__sfp+0x58>
   167c0:	0840006f          	j	16844 <__sfp+0xcc>
   167c4:	fff7879b          	addiw	a5,a5,-1
   167c8:	0b040413          	addi	s0,s0,176
   167cc:	06978c63          	beq	a5,s1,16844 <__sfp+0xcc>
   167d0:	01041703          	lh	a4,16(s0)
   167d4:	fe0718e3          	bnez	a4,167c4 <__sfp+0x4c>
   167d8:	fff00793          	li	a5,-1
   167dc:	00f41923          	sh	a5,18(s0)
   167e0:	00100793          	li	a5,1
   167e4:	00f41823          	sh	a5,16(s0)
   167e8:	0a042623          	sw	zero,172(s0)
   167ec:	00043023          	sd	zero,0(s0)
   167f0:	00042623          	sw	zero,12(s0)
   167f4:	00042423          	sw	zero,8(s0)
   167f8:	00043c23          	sd	zero,24(s0)
   167fc:	02042023          	sw	zero,32(s0)
   16800:	02042423          	sw	zero,40(s0)
   16804:	00800613          	li	a2,8
   16808:	00000593          	li	a1,0
   1680c:	0a440513          	addi	a0,s0,164
   16810:	480010ef          	jal	17c90 <memset>
   16814:	00040513          	mv	a0,s0
   16818:	04043c23          	sd	zero,88(s0)
   1681c:	06042023          	sw	zero,96(s0)
   16820:	06043c23          	sd	zero,120(s0)
   16824:	08042023          	sw	zero,128(s0)
   16828:	02813083          	ld	ra,40(sp)
   1682c:	02013403          	ld	s0,32(sp)
   16830:	01813483          	ld	s1,24(sp)
   16834:	01013903          	ld	s2,16(sp)
   16838:	00813983          	ld	s3,8(sp)
   1683c:	03010113          	addi	sp,sp,48
   16840:	00008067          	ret
   16844:	00093783          	ld	a5,0(s2)
   16848:	00078663          	beqz	a5,16854 <__sfp+0xdc>
   1684c:	00078913          	mv	s2,a5
   16850:	f61ff06f          	j	167b0 <__sfp+0x38>
   16854:	00400593          	li	a1,4
   16858:	00098513          	mv	a0,s3
   1685c:	eb1ff0ef          	jal	1670c <__sfmoreglue>
   16860:	00a93023          	sd	a0,0(s2)
   16864:	00050663          	beqz	a0,16870 <__sfp+0xf8>
   16868:	00050913          	mv	s2,a0
   1686c:	f45ff06f          	j	167b0 <__sfp+0x38>
   16870:	00c00793          	li	a5,12
   16874:	00f9a023          	sw	a5,0(s3)
   16878:	00000513          	li	a0,0
   1687c:	fadff06f          	j	16828 <__sfp+0xb0>

0000000000016880 <_cleanup>:
   16880:	8081b503          	ld	a0,-2040(gp) # 243d8 <_global_impure_ptr>
   16884:	0001e5b7          	lui	a1,0x1e
   16888:	20c58593          	addi	a1,a1,524 # 1e20c <_fclose_r>
   1688c:	43d0006f          	j	174c8 <_fwalk_reent>

0000000000016890 <__sinit>:
   16890:	05052783          	lw	a5,80(a0)
   16894:	00078463          	beqz	a5,1689c <__sinit+0xc>
   16898:	00008067          	ret
   1689c:	cd9ff06f          	j	16574 <__sinit.part.1>

00000000000168a0 <__sfp_lock_acquire>:
   168a0:	00008067          	ret

00000000000168a4 <__sfp_lock_release>:
   168a4:	00008067          	ret

00000000000168a8 <__sinit_lock_acquire>:
   168a8:	00008067          	ret

00000000000168ac <__sinit_lock_release>:
   168ac:	00008067          	ret

00000000000168b0 <__fp_lock_all>:
   168b0:	8101b503          	ld	a0,-2032(gp) # 243e0 <_impure_ptr>
   168b4:	000165b7          	lui	a1,0x16
   168b8:	70458593          	addi	a1,a1,1796 # 16704 <__fp_lock>
   168bc:	35d0006f          	j	17418 <_fwalk>

00000000000168c0 <__fp_unlock_all>:
   168c0:	8101b503          	ld	a0,-2032(gp) # 243e0 <_impure_ptr>
   168c4:	000165b7          	lui	a1,0x16
   168c8:	56058593          	addi	a1,a1,1376 # 16560 <__fp_unlock>
   168cc:	34d0006f          	j	17418 <_fwalk>

00000000000168d0 <_fread_r>:
   168d0:	fa010113          	addi	sp,sp,-96
   168d4:	03613023          	sd	s6,32(sp)
   168d8:	02c68b33          	mul	s6,a3,a2
   168dc:	04113c23          	sd	ra,88(sp)
   168e0:	04813823          	sd	s0,80(sp)
   168e4:	04913423          	sd	s1,72(sp)
   168e8:	05213023          	sd	s2,64(sp)
   168ec:	03313c23          	sd	s3,56(sp)
   168f0:	03413823          	sd	s4,48(sp)
   168f4:	03513423          	sd	s5,40(sp)
   168f8:	01713c23          	sd	s7,24(sp)
   168fc:	01813823          	sd	s8,16(sp)
   16900:	01913423          	sd	s9,8(sp)
   16904:	01a13023          	sd	s10,0(sp)
   16908:	1c0b0863          	beqz	s6,16ad8 <_fread_r+0x208>
   1690c:	00060b93          	mv	s7,a2
   16910:	00068a93          	mv	s5,a3
   16914:	00050a13          	mv	s4,a0
   16918:	00058913          	mv	s2,a1
   1691c:	00070413          	mv	s0,a4
   16920:	00050663          	beqz	a0,1692c <_fread_r+0x5c>
   16924:	05052783          	lw	a5,80(a0)
   16928:	1c078a63          	beqz	a5,16afc <_fread_r+0x22c>
   1692c:	01041683          	lh	a3,16(s0)
   16930:	03069793          	slli	a5,a3,0x30
   16934:	0307d793          	srli	a5,a5,0x30
   16938:	03279713          	slli	a4,a5,0x32
   1693c:	02074a63          	bltz	a4,16970 <_fread_r+0xa0>
   16940:	000027b7          	lui	a5,0x2
   16944:	0ac42603          	lw	a2,172(s0)
   16948:	00f6e7b3          	or	a5,a3,a5
   1694c:	0107979b          	slliw	a5,a5,0x10
   16950:	ffffe737          	lui	a4,0xffffe
   16954:	4107d79b          	sraiw	a5,a5,0x10
   16958:	fff7071b          	addiw	a4,a4,-1
   1695c:	00e67733          	and	a4,a2,a4
   16960:	00f41823          	sh	a5,16(s0)
   16964:	03079793          	slli	a5,a5,0x30
   16968:	0ae42623          	sw	a4,172(s0)
   1696c:	0307d793          	srli	a5,a5,0x30
   16970:	00842483          	lw	s1,8(s0)
   16974:	00048713          	mv	a4,s1
   16978:	1604c463          	bltz	s1,16ae0 <_fread_r+0x210>
   1697c:	0027f793          	andi	a5,a5,2
   16980:	000b0993          	mv	s3,s6
   16984:	0e078463          	beqz	a5,16a6c <_fread_r+0x19c>
   16988:	000b0493          	mv	s1,s6
   1698c:	01677463          	bleu	s6,a4,16994 <_fread_r+0xc4>
   16990:	00070493          	mv	s1,a4
   16994:	00043583          	ld	a1,0(s0)
   16998:	00048613          	mv	a2,s1
   1699c:	00090513          	mv	a0,s2
   169a0:	addfa0ef          	jal	1147c <memcpy>
   169a4:	00842703          	lw	a4,8(s0)
   169a8:	00043c03          	ld	s8,0(s0)
   169ac:	0004879b          	sext.w	a5,s1
   169b0:	05843583          	ld	a1,88(s0)
   169b4:	009c0c33          	add	s8,s8,s1
   169b8:	40f707bb          	subw	a5,a4,a5
   169bc:	01843023          	sd	s8,0(s0)
   169c0:	00f42423          	sw	a5,8(s0)
   169c4:	409b09b3          	sub	s3,s6,s1
   169c8:	14058863          	beqz	a1,16b18 <_fread_r+0x248>
   169cc:	14098863          	beqz	s3,16b1c <_fread_r+0x24c>
   169d0:	07440793          	addi	a5,s0,116
   169d4:	00f58863          	beq	a1,a5,169e4 <_fread_r+0x114>
   169d8:	000a0513          	mv	a0,s4
   169dc:	278000ef          	jal	16c54 <_free_r>
   169e0:	00043c03          	ld	s8,0(s0)
   169e4:	04043c23          	sd	zero,88(s0)
   169e8:	01843d03          	ld	s10,24(s0)
   169ec:	02042c83          	lw	s9,32(s0)
   169f0:	00990933          	add	s2,s2,s1
   169f4:	0080006f          	j	169fc <_fread_r+0x12c>
   169f8:	12098263          	beqz	s3,16b1c <_fread_r+0x24c>
   169fc:	01243c23          	sd	s2,24(s0)
   16a00:	03342023          	sw	s3,32(s0)
   16a04:	01243023          	sd	s2,0(s0)
   16a08:	00040593          	mv	a1,s0
   16a0c:	000a0513          	mv	a0,s4
   16a10:	159020ef          	jal	19368 <__srefill_r>
   16a14:	00842783          	lw	a5,8(s0)
   16a18:	01a43c23          	sd	s10,24(s0)
   16a1c:	03942023          	sw	s9,32(s0)
   16a20:	01843023          	sd	s8,0(s0)
   16a24:	00042423          	sw	zero,8(s0)
   16a28:	40f989b3          	sub	s3,s3,a5
   16a2c:	00f90933          	add	s2,s2,a5
   16a30:	fc0504e3          	beqz	a0,169f8 <_fread_r+0x128>
   16a34:	413b09b3          	sub	s3,s6,s3
   16a38:	0379d533          	divu	a0,s3,s7
   16a3c:	0640006f          	j	16aa0 <_fread_r+0x1d0>
   16a40:	a3dfa0ef          	jal	1147c <memcpy>
   16a44:	00043783          	ld	a5,0(s0)
   16a48:	00990933          	add	s2,s2,s1
   16a4c:	409989b3          	sub	s3,s3,s1
   16a50:	009784b3          	add	s1,a5,s1
   16a54:	00040593          	mv	a1,s0
   16a58:	000a0513          	mv	a0,s4
   16a5c:	00943023          	sd	s1,0(s0)
   16a60:	109020ef          	jal	19368 <__srefill_r>
   16a64:	fc0518e3          	bnez	a0,16a34 <_fread_r+0x164>
   16a68:	00842483          	lw	s1,8(s0)
   16a6c:	00048613          	mv	a2,s1
   16a70:	00090513          	mv	a0,s2
   16a74:	00043583          	ld	a1,0(s0)
   16a78:	fd34e4e3          	bltu	s1,s3,16a40 <_fread_r+0x170>
   16a7c:	00098613          	mv	a2,s3
   16a80:	9fdfa0ef          	jal	1147c <memcpy>
   16a84:	00842703          	lw	a4,8(s0)
   16a88:	00043783          	ld	a5,0(s0)
   16a8c:	000a8513          	mv	a0,s5
   16a90:	4137073b          	subw	a4,a4,s3
   16a94:	013789b3          	add	s3,a5,s3
   16a98:	00e42423          	sw	a4,8(s0)
   16a9c:	01343023          	sd	s3,0(s0)
   16aa0:	05813083          	ld	ra,88(sp)
   16aa4:	05013403          	ld	s0,80(sp)
   16aa8:	04813483          	ld	s1,72(sp)
   16aac:	04013903          	ld	s2,64(sp)
   16ab0:	03813983          	ld	s3,56(sp)
   16ab4:	03013a03          	ld	s4,48(sp)
   16ab8:	02813a83          	ld	s5,40(sp)
   16abc:	02013b03          	ld	s6,32(sp)
   16ac0:	01813b83          	ld	s7,24(sp)
   16ac4:	01013c03          	ld	s8,16(sp)
   16ac8:	00813c83          	ld	s9,8(sp)
   16acc:	00013d03          	ld	s10,0(sp)
   16ad0:	06010113          	addi	sp,sp,96
   16ad4:	00008067          	ret
   16ad8:	00000513          	li	a0,0
   16adc:	fc5ff06f          	j	16aa0 <_fread_r+0x1d0>
   16ae0:	00042423          	sw	zero,8(s0)
   16ae4:	0027f793          	andi	a5,a5,2
   16ae8:	00000713          	li	a4,0
   16aec:	00000493          	li	s1,0
   16af0:	000b0993          	mv	s3,s6
   16af4:	f6078ce3          	beqz	a5,16a6c <_fread_r+0x19c>
   16af8:	e91ff06f          	j	16988 <_fread_r+0xb8>
   16afc:	d95ff0ef          	jal	16890 <__sinit>
   16b00:	01041683          	lh	a3,16(s0)
   16b04:	03069793          	slli	a5,a3,0x30
   16b08:	0307d793          	srli	a5,a5,0x30
   16b0c:	03279713          	slli	a4,a5,0x32
   16b10:	e60740e3          	bltz	a4,16970 <_fread_r+0xa0>
   16b14:	e2dff06f          	j	16940 <_fread_r+0x70>
   16b18:	ec0998e3          	bnez	s3,169e8 <_fread_r+0x118>
   16b1c:	000a8513          	mv	a0,s5
   16b20:	f81ff06f          	j	16aa0 <_fread_r+0x1d0>

0000000000016b24 <fread>:
   16b24:	00068713          	mv	a4,a3
   16b28:	00060693          	mv	a3,a2
   16b2c:	00058613          	mv	a2,a1
   16b30:	00050593          	mv	a1,a0
   16b34:	8101b503          	ld	a0,-2032(gp) # 243e0 <_impure_ptr>
   16b38:	d99ff06f          	j	168d0 <_fread_r>

0000000000016b3c <_malloc_trim_r>:
   16b3c:	fd010113          	addi	sp,sp,-48
   16b40:	01213823          	sd	s2,16(sp)
   16b44:	00024937          	lui	s2,0x24
   16b48:	02813023          	sd	s0,32(sp)
   16b4c:	00913c23          	sd	s1,24(sp)
   16b50:	00058413          	mv	s0,a1
   16b54:	01313423          	sd	s3,8(sp)
   16b58:	02113423          	sd	ra,40(sp)
   16b5c:	00050993          	mv	s3,a0
   16b60:	b1890913          	addi	s2,s2,-1256 # 23b18 <__malloc_av_>
   16b64:	a39fa0ef          	jal	1159c <__malloc_lock>
   16b68:	01093703          	ld	a4,16(s2)
   16b6c:	000017b7          	lui	a5,0x1
   16b70:	fdf78593          	addi	a1,a5,-33 # fdf <_ftext-0xf021>
   16b74:	00873483          	ld	s1,8(a4) # ffffffffffffe008 <_end+0xfffffffffffd7260>
   16b78:	ffc4f493          	andi	s1,s1,-4
   16b7c:	40848433          	sub	s0,s1,s0
   16b80:	00b40433          	add	s0,s0,a1
   16b84:	00c45413          	srli	s0,s0,0xc
   16b88:	fff40413          	addi	s0,s0,-1
   16b8c:	00c41413          	slli	s0,s0,0xc
   16b90:	00f44c63          	blt	s0,a5,16ba8 <_malloc_trim_r+0x6c>
   16b94:	00000513          	li	a0,0
   16b98:	2a9090ef          	jal	20640 <sbrk>
   16b9c:	01093783          	ld	a5,16(s2)
   16ba0:	009787b3          	add	a5,a5,s1
   16ba4:	02f50663          	beq	a0,a5,16bd0 <_malloc_trim_r+0x94>
   16ba8:	00098513          	mv	a0,s3
   16bac:	9f5fa0ef          	jal	115a0 <__malloc_unlock>
   16bb0:	02813083          	ld	ra,40(sp)
   16bb4:	00000513          	li	a0,0
   16bb8:	02013403          	ld	s0,32(sp)
   16bbc:	01813483          	ld	s1,24(sp)
   16bc0:	01013903          	ld	s2,16(sp)
   16bc4:	00813983          	ld	s3,8(sp)
   16bc8:	03010113          	addi	sp,sp,48
   16bcc:	00008067          	ret
   16bd0:	40800533          	neg	a0,s0
   16bd4:	26d090ef          	jal	20640 <sbrk>
   16bd8:	fff00793          	li	a5,-1
   16bdc:	04f50463          	beq	a0,a5,16c24 <_malloc_trim_r+0xe8>
   16be0:	9681a783          	lw	a5,-1688(gp) # 24538 <__malloc_current_mallinfo>
   16be4:	01093683          	ld	a3,16(s2)
   16be8:	408484b3          	sub	s1,s1,s0
   16bec:	0014e493          	ori	s1,s1,1
   16bf0:	4087843b          	subw	s0,a5,s0
   16bf4:	00098513          	mv	a0,s3
   16bf8:	0096b423          	sd	s1,8(a3)
   16bfc:	9681a423          	sw	s0,-1688(gp) # 24538 <__malloc_current_mallinfo>
   16c00:	9a1fa0ef          	jal	115a0 <__malloc_unlock>
   16c04:	02813083          	ld	ra,40(sp)
   16c08:	00100513          	li	a0,1
   16c0c:	02013403          	ld	s0,32(sp)
   16c10:	01813483          	ld	s1,24(sp)
   16c14:	01013903          	ld	s2,16(sp)
   16c18:	00813983          	ld	s3,8(sp)
   16c1c:	03010113          	addi	sp,sp,48
   16c20:	00008067          	ret
   16c24:	00000513          	li	a0,0
   16c28:	219090ef          	jal	20640 <sbrk>
   16c2c:	01093703          	ld	a4,16(s2)
   16c30:	01f00693          	li	a3,31
   16c34:	40e507b3          	sub	a5,a0,a4
   16c38:	f6f6d8e3          	ble	a5,a3,16ba8 <_malloc_trim_r+0x6c>
   16c3c:	8181b683          	ld	a3,-2024(gp) # 243e8 <__malloc_sbrk_base>
   16c40:	0017e793          	ori	a5,a5,1
   16c44:	00f73423          	sd	a5,8(a4)
   16c48:	40d50533          	sub	a0,a0,a3
   16c4c:	96a1a423          	sw	a0,-1688(gp) # 24538 <__malloc_current_mallinfo>
   16c50:	f59ff06f          	j	16ba8 <_malloc_trim_r+0x6c>

0000000000016c54 <_free_r>:
   16c54:	10058263          	beqz	a1,16d58 <_free_r+0x104>
   16c58:	fe010113          	addi	sp,sp,-32
   16c5c:	00813823          	sd	s0,16(sp)
   16c60:	00913423          	sd	s1,8(sp)
   16c64:	00058413          	mv	s0,a1
   16c68:	00050493          	mv	s1,a0
   16c6c:	00113c23          	sd	ra,24(sp)
   16c70:	92dfa0ef          	jal	1159c <__malloc_lock>
   16c74:	ff843503          	ld	a0,-8(s0)
   16c78:	ff040693          	addi	a3,s0,-16
   16c7c:	000245b7          	lui	a1,0x24
   16c80:	ffe57793          	andi	a5,a0,-2
   16c84:	00f68633          	add	a2,a3,a5
   16c88:	b1858593          	addi	a1,a1,-1256 # 23b18 <__malloc_av_>
   16c8c:	00863703          	ld	a4,8(a2)
   16c90:	0105b803          	ld	a6,16(a1)
   16c94:	ffc77713          	andi	a4,a4,-4
   16c98:	17060663          	beq	a2,a6,16e04 <_free_r+0x1b0>
   16c9c:	00e63423          	sd	a4,8(a2)
   16ca0:	00157513          	andi	a0,a0,1
   16ca4:	02051663          	bnez	a0,16cd0 <_free_r+0x7c>
   16ca8:	ff043503          	ld	a0,-16(s0)
   16cac:	40a686b3          	sub	a3,a3,a0
   16cb0:	0106b803          	ld	a6,16(a3)
   16cb4:	00a787b3          	add	a5,a5,a0
   16cb8:	00024537          	lui	a0,0x24
   16cbc:	b2850513          	addi	a0,a0,-1240 # 23b28 <__malloc_av_+0x10>
   16cc0:	18a80863          	beq	a6,a0,16e50 <_free_r+0x1fc>
   16cc4:	0186b503          	ld	a0,24(a3)
   16cc8:	00a83c23          	sd	a0,24(a6)
   16ccc:	01053823          	sd	a6,16(a0)
   16cd0:	00e60533          	add	a0,a2,a4
   16cd4:	00853503          	ld	a0,8(a0)
   16cd8:	00157513          	andi	a0,a0,1
   16cdc:	0e050a63          	beqz	a0,16dd0 <_free_r+0x17c>
   16ce0:	0017e713          	ori	a4,a5,1
   16ce4:	00e6b423          	sd	a4,8(a3)
   16ce8:	00f68733          	add	a4,a3,a5
   16cec:	00f73023          	sd	a5,0(a4)
   16cf0:	1ff00713          	li	a4,511
   16cf4:	06f76463          	bltu	a4,a5,16d5c <_free_r+0x108>
   16cf8:	0037d793          	srli	a5,a5,0x3
   16cfc:	0007879b          	sext.w	a5,a5
   16d00:	0017871b          	addiw	a4,a5,1
   16d04:	0017171b          	slliw	a4,a4,0x1
   16d08:	00371713          	slli	a4,a4,0x3
   16d0c:	0085b603          	ld	a2,8(a1)
   16d10:	00e58733          	add	a4,a1,a4
   16d14:	00073803          	ld	a6,0(a4)
   16d18:	4027d79b          	sraiw	a5,a5,0x2
   16d1c:	00100513          	li	a0,1
   16d20:	00f517b3          	sll	a5,a0,a5
   16d24:	00c7e7b3          	or	a5,a5,a2
   16d28:	ff070613          	addi	a2,a4,-16
   16d2c:	00c6bc23          	sd	a2,24(a3)
   16d30:	0106b823          	sd	a6,16(a3)
   16d34:	00f5b423          	sd	a5,8(a1)
   16d38:	00d73023          	sd	a3,0(a4)
   16d3c:	00d83c23          	sd	a3,24(a6)
   16d40:	00048513          	mv	a0,s1
   16d44:	01813083          	ld	ra,24(sp)
   16d48:	01013403          	ld	s0,16(sp)
   16d4c:	00813483          	ld	s1,8(sp)
   16d50:	02010113          	addi	sp,sp,32
   16d54:	84dfa06f          	j	115a0 <__malloc_unlock>
   16d58:	00008067          	ret
   16d5c:	0097d713          	srli	a4,a5,0x9
   16d60:	00400613          	li	a2,4
   16d64:	12e66263          	bltu	a2,a4,16e88 <_free_r+0x234>
   16d68:	0067d713          	srli	a4,a5,0x6
   16d6c:	0007071b          	sext.w	a4,a4
   16d70:	0397051b          	addiw	a0,a4,57
   16d74:	0387061b          	addiw	a2,a4,56
   16d78:	0015151b          	slliw	a0,a0,0x1
   16d7c:	00351513          	slli	a0,a0,0x3
   16d80:	00a58533          	add	a0,a1,a0
   16d84:	00053703          	ld	a4,0(a0)
   16d88:	ff050513          	addi	a0,a0,-16
   16d8c:	10e50c63          	beq	a0,a4,16ea4 <_free_r+0x250>
   16d90:	00873603          	ld	a2,8(a4)
   16d94:	ffc67613          	andi	a2,a2,-4
   16d98:	00c7f663          	bleu	a2,a5,16da4 <_free_r+0x150>
   16d9c:	01073703          	ld	a4,16(a4)
   16da0:	fee518e3          	bne	a0,a4,16d90 <_free_r+0x13c>
   16da4:	01873503          	ld	a0,24(a4)
   16da8:	00a6bc23          	sd	a0,24(a3)
   16dac:	00e6b823          	sd	a4,16(a3)
   16db0:	00d53823          	sd	a3,16(a0)
   16db4:	01813083          	ld	ra,24(sp)
   16db8:	00048513          	mv	a0,s1
   16dbc:	01013403          	ld	s0,16(sp)
   16dc0:	00813483          	ld	s1,8(sp)
   16dc4:	00d73c23          	sd	a3,24(a4)
   16dc8:	02010113          	addi	sp,sp,32
   16dcc:	fd4fa06f          	j	115a0 <__malloc_unlock>
   16dd0:	01063503          	ld	a0,16(a2)
   16dd4:	00e787b3          	add	a5,a5,a4
   16dd8:	00024737          	lui	a4,0x24
   16ddc:	b2870713          	addi	a4,a4,-1240 # 23b28 <__malloc_av_+0x10>
   16de0:	0ee50263          	beq	a0,a4,16ec4 <_free_r+0x270>
   16de4:	01863803          	ld	a6,24(a2)
   16de8:	0017e613          	ori	a2,a5,1
   16dec:	00f68733          	add	a4,a3,a5
   16df0:	01053c23          	sd	a6,24(a0)
   16df4:	00a83823          	sd	a0,16(a6)
   16df8:	00c6b423          	sd	a2,8(a3)
   16dfc:	00f73023          	sd	a5,0(a4)
   16e00:	ef1ff06f          	j	16cf0 <_free_r+0x9c>
   16e04:	00157513          	andi	a0,a0,1
   16e08:	00e787b3          	add	a5,a5,a4
   16e0c:	02051063          	bnez	a0,16e2c <_free_r+0x1d8>
   16e10:	ff043503          	ld	a0,-16(s0)
   16e14:	40a686b3          	sub	a3,a3,a0
   16e18:	0186b703          	ld	a4,24(a3)
   16e1c:	0106b603          	ld	a2,16(a3)
   16e20:	00a787b3          	add	a5,a5,a0
   16e24:	00e63c23          	sd	a4,24(a2)
   16e28:	00c73823          	sd	a2,16(a4)
   16e2c:	0017e613          	ori	a2,a5,1
   16e30:	8201b703          	ld	a4,-2016(gp) # 243f0 <__malloc_trim_threshold>
   16e34:	00c6b423          	sd	a2,8(a3)
   16e38:	00d5b823          	sd	a3,16(a1)
   16e3c:	f0e7e2e3          	bltu	a5,a4,16d40 <_free_r+0xec>
   16e40:	9101b583          	ld	a1,-1776(gp) # 244e0 <__malloc_top_pad>
   16e44:	00048513          	mv	a0,s1
   16e48:	cf5ff0ef          	jal	16b3c <_malloc_trim_r>
   16e4c:	ef5ff06f          	j	16d40 <_free_r+0xec>
   16e50:	00e605b3          	add	a1,a2,a4
   16e54:	0085b583          	ld	a1,8(a1)
   16e58:	0015f593          	andi	a1,a1,1
   16e5c:	0e059a63          	bnez	a1,16f50 <_free_r+0x2fc>
   16e60:	01063583          	ld	a1,16(a2)
   16e64:	01863603          	ld	a2,24(a2)
   16e68:	00f707b3          	add	a5,a4,a5
   16e6c:	0017e713          	ori	a4,a5,1
   16e70:	00c5bc23          	sd	a2,24(a1)
   16e74:	00b63823          	sd	a1,16(a2)
   16e78:	00e6b423          	sd	a4,8(a3)
   16e7c:	00f686b3          	add	a3,a3,a5
   16e80:	00f6b023          	sd	a5,0(a3)
   16e84:	ebdff06f          	j	16d40 <_free_r+0xec>
   16e88:	01400613          	li	a2,20
   16e8c:	04e66e63          	bltu	a2,a4,16ee8 <_free_r+0x294>
   16e90:	0007071b          	sext.w	a4,a4
   16e94:	05c7051b          	addiw	a0,a4,92
   16e98:	05b7061b          	addiw	a2,a4,91
   16e9c:	0015151b          	slliw	a0,a0,0x1
   16ea0:	eddff06f          	j	16d7c <_free_r+0x128>
   16ea4:	0085b783          	ld	a5,8(a1)
   16ea8:	4026571b          	sraiw	a4,a2,0x2
   16eac:	00100613          	li	a2,1
   16eb0:	00e61733          	sll	a4,a2,a4
   16eb4:	00f767b3          	or	a5,a4,a5
   16eb8:	00f5b423          	sd	a5,8(a1)
   16ebc:	00050713          	mv	a4,a0
   16ec0:	ee9ff06f          	j	16da8 <_free_r+0x154>
   16ec4:	02d5b423          	sd	a3,40(a1)
   16ec8:	02d5b023          	sd	a3,32(a1)
   16ecc:	0017e713          	ori	a4,a5,1
   16ed0:	00a6bc23          	sd	a0,24(a3)
   16ed4:	00a6b823          	sd	a0,16(a3)
   16ed8:	00e6b423          	sd	a4,8(a3)
   16edc:	00f686b3          	add	a3,a3,a5
   16ee0:	00f6b023          	sd	a5,0(a3)
   16ee4:	e5dff06f          	j	16d40 <_free_r+0xec>
   16ee8:	05400613          	li	a2,84
   16eec:	00e66e63          	bltu	a2,a4,16f08 <_free_r+0x2b4>
   16ef0:	00c7d713          	srli	a4,a5,0xc
   16ef4:	0007071b          	sext.w	a4,a4
   16ef8:	06f7051b          	addiw	a0,a4,111
   16efc:	06e7061b          	addiw	a2,a4,110
   16f00:	0015151b          	slliw	a0,a0,0x1
   16f04:	e79ff06f          	j	16d7c <_free_r+0x128>
   16f08:	15400613          	li	a2,340
   16f0c:	00e66e63          	bltu	a2,a4,16f28 <_free_r+0x2d4>
   16f10:	00f7d713          	srli	a4,a5,0xf
   16f14:	0007071b          	sext.w	a4,a4
   16f18:	0787051b          	addiw	a0,a4,120
   16f1c:	0777061b          	addiw	a2,a4,119
   16f20:	0015151b          	slliw	a0,a0,0x1
   16f24:	e59ff06f          	j	16d7c <_free_r+0x128>
   16f28:	55400813          	li	a6,1364
   16f2c:	0fe00513          	li	a0,254
   16f30:	07e00613          	li	a2,126
   16f34:	e4e864e3          	bltu	a6,a4,16d7c <_free_r+0x128>
   16f38:	0127d713          	srli	a4,a5,0x12
   16f3c:	0007071b          	sext.w	a4,a4
   16f40:	07d7051b          	addiw	a0,a4,125
   16f44:	07c7061b          	addiw	a2,a4,124
   16f48:	0015151b          	slliw	a0,a0,0x1
   16f4c:	e31ff06f          	j	16d7c <_free_r+0x128>
   16f50:	0017e713          	ori	a4,a5,1
   16f54:	00e6b423          	sd	a4,8(a3)
   16f58:	00f686b3          	add	a3,a3,a5
   16f5c:	00f6b023          	sd	a5,0(a3)
   16f60:	de1ff06f          	j	16d40 <_free_r+0xec>

0000000000016f64 <__sfvwrite_r>:
   16f64:	01063783          	ld	a5,16(a2)
   16f68:	26078a63          	beqz	a5,171dc <__sfvwrite_r+0x278>
   16f6c:	0105d703          	lhu	a4,16(a1)
   16f70:	f9010113          	addi	sp,sp,-112
   16f74:	06813023          	sd	s0,96(sp)
   16f78:	03513c23          	sd	s5,56(sp)
   16f7c:	03613823          	sd	s6,48(sp)
   16f80:	06113423          	sd	ra,104(sp)
   16f84:	04913c23          	sd	s1,88(sp)
   16f88:	05213823          	sd	s2,80(sp)
   16f8c:	05313423          	sd	s3,72(sp)
   16f90:	05413023          	sd	s4,64(sp)
   16f94:	03713423          	sd	s7,40(sp)
   16f98:	03813023          	sd	s8,32(sp)
   16f9c:	01913c23          	sd	s9,24(sp)
   16fa0:	01a13823          	sd	s10,16(sp)
   16fa4:	01b13423          	sd	s11,8(sp)
   16fa8:	00877793          	andi	a5,a4,8
   16fac:	00058413          	mv	s0,a1
   16fb0:	00050b13          	mv	s6,a0
   16fb4:	00060a93          	mv	s5,a2
   16fb8:	0a078863          	beqz	a5,17068 <__sfvwrite_r+0x104>
   16fbc:	0185b783          	ld	a5,24(a1)
   16fc0:	0a078463          	beqz	a5,17068 <__sfvwrite_r+0x104>
   16fc4:	00277793          	andi	a5,a4,2
   16fc8:	000ab483          	ld	s1,0(s5)
   16fcc:	0c078063          	beqz	a5,1708c <__sfvwrite_r+0x128>
   16fd0:	80000a37          	lui	s4,0x80000
   16fd4:	00000993          	li	s3,0
   16fd8:	00000913          	li	s2,0
   16fdc:	c00a4a13          	xori	s4,s4,-1024
   16fe0:	00098613          	mv	a2,s3
   16fe4:	000b0513          	mv	a0,s6
   16fe8:	1e090263          	beqz	s2,171cc <__sfvwrite_r+0x268>
   16fec:	00090693          	mv	a3,s2
   16ff0:	012a7463          	bleu	s2,s4,16ff8 <__sfvwrite_r+0x94>
   16ff4:	000a0693          	mv	a3,s4
   16ff8:	04043783          	ld	a5,64(s0)
   16ffc:	03043583          	ld	a1,48(s0)
   17000:	0006869b          	sext.w	a3,a3
   17004:	000780e7          	jalr	a5
   17008:	22a05063          	blez	a0,17228 <__sfvwrite_r+0x2c4>
   1700c:	010ab783          	ld	a5,16(s5)
   17010:	00a989b3          	add	s3,s3,a0
   17014:	40a90933          	sub	s2,s2,a0
   17018:	40a78533          	sub	a0,a5,a0
   1701c:	00aab823          	sd	a0,16(s5)
   17020:	fc0510e3          	bnez	a0,16fe0 <__sfvwrite_r+0x7c>
   17024:	00000793          	li	a5,0
   17028:	06813083          	ld	ra,104(sp)
   1702c:	00078513          	mv	a0,a5
   17030:	06013403          	ld	s0,96(sp)
   17034:	05813483          	ld	s1,88(sp)
   17038:	05013903          	ld	s2,80(sp)
   1703c:	04813983          	ld	s3,72(sp)
   17040:	04013a03          	ld	s4,64(sp)
   17044:	03813a83          	ld	s5,56(sp)
   17048:	03013b03          	ld	s6,48(sp)
   1704c:	02813b83          	ld	s7,40(sp)
   17050:	02013c03          	ld	s8,32(sp)
   17054:	01813c83          	ld	s9,24(sp)
   17058:	01013d03          	ld	s10,16(sp)
   1705c:	00813d83          	ld	s11,8(sp)
   17060:	07010113          	addi	sp,sp,112
   17064:	00008067          	ret
   17068:	00040593          	mv	a1,s0
   1706c:	000b0513          	mv	a0,s6
   17070:	b1dfd0ef          	jal	14b8c <__swsetup_r>
   17074:	fff00793          	li	a5,-1
   17078:	fa0518e3          	bnez	a0,17028 <__sfvwrite_r+0xc4>
   1707c:	01045703          	lhu	a4,16(s0)
   17080:	000ab483          	ld	s1,0(s5)
   17084:	00277793          	andi	a5,a4,2
   17088:	f40794e3          	bnez	a5,16fd0 <__sfvwrite_r+0x6c>
   1708c:	00177793          	andi	a5,a4,1
   17090:	1a079663          	bnez	a5,1723c <__sfvwrite_r+0x2d8>
   17094:	80000bb7          	lui	s7,0x80000
   17098:	ffebcc13          	xori	s8,s7,-2
   1709c:	00000c93          	li	s9,0
   170a0:	00000913          	li	s2,0
   170a4:	fffbcb93          	not	s7,s7
   170a8:	10090a63          	beqz	s2,171bc <__sfvwrite_r+0x258>
   170ac:	00c42983          	lw	s3,12(s0)
   170b0:	20077793          	andi	a5,a4,512
   170b4:	00098a13          	mv	s4,s3
   170b8:	26078863          	beqz	a5,17328 <__sfvwrite_r+0x3c4>
   170bc:	2b396a63          	bltu	s2,s3,17370 <__sfvwrite_r+0x40c>
   170c0:	48077793          	andi	a5,a4,1152
   170c4:	2a078663          	beqz	a5,17370 <__sfvwrite_r+0x40c>
   170c8:	02042a03          	lw	s4,32(s0)
   170cc:	01843583          	ld	a1,24(s0)
   170d0:	00043d03          	ld	s10,0(s0)
   170d4:	001a179b          	slliw	a5,s4,0x1
   170d8:	01478a3b          	addw	s4,a5,s4
   170dc:	01fa579b          	srliw	a5,s4,0x1f
   170e0:	40bd0d3b          	subw	s10,s10,a1
   170e4:	01478a3b          	addw	s4,a5,s4
   170e8:	000d0993          	mv	s3,s10
   170ec:	401a5a1b          	sraiw	s4,s4,0x1
   170f0:	00198793          	addi	a5,s3,1
   170f4:	000a0613          	mv	a2,s4
   170f8:	012787b3          	add	a5,a5,s2
   170fc:	00f67863          	bleu	a5,a2,1710c <__sfvwrite_r+0x1a8>
   17100:	001d0a1b          	addiw	s4,s10,1
   17104:	01490a3b          	addw	s4,s2,s4
   17108:	000a0613          	mv	a2,s4
   1710c:	40077713          	andi	a4,a4,1024
   17110:	2a070a63          	beqz	a4,173c4 <__sfvwrite_r+0x460>
   17114:	00060593          	mv	a1,a2
   17118:	000b0513          	mv	a0,s6
   1711c:	bf1f90ef          	jal	10d0c <_malloc_r>
   17120:	00050d93          	mv	s11,a0
   17124:	2e050263          	beqz	a0,17408 <__sfvwrite_r+0x4a4>
   17128:	01843583          	ld	a1,24(s0)
   1712c:	00098613          	mv	a2,s3
   17130:	b4cfa0ef          	jal	1147c <memcpy>
   17134:	01045783          	lhu	a5,16(s0)
   17138:	b7f7f793          	andi	a5,a5,-1153
   1713c:	0807e793          	ori	a5,a5,128
   17140:	00f41823          	sh	a5,16(s0)
   17144:	41aa0d3b          	subw	s10,s4,s10
   17148:	013d8533          	add	a0,s11,s3
   1714c:	03442023          	sw	s4,32(s0)
   17150:	01b43c23          	sd	s11,24(s0)
   17154:	00a43023          	sd	a0,0(s0)
   17158:	00090a13          	mv	s4,s2
   1715c:	01a42623          	sw	s10,12(s0)
   17160:	000a0d13          	mv	s10,s4
   17164:	00090993          	mv	s3,s2
   17168:	01497863          	bleu	s4,s2,17178 <__sfvwrite_r+0x214>
   1716c:	00090d13          	mv	s10,s2
   17170:	00090993          	mv	s3,s2
   17174:	00090a13          	mv	s4,s2
   17178:	000d0613          	mv	a2,s10
   1717c:	000c8593          	mv	a1,s9
   17180:	1f1000ef          	jal	17b70 <memmove>
   17184:	00c42783          	lw	a5,12(s0)
   17188:	00043603          	ld	a2,0(s0)
   1718c:	41478a3b          	subw	s4,a5,s4
   17190:	01a60633          	add	a2,a2,s10
   17194:	01442623          	sw	s4,12(s0)
   17198:	00c43023          	sd	a2,0(s0)
   1719c:	010ab503          	ld	a0,16(s5)
   171a0:	013c8cb3          	add	s9,s9,s3
   171a4:	41390933          	sub	s2,s2,s3
   171a8:	413509b3          	sub	s3,a0,s3
   171ac:	013ab823          	sd	s3,16(s5)
   171b0:	e6098ae3          	beqz	s3,17024 <__sfvwrite_r+0xc0>
   171b4:	01045703          	lhu	a4,16(s0)
   171b8:	ee091ae3          	bnez	s2,170ac <__sfvwrite_r+0x148>
   171bc:	0004bc83          	ld	s9,0(s1)
   171c0:	0084b903          	ld	s2,8(s1)
   171c4:	01048493          	addi	s1,s1,16
   171c8:	ee1ff06f          	j	170a8 <__sfvwrite_r+0x144>
   171cc:	0004b983          	ld	s3,0(s1)
   171d0:	0084b903          	ld	s2,8(s1)
   171d4:	01048493          	addi	s1,s1,16
   171d8:	e09ff06f          	j	16fe0 <__sfvwrite_r+0x7c>
   171dc:	00000793          	li	a5,0
   171e0:	00078513          	mv	a0,a5
   171e4:	00008067          	ret
   171e8:	01397463          	bleu	s3,s2,171f0 <__sfvwrite_r+0x28c>
   171ec:	00090993          	mv	s3,s2
   171f0:	00098613          	mv	a2,s3
   171f4:	000c8593          	mv	a1,s9
   171f8:	179000ef          	jal	17b70 <memmove>
   171fc:	00c42783          	lw	a5,12(s0)
   17200:	00043703          	ld	a4,0(s0)
   17204:	413787bb          	subw	a5,a5,s3
   17208:	01370733          	add	a4,a4,s3
   1720c:	00f42623          	sw	a5,12(s0)
   17210:	00e43023          	sd	a4,0(s0)
   17214:	f80794e3          	bnez	a5,1719c <__sfvwrite_r+0x238>
   17218:	00040593          	mv	a1,s0
   1721c:	000b0513          	mv	a0,s6
   17220:	ac4ff0ef          	jal	164e4 <_fflush_r>
   17224:	f6050ce3          	beqz	a0,1719c <__sfvwrite_r+0x238>
   17228:	01041783          	lh	a5,16(s0)
   1722c:	0407e793          	ori	a5,a5,64
   17230:	00f41823          	sh	a5,16(s0)
   17234:	fff00793          	li	a5,-1
   17238:	df1ff06f          	j	17028 <__sfvwrite_r+0xc4>
   1723c:	00000a13          	li	s4,0
   17240:	00000c13          	li	s8,0
   17244:	00000d13          	li	s10,0
   17248:	00000913          	li	s2,0
   1724c:	06090e63          	beqz	s2,172c8 <__sfvwrite_r+0x364>
   17250:	140c0863          	beqz	s8,173a0 <__sfvwrite_r+0x43c>
   17254:	000a0993          	mv	s3,s4
   17258:	01497463          	bleu	s4,s2,17260 <__sfvwrite_r+0x2fc>
   1725c:	00090993          	mv	s3,s2
   17260:	00043503          	ld	a0,0(s0)
   17264:	01843783          	ld	a5,24(s0)
   17268:	00098b93          	mv	s7,s3
   1726c:	02042683          	lw	a3,32(s0)
   17270:	00a7fa63          	bleu	a0,a5,17284 <__sfvwrite_r+0x320>
   17274:	00c42c83          	lw	s9,12(s0)
   17278:	01968cbb          	addw	s9,a3,s9
   1727c:	000c8d93          	mv	s11,s9
   17280:	053dce63          	blt	s11,s3,172dc <__sfvwrite_r+0x378>
   17284:	0ed9ca63          	blt	s3,a3,17378 <__sfvwrite_r+0x414>
   17288:	04043783          	ld	a5,64(s0)
   1728c:	03043583          	ld	a1,48(s0)
   17290:	000d0613          	mv	a2,s10
   17294:	000b0513          	mv	a0,s6
   17298:	000780e7          	jalr	a5
   1729c:	00050b93          	mv	s7,a0
   172a0:	f8a054e3          	blez	a0,17228 <__sfvwrite_r+0x2c4>
   172a4:	417a0a3b          	subw	s4,s4,s7
   172a8:	060a0463          	beqz	s4,17310 <__sfvwrite_r+0x3ac>
   172ac:	010ab783          	ld	a5,16(s5)
   172b0:	017d0d33          	add	s10,s10,s7
   172b4:	41790933          	sub	s2,s2,s7
   172b8:	41778bb3          	sub	s7,a5,s7
   172bc:	017ab823          	sd	s7,16(s5)
   172c0:	d60b82e3          	beqz	s7,17024 <__sfvwrite_r+0xc0>
   172c4:	f80916e3          	bnez	s2,17250 <__sfvwrite_r+0x2ec>
   172c8:	0004bd03          	ld	s10,0(s1)
   172cc:	0084b903          	ld	s2,8(s1)
   172d0:	00000c13          	li	s8,0
   172d4:	01048493          	addi	s1,s1,16
   172d8:	f75ff06f          	j	1724c <__sfvwrite_r+0x2e8>
   172dc:	000d0593          	mv	a1,s10
   172e0:	000c8613          	mv	a2,s9
   172e4:	08d000ef          	jal	17b70 <memmove>
   172e8:	00043783          	ld	a5,0(s0)
   172ec:	00040593          	mv	a1,s0
   172f0:	000b0513          	mv	a0,s6
   172f4:	01b78db3          	add	s11,a5,s11
   172f8:	01b43023          	sd	s11,0(s0)
   172fc:	9e8ff0ef          	jal	164e4 <_fflush_r>
   17300:	f20514e3          	bnez	a0,17228 <__sfvwrite_r+0x2c4>
   17304:	000c8b93          	mv	s7,s9
   17308:	417a0a3b          	subw	s4,s4,s7
   1730c:	fa0a10e3          	bnez	s4,172ac <__sfvwrite_r+0x348>
   17310:	00040593          	mv	a1,s0
   17314:	000b0513          	mv	a0,s6
   17318:	9ccff0ef          	jal	164e4 <_fflush_r>
   1731c:	f00516e3          	bnez	a0,17228 <__sfvwrite_r+0x2c4>
   17320:	00000c13          	li	s8,0
   17324:	f89ff06f          	j	172ac <__sfvwrite_r+0x348>
   17328:	00043503          	ld	a0,0(s0)
   1732c:	01843783          	ld	a5,24(s0)
   17330:	eaa7ece3          	bltu	a5,a0,171e8 <__sfvwrite_r+0x284>
   17334:	02042783          	lw	a5,32(s0)
   17338:	eaf968e3          	bltu	s2,a5,171e8 <__sfvwrite_r+0x284>
   1733c:	000b8693          	mv	a3,s7
   17340:	012c6463          	bltu	s8,s2,17348 <__sfvwrite_r+0x3e4>
   17344:	0009069b          	sext.w	a3,s2
   17348:	02f6c6bb          	divw	a3,a3,a5
   1734c:	04043703          	ld	a4,64(s0)
   17350:	03043583          	ld	a1,48(s0)
   17354:	000c8613          	mv	a2,s9
   17358:	000b0513          	mv	a0,s6
   1735c:	02f686bb          	mulw	a3,a3,a5
   17360:	000700e7          	jalr	a4
   17364:	eca052e3          	blez	a0,17228 <__sfvwrite_r+0x2c4>
   17368:	00050993          	mv	s3,a0
   1736c:	e31ff06f          	j	1719c <__sfvwrite_r+0x238>
   17370:	00043503          	ld	a0,0(s0)
   17374:	dedff06f          	j	17160 <__sfvwrite_r+0x1fc>
   17378:	00098613          	mv	a2,s3
   1737c:	000d0593          	mv	a1,s10
   17380:	7f0000ef          	jal	17b70 <memmove>
   17384:	00c42703          	lw	a4,12(s0)
   17388:	00043783          	ld	a5,0(s0)
   1738c:	4137073b          	subw	a4,a4,s3
   17390:	013789b3          	add	s3,a5,s3
   17394:	00e42623          	sw	a4,12(s0)
   17398:	01343023          	sd	s3,0(s0)
   1739c:	f09ff06f          	j	172a4 <__sfvwrite_r+0x340>
   173a0:	00090613          	mv	a2,s2
   173a4:	00a00593          	li	a1,10
   173a8:	000d0513          	mv	a0,s10
   173ac:	6dc000ef          	jal	17a88 <memchr>
   173b0:	04050663          	beqz	a0,173fc <__sfvwrite_r+0x498>
   173b4:	00150a13          	addi	s4,a0,1
   173b8:	41aa0a3b          	subw	s4,s4,s10
   173bc:	00100c13          	li	s8,1
   173c0:	e95ff06f          	j	17254 <__sfvwrite_r+0x2f0>
   173c4:	000b0513          	mv	a0,s6
   173c8:	209010ef          	jal	18dd0 <_realloc_r>
   173cc:	00050d93          	mv	s11,a0
   173d0:	d6051ae3          	bnez	a0,17144 <__sfvwrite_r+0x1e0>
   173d4:	01843583          	ld	a1,24(s0)
   173d8:	000b0513          	mv	a0,s6
   173dc:	879ff0ef          	jal	16c54 <_free_r>
   173e0:	01045783          	lhu	a5,16(s0)
   173e4:	00c00713          	li	a4,12
   173e8:	00eb2023          	sw	a4,0(s6)
   173ec:	f7f7f793          	andi	a5,a5,-129
   173f0:	0107979b          	slliw	a5,a5,0x10
   173f4:	4107d79b          	sraiw	a5,a5,0x10
   173f8:	e35ff06f          	j	1722c <__sfvwrite_r+0x2c8>
   173fc:	00190a1b          	addiw	s4,s2,1
   17400:	00100c13          	li	s8,1
   17404:	e51ff06f          	j	17254 <__sfvwrite_r+0x2f0>
   17408:	00c00793          	li	a5,12
   1740c:	00fb2023          	sw	a5,0(s6)
   17410:	01041783          	lh	a5,16(s0)
   17414:	e19ff06f          	j	1722c <__sfvwrite_r+0x2c8>

0000000000017418 <_fwalk>:
   17418:	fc010113          	addi	sp,sp,-64
   1741c:	01513423          	sd	s5,8(sp)
   17420:	02113c23          	sd	ra,56(sp)
   17424:	02813823          	sd	s0,48(sp)
   17428:	02913423          	sd	s1,40(sp)
   1742c:	03213023          	sd	s2,32(sp)
   17430:	01313c23          	sd	s3,24(sp)
   17434:	01413823          	sd	s4,16(sp)
   17438:	01613023          	sd	s6,0(sp)
   1743c:	52050a93          	addi	s5,a0,1312
   17440:	080a8063          	beqz	s5,174c0 <_fwalk+0xa8>
   17444:	00058b13          	mv	s6,a1
   17448:	00000a13          	li	s4,0
   1744c:	00100993          	li	s3,1
   17450:	fff00913          	li	s2,-1
   17454:	008aa483          	lw	s1,8(s5)
   17458:	010ab403          	ld	s0,16(s5)
   1745c:	fff4849b          	addiw	s1,s1,-1
   17460:	0204c663          	bltz	s1,1748c <_fwalk+0x74>
   17464:	01045783          	lhu	a5,16(s0)
   17468:	fff4849b          	addiw	s1,s1,-1
   1746c:	00f9fc63          	bleu	a5,s3,17484 <_fwalk+0x6c>
   17470:	01241783          	lh	a5,18(s0)
   17474:	00040513          	mv	a0,s0
   17478:	01278663          	beq	a5,s2,17484 <_fwalk+0x6c>
   1747c:	000b00e7          	jalr	s6
   17480:	00aa6a33          	or	s4,s4,a0
   17484:	0b040413          	addi	s0,s0,176
   17488:	fd249ee3          	bne	s1,s2,17464 <_fwalk+0x4c>
   1748c:	000aba83          	ld	s5,0(s5)
   17490:	fc0a92e3          	bnez	s5,17454 <_fwalk+0x3c>
   17494:	03813083          	ld	ra,56(sp)
   17498:	000a0513          	mv	a0,s4
   1749c:	03013403          	ld	s0,48(sp)
   174a0:	02813483          	ld	s1,40(sp)
   174a4:	02013903          	ld	s2,32(sp)
   174a8:	01813983          	ld	s3,24(sp)
   174ac:	01013a03          	ld	s4,16(sp)
   174b0:	00813a83          	ld	s5,8(sp)
   174b4:	00013b03          	ld	s6,0(sp)
   174b8:	04010113          	addi	sp,sp,64
   174bc:	00008067          	ret
   174c0:	00000a13          	li	s4,0
   174c4:	fd1ff06f          	j	17494 <_fwalk+0x7c>

00000000000174c8 <_fwalk_reent>:
   174c8:	fb010113          	addi	sp,sp,-80
   174cc:	01613823          	sd	s6,16(sp)
   174d0:	04113423          	sd	ra,72(sp)
   174d4:	04813023          	sd	s0,64(sp)
   174d8:	02913c23          	sd	s1,56(sp)
   174dc:	03213823          	sd	s2,48(sp)
   174e0:	03313423          	sd	s3,40(sp)
   174e4:	03413023          	sd	s4,32(sp)
   174e8:	01513c23          	sd	s5,24(sp)
   174ec:	01713423          	sd	s7,8(sp)
   174f0:	52050b13          	addi	s6,a0,1312
   174f4:	080b0663          	beqz	s6,17580 <_fwalk_reent+0xb8>
   174f8:	00058b93          	mv	s7,a1
   174fc:	00050a93          	mv	s5,a0
   17500:	00000a13          	li	s4,0
   17504:	00100993          	li	s3,1
   17508:	fff00913          	li	s2,-1
   1750c:	008b2483          	lw	s1,8(s6)
   17510:	010b3403          	ld	s0,16(s6)
   17514:	fff4849b          	addiw	s1,s1,-1
   17518:	0204c863          	bltz	s1,17548 <_fwalk_reent+0x80>
   1751c:	01045783          	lhu	a5,16(s0)
   17520:	fff4849b          	addiw	s1,s1,-1
   17524:	00f9fe63          	bleu	a5,s3,17540 <_fwalk_reent+0x78>
   17528:	01241783          	lh	a5,18(s0)
   1752c:	00040593          	mv	a1,s0
   17530:	000a8513          	mv	a0,s5
   17534:	01278663          	beq	a5,s2,17540 <_fwalk_reent+0x78>
   17538:	000b80e7          	jalr	s7
   1753c:	00aa6a33          	or	s4,s4,a0
   17540:	0b040413          	addi	s0,s0,176
   17544:	fd249ce3          	bne	s1,s2,1751c <_fwalk_reent+0x54>
   17548:	000b3b03          	ld	s6,0(s6)
   1754c:	fc0b10e3          	bnez	s6,1750c <_fwalk_reent+0x44>
   17550:	04813083          	ld	ra,72(sp)
   17554:	000a0513          	mv	a0,s4
   17558:	04013403          	ld	s0,64(sp)
   1755c:	03813483          	ld	s1,56(sp)
   17560:	03013903          	ld	s2,48(sp)
   17564:	02813983          	ld	s3,40(sp)
   17568:	02013a03          	ld	s4,32(sp)
   1756c:	01813a83          	ld	s5,24(sp)
   17570:	01013b03          	ld	s6,16(sp)
   17574:	00813b83          	ld	s7,8(sp)
   17578:	05010113          	addi	sp,sp,80
   1757c:	00008067          	ret
   17580:	00000a13          	li	s4,0
   17584:	fcdff06f          	j	17550 <_fwalk_reent+0x88>

0000000000017588 <iswspace>:
   17588:	0ff00793          	li	a5,255
   1758c:	02a7e263          	bltu	a5,a0,175b0 <iswspace+0x28>
   17590:	8281b783          	ld	a5,-2008(gp) # 243f8 <__ctype_ptr__>
   17594:	02051513          	slli	a0,a0,0x20
   17598:	02055513          	srli	a0,a0,0x20
   1759c:	00a78533          	add	a0,a5,a0
   175a0:	00154503          	lbu	a0,1(a0)
   175a4:	00857513          	andi	a0,a0,8
   175a8:	0ff57513          	andi	a0,a0,255
   175ac:	00008067          	ret
   175b0:	00000513          	li	a0,0
   175b4:	00008067          	ret

00000000000175b8 <_setlocale_r>:
   175b8:	fe010113          	addi	sp,sp,-32
   175bc:	00913423          	sd	s1,8(sp)
   175c0:	00113c23          	sd	ra,24(sp)
   175c4:	00813823          	sd	s0,16(sp)
   175c8:	000224b7          	lui	s1,0x22
   175cc:	02060063          	beqz	a2,175ec <_setlocale_r+0x34>
   175d0:	000225b7          	lui	a1,0x22
   175d4:	d0058593          	addi	a1,a1,-768 # 21d00 <zeroes.4123+0x6f0>
   175d8:	00060513          	mv	a0,a2
   175dc:	00060413          	mv	s0,a2
   175e0:	b24fa0ef          	jal	11904 <strcmp>
   175e4:	000224b7          	lui	s1,0x22
   175e8:	00051e63          	bnez	a0,17604 <_setlocale_r+0x4c>
   175ec:	c7048513          	addi	a0,s1,-912 # 21c70 <zeroes.4123+0x660>
   175f0:	01813083          	ld	ra,24(sp)
   175f4:	01013403          	ld	s0,16(sp)
   175f8:	00813483          	ld	s1,8(sp)
   175fc:	02010113          	addi	sp,sp,32
   17600:	00008067          	ret
   17604:	c7048593          	addi	a1,s1,-912
   17608:	00040513          	mv	a0,s0
   1760c:	af8fa0ef          	jal	11904 <strcmp>
   17610:	fc050ee3          	beqz	a0,175ec <_setlocale_r+0x34>
   17614:	000225b7          	lui	a1,0x22
   17618:	80058593          	addi	a1,a1,-2048 # 21800 <zeroes.4123+0x1f0>
   1761c:	00040513          	mv	a0,s0
   17620:	ae4fa0ef          	jal	11904 <strcmp>
   17624:	fc0504e3          	beqz	a0,175ec <_setlocale_r+0x34>
   17628:	00000513          	li	a0,0
   1762c:	fc5ff06f          	j	175f0 <_setlocale_r+0x38>

0000000000017630 <__locale_charset>:
   17630:	00024537          	lui	a0,0x24
   17634:	32850513          	addi	a0,a0,808 # 24328 <lc_ctype_charset>
   17638:	00008067          	ret

000000000001763c <__locale_mb_cur_max>:
   1763c:	8301a503          	lw	a0,-2000(gp) # 24400 <__mb_cur_max>
   17640:	00008067          	ret

0000000000017644 <__locale_msgcharset>:
   17644:	00024537          	lui	a0,0x24
   17648:	34850513          	addi	a0,a0,840 # 24348 <lc_message_charset>
   1764c:	00008067          	ret

0000000000017650 <__locale_cjk_lang>:
   17650:	00000513          	li	a0,0
   17654:	00008067          	ret

0000000000017658 <_localeconv_r>:
   17658:	00024537          	lui	a0,0x24
   1765c:	36850513          	addi	a0,a0,872 # 24368 <lconv>
   17660:	00008067          	ret

0000000000017664 <setlocale>:
   17664:	00058613          	mv	a2,a1
   17668:	00050593          	mv	a1,a0
   1766c:	8101b503          	ld	a0,-2032(gp) # 243e0 <_impure_ptr>
   17670:	f49ff06f          	j	175b8 <_setlocale_r>

0000000000017674 <localeconv>:
   17674:	00024537          	lui	a0,0x24
   17678:	36850513          	addi	a0,a0,872 # 24368 <lconv>
   1767c:	00008067          	ret

0000000000017680 <__smakebuf_r>:
   17680:	01059783          	lh	a5,16(a1)
   17684:	f5010113          	addi	sp,sp,-176
   17688:	08913c23          	sd	s1,152(sp)
   1768c:	03079493          	slli	s1,a5,0x30
   17690:	0304d493          	srli	s1,s1,0x30
   17694:	0a113423          	sd	ra,168(sp)
   17698:	0a813023          	sd	s0,160(sp)
   1769c:	09213823          	sd	s2,144(sp)
   176a0:	09313423          	sd	s3,136(sp)
   176a4:	0024f713          	andi	a4,s1,2
   176a8:	0e071063          	bnez	a4,17788 <__smakebuf_r+0x108>
   176ac:	00050913          	mv	s2,a0
   176b0:	01259503          	lh	a0,18(a1)
   176b4:	00058413          	mv	s0,a1
   176b8:	04054c63          	bltz	a0,17710 <__smakebuf_r+0x90>
   176bc:	00010593          	mv	a1,sp
   176c0:	4b5080ef          	jal	20374 <fstat>
   176c4:	04054063          	bltz	a0,17704 <__smakebuf_r+0x84>
   176c8:	01012703          	lw	a4,16(sp)
   176cc:	0000f7b7          	lui	a5,0xf
   176d0:	ffffe9b7          	lui	s3,0xffffe
   176d4:	00f777b3          	and	a5,a4,a5
   176d8:	013789bb          	addw	s3,a5,s3
   176dc:	00008737          	lui	a4,0x8
   176e0:	0019b993          	seqz	s3,s3
   176e4:	0ce78a63          	beq	a5,a4,177b8 <__smakebuf_r+0x138>
   176e8:	01045703          	lhu	a4,16(s0)
   176ec:	000017b7          	lui	a5,0x1
   176f0:	8007879b          	addiw	a5,a5,-2048
   176f4:	00f767b3          	or	a5,a4,a5
   176f8:	00f41823          	sh	a5,16(s0)
   176fc:	40000493          	li	s1,1024
   17700:	0340006f          	j	17734 <__smakebuf_r+0xb4>
   17704:	01041783          	lh	a5,16(s0)
   17708:	03079493          	slli	s1,a5,0x30
   1770c:	0304d493          	srli	s1,s1,0x30
   17710:	03849493          	slli	s1,s1,0x38
   17714:	00001737          	lui	a4,0x1
   17718:	43f4d493          	srai	s1,s1,0x3f
   1771c:	8007071b          	addiw	a4,a4,-2048
   17720:	c404f493          	andi	s1,s1,-960
   17724:	00e7e7b3          	or	a5,a5,a4
   17728:	40048493          	addi	s1,s1,1024
   1772c:	00f41823          	sh	a5,16(s0)
   17730:	00000993          	li	s3,0
   17734:	00048593          	mv	a1,s1
   17738:	00090513          	mv	a0,s2
   1773c:	dd0f90ef          	jal	10d0c <_malloc_r>
   17740:	0c050063          	beqz	a0,17800 <__smakebuf_r+0x180>
   17744:	01045783          	lhu	a5,16(s0)
   17748:	00016737          	lui	a4,0x16
   1774c:	56870713          	addi	a4,a4,1384 # 16568 <_cleanup_r>
   17750:	04e93c23          	sd	a4,88(s2)
   17754:	0807e793          	ori	a5,a5,128
   17758:	00f41823          	sh	a5,16(s0)
   1775c:	00a43023          	sd	a0,0(s0)
   17760:	00a43c23          	sd	a0,24(s0)
   17764:	02942023          	sw	s1,32(s0)
   17768:	06099e63          	bnez	s3,177e4 <__smakebuf_r+0x164>
   1776c:	0a813083          	ld	ra,168(sp)
   17770:	0a013403          	ld	s0,160(sp)
   17774:	09813483          	ld	s1,152(sp)
   17778:	09013903          	ld	s2,144(sp)
   1777c:	08813983          	ld	s3,136(sp)
   17780:	0b010113          	addi	sp,sp,176
   17784:	00008067          	ret
   17788:	0a813083          	ld	ra,168(sp)
   1778c:	07758793          	addi	a5,a1,119
   17790:	00f5b023          	sd	a5,0(a1)
   17794:	00f5bc23          	sd	a5,24(a1)
   17798:	00100793          	li	a5,1
   1779c:	0a013403          	ld	s0,160(sp)
   177a0:	09813483          	ld	s1,152(sp)
   177a4:	09013903          	ld	s2,144(sp)
   177a8:	08813983          	ld	s3,136(sp)
   177ac:	02f5a023          	sw	a5,32(a1)
   177b0:	0b010113          	addi	sp,sp,176
   177b4:	00008067          	ret
   177b8:	04843703          	ld	a4,72(s0)
   177bc:	0001a7b7          	lui	a5,0x1a
   177c0:	8b478793          	addi	a5,a5,-1868 # 198b4 <__sseek>
   177c4:	f2f712e3          	bne	a4,a5,176e8 <__smakebuf_r+0x68>
   177c8:	01045783          	lhu	a5,16(s0)
   177cc:	40000713          	li	a4,1024
   177d0:	08e42423          	sw	a4,136(s0)
   177d4:	00e7e7b3          	or	a5,a5,a4
   177d8:	00f41823          	sh	a5,16(s0)
   177dc:	40000493          	li	s1,1024
   177e0:	f55ff06f          	j	17734 <__smakebuf_r+0xb4>
   177e4:	01241503          	lh	a0,18(s0)
   177e8:	519080ef          	jal	20500 <isatty>
   177ec:	f80500e3          	beqz	a0,1776c <__smakebuf_r+0xec>
   177f0:	01045783          	lhu	a5,16(s0)
   177f4:	0017e793          	ori	a5,a5,1
   177f8:	00f41823          	sh	a5,16(s0)
   177fc:	f71ff06f          	j	1776c <__smakebuf_r+0xec>
   17800:	01041783          	lh	a5,16(s0)
   17804:	2007f713          	andi	a4,a5,512
   17808:	f60712e3          	bnez	a4,1776c <__smakebuf_r+0xec>
   1780c:	0027e793          	ori	a5,a5,2
   17810:	07740713          	addi	a4,s0,119
   17814:	00f41823          	sh	a5,16(s0)
   17818:	00100793          	li	a5,1
   1781c:	00e43023          	sd	a4,0(s0)
   17820:	00e43c23          	sd	a4,24(s0)
   17824:	02f42023          	sw	a5,32(s0)
   17828:	f45ff06f          	j	1776c <__smakebuf_r+0xec>

000000000001782c <_mbrtowc_r>:
   1782c:	fc010113          	addi	sp,sp,-64
   17830:	02913423          	sd	s1,40(sp)
   17834:	03213023          	sd	s2,32(sp)
   17838:	02113c23          	sd	ra,56(sp)
   1783c:	02813823          	sd	s0,48(sp)
   17840:	01313c23          	sd	s3,24(sp)
   17844:	01413823          	sd	s4,16(sp)
   17848:	01513423          	sd	s5,8(sp)
   1784c:	00050493          	mv	s1,a0
   17850:	00070913          	mv	s2,a4
   17854:	06060c63          	beqz	a2,178cc <_mbrtowc_r+0xa0>
   17858:	8381ba83          	ld	s5,-1992(gp) # 24408 <__mbtowc>
   1785c:	00060413          	mv	s0,a2
   17860:	00058993          	mv	s3,a1
   17864:	00068a13          	mv	s4,a3
   17868:	dc9ff0ef          	jal	17630 <__locale_charset>
   1786c:	00090793          	mv	a5,s2
   17870:	00050713          	mv	a4,a0
   17874:	000a0693          	mv	a3,s4
   17878:	00040613          	mv	a2,s0
   1787c:	00098593          	mv	a1,s3
   17880:	00048513          	mv	a0,s1
   17884:	000a80e7          	jalr	s5
   17888:	00050793          	mv	a5,a0
   1788c:	fff00713          	li	a4,-1
   17890:	00078513          	mv	a0,a5
   17894:	00e79a63          	bne	a5,a4,178a8 <_mbrtowc_r+0x7c>
   17898:	00092023          	sw	zero,0(s2)
   1789c:	08a00793          	li	a5,138
   178a0:	00f4a023          	sw	a5,0(s1)
   178a4:	fff00513          	li	a0,-1
   178a8:	03813083          	ld	ra,56(sp)
   178ac:	03013403          	ld	s0,48(sp)
   178b0:	02813483          	ld	s1,40(sp)
   178b4:	02013903          	ld	s2,32(sp)
   178b8:	01813983          	ld	s3,24(sp)
   178bc:	01013a03          	ld	s4,16(sp)
   178c0:	00813a83          	ld	s5,8(sp)
   178c4:	04010113          	addi	sp,sp,64
   178c8:	00008067          	ret
   178cc:	8381b403          	ld	s0,-1992(gp) # 24408 <__mbtowc>
   178d0:	d61ff0ef          	jal	17630 <__locale_charset>
   178d4:	00022637          	lui	a2,0x22
   178d8:	00090793          	mv	a5,s2
   178dc:	00050713          	mv	a4,a0
   178e0:	00100693          	li	a3,1
   178e4:	80060613          	addi	a2,a2,-2048 # 21800 <zeroes.4123+0x1f0>
   178e8:	00000593          	li	a1,0
   178ec:	00048513          	mv	a0,s1
   178f0:	000400e7          	jalr	s0
   178f4:	00050793          	mv	a5,a0
   178f8:	f95ff06f          	j	1788c <_mbrtowc_r+0x60>

00000000000178fc <mbrtowc>:
   178fc:	fc010113          	addi	sp,sp,-64
   17900:	02913423          	sd	s1,40(sp)
   17904:	03213023          	sd	s2,32(sp)
   17908:	02113c23          	sd	ra,56(sp)
   1790c:	02813823          	sd	s0,48(sp)
   17910:	01313c23          	sd	s3,24(sp)
   17914:	01413823          	sd	s4,16(sp)
   17918:	01513423          	sd	s5,8(sp)
   1791c:	00068913          	mv	s2,a3
   17920:	8101b483          	ld	s1,-2032(gp) # 243e0 <_impure_ptr>
   17924:	06058c63          	beqz	a1,1799c <mbrtowc+0xa0>
   17928:	8381ba83          	ld	s5,-1992(gp) # 24408 <__mbtowc>
   1792c:	00058413          	mv	s0,a1
   17930:	00060a13          	mv	s4,a2
   17934:	00050993          	mv	s3,a0
   17938:	cf9ff0ef          	jal	17630 <__locale_charset>
   1793c:	00090793          	mv	a5,s2
   17940:	00050713          	mv	a4,a0
   17944:	000a0693          	mv	a3,s4
   17948:	00040613          	mv	a2,s0
   1794c:	00098593          	mv	a1,s3
   17950:	00048513          	mv	a0,s1
   17954:	000a80e7          	jalr	s5
   17958:	00050793          	mv	a5,a0
   1795c:	fff00713          	li	a4,-1
   17960:	00078513          	mv	a0,a5
   17964:	00e79a63          	bne	a5,a4,17978 <mbrtowc+0x7c>
   17968:	00092023          	sw	zero,0(s2)
   1796c:	08a00793          	li	a5,138
   17970:	00f4a023          	sw	a5,0(s1)
   17974:	fff00513          	li	a0,-1
   17978:	03813083          	ld	ra,56(sp)
   1797c:	03013403          	ld	s0,48(sp)
   17980:	02813483          	ld	s1,40(sp)
   17984:	02013903          	ld	s2,32(sp)
   17988:	01813983          	ld	s3,24(sp)
   1798c:	01013a03          	ld	s4,16(sp)
   17990:	00813a83          	ld	s5,8(sp)
   17994:	04010113          	addi	sp,sp,64
   17998:	00008067          	ret
   1799c:	8381b403          	ld	s0,-1992(gp) # 24408 <__mbtowc>
   179a0:	c91ff0ef          	jal	17630 <__locale_charset>
   179a4:	00022637          	lui	a2,0x22
   179a8:	00090793          	mv	a5,s2
   179ac:	00050713          	mv	a4,a0
   179b0:	00100693          	li	a3,1
   179b4:	80060613          	addi	a2,a2,-2048 # 21800 <zeroes.4123+0x1f0>
   179b8:	00000593          	li	a1,0
   179bc:	00048513          	mv	a0,s1
   179c0:	000400e7          	jalr	s0
   179c4:	00050793          	mv	a5,a0
   179c8:	f95ff06f          	j	1795c <mbrtowc+0x60>

00000000000179cc <__ascii_mbtowc>:
   179cc:	ff010113          	addi	sp,sp,-16
   179d0:	02058463          	beqz	a1,179f8 <__ascii_mbtowc+0x2c>
   179d4:	02060663          	beqz	a2,17a00 <__ascii_mbtowc+0x34>
   179d8:	ffe00513          	li	a0,-2
   179dc:	00068a63          	beqz	a3,179f0 <__ascii_mbtowc+0x24>
   179e0:	00064783          	lbu	a5,0(a2)
   179e4:	00f5a023          	sw	a5,0(a1)
   179e8:	00064503          	lbu	a0,0(a2)
   179ec:	00a03533          	snez	a0,a0
   179f0:	01010113          	addi	sp,sp,16
   179f4:	00008067          	ret
   179f8:	00c10593          	addi	a1,sp,12
   179fc:	fc061ee3          	bnez	a2,179d8 <__ascii_mbtowc+0xc>
   17a00:	00000513          	li	a0,0
   17a04:	01010113          	addi	sp,sp,16
   17a08:	00008067          	ret

0000000000017a0c <_mbtowc_r>:
   17a0c:	fc010113          	addi	sp,sp,-64
   17a10:	02813823          	sd	s0,48(sp)
   17a14:	8381b403          	ld	s0,-1992(gp) # 24408 <__mbtowc>
   17a18:	02113c23          	sd	ra,56(sp)
   17a1c:	02913423          	sd	s1,40(sp)
   17a20:	03213023          	sd	s2,32(sp)
   17a24:	01313c23          	sd	s3,24(sp)
   17a28:	01413823          	sd	s4,16(sp)
   17a2c:	01513423          	sd	s5,8(sp)
   17a30:	00050493          	mv	s1,a0
   17a34:	00070a93          	mv	s5,a4
   17a38:	00058913          	mv	s2,a1
   17a3c:	00060993          	mv	s3,a2
   17a40:	00068a13          	mv	s4,a3
   17a44:	bedff0ef          	jal	17630 <__locale_charset>
   17a48:	000a8793          	mv	a5,s5
   17a4c:	00050713          	mv	a4,a0
   17a50:	000a0693          	mv	a3,s4
   17a54:	00098613          	mv	a2,s3
   17a58:	00090593          	mv	a1,s2
   17a5c:	00048513          	mv	a0,s1
   17a60:	00040313          	mv	t1,s0
   17a64:	03813083          	ld	ra,56(sp)
   17a68:	03013403          	ld	s0,48(sp)
   17a6c:	02813483          	ld	s1,40(sp)
   17a70:	02013903          	ld	s2,32(sp)
   17a74:	01813983          	ld	s3,24(sp)
   17a78:	01013a03          	ld	s4,16(sp)
   17a7c:	00813a83          	ld	s5,8(sp)
   17a80:	04010113          	addi	sp,sp,64
   17a84:	00030067          	jr	t1

0000000000017a88 <memchr>:
   17a88:	00757793          	andi	a5,a0,7
   17a8c:	0ff5f813          	andi	a6,a1,255
   17a90:	0c078c63          	beqz	a5,17b68 <memchr+0xe0>
   17a94:	fff60793          	addi	a5,a2,-1
   17a98:	06060463          	beqz	a2,17b00 <memchr+0x78>
   17a9c:	00054703          	lbu	a4,0(a0)
   17aa0:	07070263          	beq	a4,a6,17b04 <memchr+0x7c>
   17aa4:	00080693          	mv	a3,a6
   17aa8:	0140006f          	j	17abc <memchr+0x34>
   17aac:	04078a63          	beqz	a5,17b00 <memchr+0x78>
   17ab0:	00054703          	lbu	a4,0(a0)
   17ab4:	fff78793          	addi	a5,a5,-1
   17ab8:	04d70663          	beq	a4,a3,17b04 <memchr+0x7c>
   17abc:	00150513          	addi	a0,a0,1
   17ac0:	00757713          	andi	a4,a0,7
   17ac4:	fe0714e3          	bnez	a4,17aac <memchr+0x24>
   17ac8:	00700693          	li	a3,7
   17acc:	02f6ee63          	bltu	a3,a5,17b08 <memchr+0x80>
   17ad0:	02078863          	beqz	a5,17b00 <memchr+0x78>
   17ad4:	00054703          	lbu	a4,0(a0)
   17ad8:	03070663          	beq	a4,a6,17b04 <memchr+0x7c>
   17adc:	00150713          	addi	a4,a0,1
   17ae0:	00f507b3          	add	a5,a0,a5
   17ae4:	00080613          	mv	a2,a6
   17ae8:	0100006f          	j	17af8 <memchr+0x70>
   17aec:	00170713          	addi	a4,a4,1
   17af0:	fff74683          	lbu	a3,-1(a4)
   17af4:	00c68863          	beq	a3,a2,17b04 <memchr+0x7c>
   17af8:	00070513          	mv	a0,a4
   17afc:	fee798e3          	bne	a5,a4,17aec <memchr+0x64>
   17b00:	00000513          	li	a0,0
   17b04:	00008067          	ret
   17b08:	0ff5f593          	andi	a1,a1,255
   17b0c:	0085971b          	slliw	a4,a1,0x8
   17b10:	00b765b3          	or	a1,a4,a1
   17b14:	00058713          	mv	a4,a1
   17b18:	01071613          	slli	a2,a4,0x10
   17b1c:	00c76733          	or	a4,a4,a2
   17b20:	00024637          	lui	a2,0x24
   17b24:	47863303          	ld	t1,1144(a2) # 24478 <mask+0x50>
   17b28:	00024637          	lui	a2,0x24
   17b2c:	48063883          	ld	a7,1152(a2) # 24480 <mask+0x58>
   17b30:	02071613          	slli	a2,a4,0x20
   17b34:	00e66633          	or	a2,a2,a4
   17b38:	00068593          	mv	a1,a3
   17b3c:	00053703          	ld	a4,0(a0)
   17b40:	00e64733          	xor	a4,a2,a4
   17b44:	006706b3          	add	a3,a4,t1
   17b48:	fff74713          	not	a4,a4
   17b4c:	00e6f733          	and	a4,a3,a4
   17b50:	01177733          	and	a4,a4,a7
   17b54:	f80710e3          	bnez	a4,17ad4 <memchr+0x4c>
   17b58:	ff878793          	addi	a5,a5,-8
   17b5c:	00850513          	addi	a0,a0,8
   17b60:	fcf5eee3          	bltu	a1,a5,17b3c <memchr+0xb4>
   17b64:	f6dff06f          	j	17ad0 <memchr+0x48>
   17b68:	00060793          	mv	a5,a2
   17b6c:	f5dff06f          	j	17ac8 <memchr+0x40>

0000000000017b70 <memmove>:
   17b70:	02a5f863          	bleu	a0,a1,17ba0 <memmove+0x30>
   17b74:	00c58733          	add	a4,a1,a2
   17b78:	02e57463          	bleu	a4,a0,17ba0 <memmove+0x30>
   17b7c:	00c507b3          	add	a5,a0,a2
   17b80:	40c785b3          	sub	a1,a5,a2
   17b84:	0e060263          	beqz	a2,17c68 <memmove+0xf8>
   17b88:	fff70713          	addi	a4,a4,-1
   17b8c:	00074683          	lbu	a3,0(a4)
   17b90:	fff78793          	addi	a5,a5,-1
   17b94:	00d78023          	sb	a3,0(a5)
   17b98:	fef598e3          	bne	a1,a5,17b88 <memmove+0x18>
   17b9c:	00008067          	ret
   17ba0:	01f00893          	li	a7,31
   17ba4:	0cc8f463          	bleu	a2,a7,17c6c <memmove+0xfc>
   17ba8:	00a5e7b3          	or	a5,a1,a0
   17bac:	0077f793          	andi	a5,a5,7
   17bb0:	0c079463          	bnez	a5,17c78 <memmove+0x108>
   17bb4:	00058713          	mv	a4,a1
   17bb8:	00050793          	mv	a5,a0
   17bbc:	00060693          	mv	a3,a2
   17bc0:	00073803          	ld	a6,0(a4)
   17bc4:	02078793          	addi	a5,a5,32
   17bc8:	02070713          	addi	a4,a4,32
   17bcc:	ff07b023          	sd	a6,-32(a5)
   17bd0:	fe873803          	ld	a6,-24(a4)
   17bd4:	fe068693          	addi	a3,a3,-32
   17bd8:	ff07b423          	sd	a6,-24(a5)
   17bdc:	ff073803          	ld	a6,-16(a4)
   17be0:	ff07b823          	sd	a6,-16(a5)
   17be4:	ff873803          	ld	a6,-8(a4)
   17be8:	ff07bc23          	sd	a6,-8(a5)
   17bec:	fcd8eae3          	bltu	a7,a3,17bc0 <memmove+0x50>
   17bf0:	fe060713          	addi	a4,a2,-32
   17bf4:	fe077713          	andi	a4,a4,-32
   17bf8:	02070713          	addi	a4,a4,32
   17bfc:	01f67e13          	andi	t3,a2,31
   17c00:	00700313          	li	t1,7
   17c04:	00e507b3          	add	a5,a0,a4
   17c08:	00e585b3          	add	a1,a1,a4
   17c0c:	07c37c63          	bleu	t3,t1,17c84 <memmove+0x114>
   17c10:	00058813          	mv	a6,a1
   17c14:	00078693          	mv	a3,a5
   17c18:	000e0713          	mv	a4,t3
   17c1c:	00880813          	addi	a6,a6,8
   17c20:	ff883883          	ld	a7,-8(a6)
   17c24:	00868693          	addi	a3,a3,8
   17c28:	ff870713          	addi	a4,a4,-8
   17c2c:	ff16bc23          	sd	a7,-8(a3)
   17c30:	fee366e3          	bltu	t1,a4,17c1c <memmove+0xac>
   17c34:	ff8e0713          	addi	a4,t3,-8
   17c38:	ff877713          	andi	a4,a4,-8
   17c3c:	00870713          	addi	a4,a4,8
   17c40:	00767613          	andi	a2,a2,7
   17c44:	00e787b3          	add	a5,a5,a4
   17c48:	00e585b3          	add	a1,a1,a4
   17c4c:	02060a63          	beqz	a2,17c80 <memmove+0x110>
   17c50:	00c78633          	add	a2,a5,a2
   17c54:	00158593          	addi	a1,a1,1
   17c58:	fff5c703          	lbu	a4,-1(a1)
   17c5c:	00178793          	addi	a5,a5,1
   17c60:	fee78fa3          	sb	a4,-1(a5)
   17c64:	fec798e3          	bne	a5,a2,17c54 <memmove+0xe4>
   17c68:	00008067          	ret
   17c6c:	00050793          	mv	a5,a0
   17c70:	fe0610e3          	bnez	a2,17c50 <memmove+0xe0>
   17c74:	00c0006f          	j	17c80 <memmove+0x110>
   17c78:	00050793          	mv	a5,a0
   17c7c:	fd5ff06f          	j	17c50 <memmove+0xe0>
   17c80:	00008067          	ret
   17c84:	000e0613          	mv	a2,t3
   17c88:	fc0614e3          	bnez	a2,17c50 <memmove+0xe0>
   17c8c:	ff5ff06f          	j	17c80 <memmove+0x110>

0000000000017c90 <memset>:
   17c90:	00f00813          	li	a6,15
   17c94:	00050713          	mv	a4,a0
   17c98:	02c87a63          	bleu	a2,a6,17ccc <memset+0x3c>
   17c9c:	00f77793          	andi	a5,a4,15
   17ca0:	0a079063          	bnez	a5,17d40 <memset+0xb0>
   17ca4:	06059e63          	bnez	a1,17d20 <memset+0x90>
   17ca8:	ff067693          	andi	a3,a2,-16
   17cac:	00f67613          	andi	a2,a2,15
   17cb0:	00e686b3          	add	a3,a3,a4
   17cb4:	00b73023          	sd	a1,0(a4)
   17cb8:	00b73423          	sd	a1,8(a4)
   17cbc:	01070713          	addi	a4,a4,16
   17cc0:	fed76ae3          	bltu	a4,a3,17cb4 <memset+0x24>
   17cc4:	00061463          	bnez	a2,17ccc <memset+0x3c>
   17cc8:	00008067          	ret
   17ccc:	40c806b3          	sub	a3,a6,a2
   17cd0:	00269693          	slli	a3,a3,0x2
   17cd4:	00000297          	auipc	t0,0x0
   17cd8:	005686b3          	add	a3,a3,t0
   17cdc:	00c68067          	jr	a3,12
   17ce0:	00b70723          	sb	a1,14(a4)
   17ce4:	00b706a3          	sb	a1,13(a4)
   17ce8:	00b70623          	sb	a1,12(a4)
   17cec:	00b705a3          	sb	a1,11(a4)
   17cf0:	00b70523          	sb	a1,10(a4)
   17cf4:	00b704a3          	sb	a1,9(a4)
   17cf8:	00b70423          	sb	a1,8(a4)
   17cfc:	00b703a3          	sb	a1,7(a4)
   17d00:	00b70323          	sb	a1,6(a4)
   17d04:	00b702a3          	sb	a1,5(a4)
   17d08:	00b70223          	sb	a1,4(a4)
   17d0c:	00b701a3          	sb	a1,3(a4)
   17d10:	00b70123          	sb	a1,2(a4)
   17d14:	00b700a3          	sb	a1,1(a4)
   17d18:	00b70023          	sb	a1,0(a4)
   17d1c:	00008067          	ret
   17d20:	0ff5f593          	andi	a1,a1,255
   17d24:	00859693          	slli	a3,a1,0x8
   17d28:	00d5e5b3          	or	a1,a1,a3
   17d2c:	01059693          	slli	a3,a1,0x10
   17d30:	00d5e5b3          	or	a1,a1,a3
   17d34:	02059693          	slli	a3,a1,0x20
   17d38:	00d5e5b3          	or	a1,a1,a3
   17d3c:	f6dff06f          	j	17ca8 <memset+0x18>
   17d40:	00279693          	slli	a3,a5,0x2
   17d44:	00000297          	auipc	t0,0x0
   17d48:	005686b3          	add	a3,a3,t0
   17d4c:	00008293          	mv	t0,ra
   17d50:	f98680e7          	jalr	a3,-104
   17d54:	00028093          	mv	ra,t0
   17d58:	ff078793          	addi	a5,a5,-16
   17d5c:	40f70733          	sub	a4,a4,a5
   17d60:	00f60633          	add	a2,a2,a5
   17d64:	f6c874e3          	bleu	a2,a6,17ccc <memset+0x3c>
   17d68:	f3dff06f          	j	17ca4 <memset+0x14>

0000000000017d6c <_Balloc>:
   17d6c:	07853783          	ld	a5,120(a0)
   17d70:	fe010113          	addi	sp,sp,-32
   17d74:	00813823          	sd	s0,16(sp)
   17d78:	00913423          	sd	s1,8(sp)
   17d7c:	00113c23          	sd	ra,24(sp)
   17d80:	01213023          	sd	s2,0(sp)
   17d84:	00050413          	mv	s0,a0
   17d88:	00058493          	mv	s1,a1
   17d8c:	02078e63          	beqz	a5,17dc8 <_Balloc+0x5c>
   17d90:	00349513          	slli	a0,s1,0x3
   17d94:	00a787b3          	add	a5,a5,a0
   17d98:	0007b503          	ld	a0,0(a5)
   17d9c:	04050663          	beqz	a0,17de8 <_Balloc+0x7c>
   17da0:	00053703          	ld	a4,0(a0)
   17da4:	00e7b023          	sd	a4,0(a5)
   17da8:	00052a23          	sw	zero,20(a0)
   17dac:	00052823          	sw	zero,16(a0)
   17db0:	01813083          	ld	ra,24(sp)
   17db4:	01013403          	ld	s0,16(sp)
   17db8:	00813483          	ld	s1,8(sp)
   17dbc:	00013903          	ld	s2,0(sp)
   17dc0:	02010113          	addi	sp,sp,32
   17dc4:	00008067          	ret
   17dc8:	04100613          	li	a2,65
   17dcc:	00800593          	li	a1,8
   17dd0:	388060ef          	jal	1e158 <_calloc_r>
   17dd4:	06a43c23          	sd	a0,120(s0)
   17dd8:	00050793          	mv	a5,a0
   17ddc:	fa051ae3          	bnez	a0,17d90 <_Balloc+0x24>
   17de0:	00000513          	li	a0,0
   17de4:	fcdff06f          	j	17db0 <_Balloc+0x44>
   17de8:	00100913          	li	s2,1
   17dec:	0099193b          	sllw	s2,s2,s1
   17df0:	fff9061b          	addiw	a2,s2,-1
   17df4:	00860613          	addi	a2,a2,8
   17df8:	00261613          	slli	a2,a2,0x2
   17dfc:	00100593          	li	a1,1
   17e00:	00040513          	mv	a0,s0
   17e04:	354060ef          	jal	1e158 <_calloc_r>
   17e08:	fc050ce3          	beqz	a0,17de0 <_Balloc+0x74>
   17e0c:	00952423          	sw	s1,8(a0)
   17e10:	01252623          	sw	s2,12(a0)
   17e14:	f95ff06f          	j	17da8 <_Balloc+0x3c>

0000000000017e18 <_Bfree>:
   17e18:	02058063          	beqz	a1,17e38 <_Bfree+0x20>
   17e1c:	0085a783          	lw	a5,8(a1)
   17e20:	07853703          	ld	a4,120(a0)
   17e24:	00379793          	slli	a5,a5,0x3
   17e28:	00f707b3          	add	a5,a4,a5
   17e2c:	0007b703          	ld	a4,0(a5)
   17e30:	00e5b023          	sd	a4,0(a1)
   17e34:	00b7b023          	sd	a1,0(a5)
   17e38:	00008067          	ret

0000000000017e3c <__multadd>:
   17e3c:	fc010113          	addi	sp,sp,-64
   17e40:	00010837          	lui	a6,0x10
   17e44:	02813823          	sd	s0,48(sp)
   17e48:	02913423          	sd	s1,40(sp)
   17e4c:	03213023          	sd	s2,32(sp)
   17e50:	00058493          	mv	s1,a1
   17e54:	0145a403          	lw	s0,20(a1)
   17e58:	00050913          	mv	s2,a0
   17e5c:	02113c23          	sd	ra,56(sp)
   17e60:	01313c23          	sd	s3,24(sp)
   17e64:	01858593          	addi	a1,a1,24
   17e68:	00000513          	li	a0,0
   17e6c:	fff8081b          	addiw	a6,a6,-1
   17e70:	0005a783          	lw	a5,0(a1)
   17e74:	00458593          	addi	a1,a1,4
   17e78:	0015051b          	addiw	a0,a0,1
   17e7c:	0107f733          	and	a4,a5,a6
   17e80:	02c7073b          	mulw	a4,a4,a2
   17e84:	0107d79b          	srliw	a5,a5,0x10
   17e88:	02c787bb          	mulw	a5,a5,a2
   17e8c:	00d7073b          	addw	a4,a4,a3
   17e90:	0107569b          	srliw	a3,a4,0x10
   17e94:	01077733          	and	a4,a4,a6
   17e98:	00d786bb          	addw	a3,a5,a3
   17e9c:	0106979b          	slliw	a5,a3,0x10
   17ea0:	00e7873b          	addw	a4,a5,a4
   17ea4:	fee5ae23          	sw	a4,-4(a1)
   17ea8:	0106d69b          	srliw	a3,a3,0x10
   17eac:	fc8542e3          	blt	a0,s0,17e70 <__multadd+0x34>
   17eb0:	02068263          	beqz	a3,17ed4 <__multadd+0x98>
   17eb4:	00c4a783          	lw	a5,12(s1)
   17eb8:	02f45e63          	ble	a5,s0,17ef4 <__multadd+0xb8>
   17ebc:	00440793          	addi	a5,s0,4
   17ec0:	00279793          	slli	a5,a5,0x2
   17ec4:	00f487b3          	add	a5,s1,a5
   17ec8:	00d7a423          	sw	a3,8(a5)
   17ecc:	0014041b          	addiw	s0,s0,1
   17ed0:	0084aa23          	sw	s0,20(s1)
   17ed4:	03813083          	ld	ra,56(sp)
   17ed8:	00048513          	mv	a0,s1
   17edc:	03013403          	ld	s0,48(sp)
   17ee0:	02813483          	ld	s1,40(sp)
   17ee4:	02013903          	ld	s2,32(sp)
   17ee8:	01813983          	ld	s3,24(sp)
   17eec:	04010113          	addi	sp,sp,64
   17ef0:	00008067          	ret
   17ef4:	0084a583          	lw	a1,8(s1)
   17ef8:	00090513          	mv	a0,s2
   17efc:	00d13423          	sd	a3,8(sp)
   17f00:	0015859b          	addiw	a1,a1,1
   17f04:	e69ff0ef          	jal	17d6c <_Balloc>
   17f08:	0144a603          	lw	a2,20(s1)
   17f0c:	00050993          	mv	s3,a0
   17f10:	01048593          	addi	a1,s1,16
   17f14:	00260613          	addi	a2,a2,2
   17f18:	01050513          	addi	a0,a0,16
   17f1c:	00261613          	slli	a2,a2,0x2
   17f20:	d5cf90ef          	jal	1147c <memcpy>
   17f24:	0084a703          	lw	a4,8(s1)
   17f28:	07893783          	ld	a5,120(s2)
   17f2c:	00813683          	ld	a3,8(sp)
   17f30:	00371713          	slli	a4,a4,0x3
   17f34:	00e787b3          	add	a5,a5,a4
   17f38:	0007b703          	ld	a4,0(a5)
   17f3c:	00e4b023          	sd	a4,0(s1)
   17f40:	0097b023          	sd	s1,0(a5)
   17f44:	00098493          	mv	s1,s3
   17f48:	f75ff06f          	j	17ebc <__multadd+0x80>

0000000000017f4c <__s2b>:
   17f4c:	fc010113          	addi	sp,sp,-64
   17f50:	0086879b          	addiw	a5,a3,8
   17f54:	03213023          	sd	s2,32(sp)
   17f58:	00068913          	mv	s2,a3
   17f5c:	00900693          	li	a3,9
   17f60:	02d7c6bb          	divw	a3,a5,a3
   17f64:	02813823          	sd	s0,48(sp)
   17f68:	02913423          	sd	s1,40(sp)
   17f6c:	01313c23          	sd	s3,24(sp)
   17f70:	01413823          	sd	s4,16(sp)
   17f74:	02113c23          	sd	ra,56(sp)
   17f78:	01513423          	sd	s5,8(sp)
   17f7c:	01613023          	sd	s6,0(sp)
   17f80:	00100793          	li	a5,1
   17f84:	00058413          	mv	s0,a1
   17f88:	00050993          	mv	s3,a0
   17f8c:	00060a13          	mv	s4,a2
   17f90:	00070493          	mv	s1,a4
   17f94:	00000593          	li	a1,0
   17f98:	00d7d863          	ble	a3,a5,17fa8 <__s2b+0x5c>
   17f9c:	0017979b          	slliw	a5,a5,0x1
   17fa0:	0015859b          	addiw	a1,a1,1
   17fa4:	fed7cce3          	blt	a5,a3,17f9c <__s2b+0x50>
   17fa8:	00098513          	mv	a0,s3
   17fac:	dc1ff0ef          	jal	17d6c <_Balloc>
   17fb0:	00100793          	li	a5,1
   17fb4:	00f52a23          	sw	a5,20(a0)
   17fb8:	00952c23          	sw	s1,24(a0)
   17fbc:	00900793          	li	a5,9
   17fc0:	0b47d663          	ble	s4,a5,1806c <__s2b+0x120>
   17fc4:	ff6a0b1b          	addiw	s6,s4,-10
   17fc8:	020b1b13          	slli	s6,s6,0x20
   17fcc:	020b5b13          	srli	s6,s6,0x20
   17fd0:	00940a93          	addi	s5,s0,9
   17fd4:	00ab0793          	addi	a5,s6,10
   17fd8:	00f40433          	add	s0,s0,a5
   17fdc:	000a8493          	mv	s1,s5
   17fe0:	00148493          	addi	s1,s1,1
   17fe4:	fff4c683          	lbu	a3,-1(s1)
   17fe8:	00050593          	mv	a1,a0
   17fec:	00a00613          	li	a2,10
   17ff0:	fd06869b          	addiw	a3,a3,-48
   17ff4:	00098513          	mv	a0,s3
   17ff8:	e45ff0ef          	jal	17e3c <__multadd>
   17ffc:	fe8492e3          	bne	s1,s0,17fe0 <__s2b+0x94>
   18000:	016a8433          	add	s0,s5,s6
   18004:	00240413          	addi	s0,s0,2
   18008:	032a5e63          	ble	s2,s4,18044 <__s2b+0xf8>
   1800c:	fff9091b          	addiw	s2,s2,-1
   18010:	414904bb          	subw	s1,s2,s4
   18014:	02049493          	slli	s1,s1,0x20
   18018:	0204d493          	srli	s1,s1,0x20
   1801c:	00148493          	addi	s1,s1,1
   18020:	009404b3          	add	s1,s0,s1
   18024:	00140413          	addi	s0,s0,1
   18028:	fff44683          	lbu	a3,-1(s0)
   1802c:	00050593          	mv	a1,a0
   18030:	00a00613          	li	a2,10
   18034:	fd06869b          	addiw	a3,a3,-48
   18038:	00098513          	mv	a0,s3
   1803c:	e01ff0ef          	jal	17e3c <__multadd>
   18040:	fe9412e3          	bne	s0,s1,18024 <__s2b+0xd8>
   18044:	03813083          	ld	ra,56(sp)
   18048:	03013403          	ld	s0,48(sp)
   1804c:	02813483          	ld	s1,40(sp)
   18050:	02013903          	ld	s2,32(sp)
   18054:	01813983          	ld	s3,24(sp)
   18058:	01013a03          	ld	s4,16(sp)
   1805c:	00813a83          	ld	s5,8(sp)
   18060:	00013b03          	ld	s6,0(sp)
   18064:	04010113          	addi	sp,sp,64
   18068:	00008067          	ret
   1806c:	00a40413          	addi	s0,s0,10
   18070:	00078a13          	mv	s4,a5
   18074:	f95ff06f          	j	18008 <__s2b+0xbc>

0000000000018078 <__hi0bits>:
   18078:	ffff06b7          	lui	a3,0xffff0
   1807c:	00d576b3          	and	a3,a0,a3
   18080:	00050793          	mv	a5,a0
   18084:	00000713          	li	a4,0
   18088:	00069663          	bnez	a3,18094 <__hi0bits+0x1c>
   1808c:	0105179b          	slliw	a5,a0,0x10
   18090:	01000713          	li	a4,16
   18094:	ff0006b7          	lui	a3,0xff000
   18098:	00d7f6b3          	and	a3,a5,a3
   1809c:	00069663          	bnez	a3,180a8 <__hi0bits+0x30>
   180a0:	0087071b          	addiw	a4,a4,8
   180a4:	0087979b          	slliw	a5,a5,0x8
   180a8:	f00006b7          	lui	a3,0xf0000
   180ac:	00d7f6b3          	and	a3,a5,a3
   180b0:	00069663          	bnez	a3,180bc <__hi0bits+0x44>
   180b4:	0047071b          	addiw	a4,a4,4
   180b8:	0047979b          	slliw	a5,a5,0x4
   180bc:	c00006b7          	lui	a3,0xc0000
   180c0:	00d7f6b3          	and	a3,a5,a3
   180c4:	00069663          	bnez	a3,180d0 <__hi0bits+0x58>
   180c8:	0027071b          	addiw	a4,a4,2
   180cc:	0027979b          	slliw	a5,a5,0x2
   180d0:	0007ce63          	bltz	a5,180ec <__hi0bits+0x74>
   180d4:	02179693          	slli	a3,a5,0x21
   180d8:	02000513          	li	a0,32
   180dc:	0006c463          	bltz	a3,180e4 <__hi0bits+0x6c>
   180e0:	00008067          	ret
   180e4:	0017051b          	addiw	a0,a4,1
   180e8:	00008067          	ret
   180ec:	00070513          	mv	a0,a4
   180f0:	00008067          	ret

00000000000180f4 <__lo0bits>:
   180f4:	00052783          	lw	a5,0(a0)
   180f8:	00050693          	mv	a3,a0
   180fc:	0077f713          	andi	a4,a5,7
   18100:	02070463          	beqz	a4,18128 <__lo0bits+0x34>
   18104:	0017f713          	andi	a4,a5,1
   18108:	00000513          	li	a0,0
   1810c:	08071263          	bnez	a4,18190 <__lo0bits+0x9c>
   18110:	0027f713          	andi	a4,a5,2
   18114:	08071063          	bnez	a4,18194 <__lo0bits+0xa0>
   18118:	0027d79b          	srliw	a5,a5,0x2
   1811c:	00f6a023          	sw	a5,0(a3) # ffffffffc0000000 <_end+0xffffffffbffd9258>
   18120:	00200513          	li	a0,2
   18124:	00008067          	ret
   18128:	0107961b          	slliw	a2,a5,0x10
   1812c:	0106561b          	srliw	a2,a2,0x10
   18130:	00000713          	li	a4,0
   18134:	00061663          	bnez	a2,18140 <__lo0bits+0x4c>
   18138:	0107d79b          	srliw	a5,a5,0x10
   1813c:	01000713          	li	a4,16
   18140:	0ff7f613          	andi	a2,a5,255
   18144:	00061663          	bnez	a2,18150 <__lo0bits+0x5c>
   18148:	0087071b          	addiw	a4,a4,8
   1814c:	0087d79b          	srliw	a5,a5,0x8
   18150:	00f7f613          	andi	a2,a5,15
   18154:	00061663          	bnez	a2,18160 <__lo0bits+0x6c>
   18158:	0047071b          	addiw	a4,a4,4
   1815c:	0047d79b          	srliw	a5,a5,0x4
   18160:	0037f613          	andi	a2,a5,3
   18164:	00061663          	bnez	a2,18170 <__lo0bits+0x7c>
   18168:	0027071b          	addiw	a4,a4,2
   1816c:	0027d79b          	srliw	a5,a5,0x2
   18170:	0017f613          	andi	a2,a5,1
   18174:	00061a63          	bnez	a2,18188 <__lo0bits+0x94>
   18178:	0017d79b          	srliw	a5,a5,0x1
   1817c:	02000513          	li	a0,32
   18180:	00078863          	beqz	a5,18190 <__lo0bits+0x9c>
   18184:	0017071b          	addiw	a4,a4,1
   18188:	00f6a023          	sw	a5,0(a3)
   1818c:	00070513          	mv	a0,a4
   18190:	00008067          	ret
   18194:	0017d79b          	srliw	a5,a5,0x1
   18198:	00f6a023          	sw	a5,0(a3)
   1819c:	00100513          	li	a0,1
   181a0:	00008067          	ret

00000000000181a4 <__i2b>:
   181a4:	ff010113          	addi	sp,sp,-16
   181a8:	00813023          	sd	s0,0(sp)
   181ac:	00058413          	mv	s0,a1
   181b0:	00100593          	li	a1,1
   181b4:	00113423          	sd	ra,8(sp)
   181b8:	bb5ff0ef          	jal	17d6c <_Balloc>
   181bc:	00813083          	ld	ra,8(sp)
   181c0:	00100713          	li	a4,1
   181c4:	00852c23          	sw	s0,24(a0)
   181c8:	00e52a23          	sw	a4,20(a0)
   181cc:	00013403          	ld	s0,0(sp)
   181d0:	01010113          	addi	sp,sp,16
   181d4:	00008067          	ret

00000000000181d8 <__multiply>:
   181d8:	fd010113          	addi	sp,sp,-48
   181dc:	01313423          	sd	s3,8(sp)
   181e0:	01413023          	sd	s4,0(sp)
   181e4:	0145a983          	lw	s3,20(a1)
   181e8:	01462a03          	lw	s4,20(a2)
   181ec:	00913c23          	sd	s1,24(sp)
   181f0:	01213823          	sd	s2,16(sp)
   181f4:	02113423          	sd	ra,40(sp)
   181f8:	02813023          	sd	s0,32(sp)
   181fc:	00058913          	mv	s2,a1
   18200:	00060493          	mv	s1,a2
   18204:	0149dc63          	ble	s4,s3,1821c <__multiply+0x44>
   18208:	00098713          	mv	a4,s3
   1820c:	00060913          	mv	s2,a2
   18210:	000a0993          	mv	s3,s4
   18214:	00058493          	mv	s1,a1
   18218:	00070a13          	mv	s4,a4
   1821c:	00c92783          	lw	a5,12(s2)
   18220:	00892583          	lw	a1,8(s2)
   18224:	0149843b          	addw	s0,s3,s4
   18228:	0087a7b3          	slt	a5,a5,s0
   1822c:	00f585bb          	addw	a1,a1,a5
   18230:	b3dff0ef          	jal	17d6c <_Balloc>
   18234:	00040893          	mv	a7,s0
   18238:	01850313          	addi	t1,a0,24
   1823c:	00289893          	slli	a7,a7,0x2
   18240:	011308b3          	add	a7,t1,a7
   18244:	00030793          	mv	a5,t1
   18248:	01137863          	bleu	a7,t1,18258 <__multiply+0x80>
   1824c:	0007a023          	sw	zero,0(a5)
   18250:	00478793          	addi	a5,a5,4
   18254:	ff17ece3          	bltu	a5,a7,1824c <__multiply+0x74>
   18258:	01848613          	addi	a2,s1,24
   1825c:	002a1e13          	slli	t3,s4,0x2
   18260:	01890e93          	addi	t4,s2,24
   18264:	00299813          	slli	a6,s3,0x2
   18268:	000105b7          	lui	a1,0x10
   1826c:	01c60e33          	add	t3,a2,t3
   18270:	010e8833          	add	a6,t4,a6
   18274:	fff5859b          	addiw	a1,a1,-1
   18278:	11c67463          	bleu	t3,a2,18380 <__multiply+0x1a8>
   1827c:	00062383          	lw	t2,0(a2)
   18280:	00b3f4b3          	and	s1,t2,a1
   18284:	06048a63          	beqz	s1,182f8 <__multiply+0x120>
   18288:	00030293          	mv	t0,t1
   1828c:	000e8f93          	mv	t6,t4
   18290:	00000793          	li	a5,0
   18294:	0080006f          	j	1829c <__multiply+0xc4>
   18298:	00038293          	mv	t0,t2
   1829c:	000fa683          	lw	a3,0(t6)
   182a0:	0002af03          	lw	t5,0(t0) # 17d44 <memset+0xb4>
   182a4:	00428393          	addi	t2,t0,4
   182a8:	00b6f733          	and	a4,a3,a1
   182ac:	0297073b          	mulw	a4,a4,s1
   182b0:	0106d69b          	srliw	a3,a3,0x10
   182b4:	00bf7933          	and	s2,t5,a1
   182b8:	010f5f1b          	srliw	t5,t5,0x10
   182bc:	004f8f93          	addi	t6,t6,4
   182c0:	029686bb          	mulw	a3,a3,s1
   182c4:	0127073b          	addw	a4,a4,s2
   182c8:	00f707bb          	addw	a5,a4,a5
   182cc:	0107d71b          	srliw	a4,a5,0x10
   182d0:	00b7f7b3          	and	a5,a5,a1
   182d4:	01e686bb          	addw	a3,a3,t5
   182d8:	00e6873b          	addw	a4,a3,a4
   182dc:	0107169b          	slliw	a3,a4,0x10
   182e0:	00f6e7b3          	or	a5,a3,a5
   182e4:	fef3ae23          	sw	a5,-4(t2)
   182e8:	0107579b          	srliw	a5,a4,0x10
   182ec:	fb0fe6e3          	bltu	t6,a6,18298 <__multiply+0xc0>
   182f0:	00f2a223          	sw	a5,4(t0)
   182f4:	00062383          	lw	t2,0(a2)
   182f8:	0103d39b          	srliw	t2,t2,0x10
   182fc:	06038c63          	beqz	t2,18374 <__multiply+0x19c>
   18300:	00032783          	lw	a5,0(t1) # 10000 <_ftext>
   18304:	00030293          	mv	t0,t1
   18308:	000e8f93          	mv	t6,t4
   1830c:	00078f13          	mv	t5,a5
   18310:	00000693          	li	a3,0
   18314:	0080006f          	j	1831c <__multiply+0x144>
   18318:	00048293          	mv	t0,s1
   1831c:	000fa703          	lw	a4,0(t6)
   18320:	010f5f1b          	srliw	t5,t5,0x10
   18324:	00b7f7b3          	and	a5,a5,a1
   18328:	00b77733          	and	a4,a4,a1
   1832c:	0277073b          	mulw	a4,a4,t2
   18330:	00428493          	addi	s1,t0,4
   18334:	004f8f93          	addi	t6,t6,4
   18338:	01e7073b          	addw	a4,a4,t5
   1833c:	00d706bb          	addw	a3,a4,a3
   18340:	0106971b          	slliw	a4,a3,0x10
   18344:	00f767b3          	or	a5,a4,a5
   18348:	fef4ae23          	sw	a5,-4(s1)
   1834c:	ffefd703          	lhu	a4,-2(t6)
   18350:	0042af03          	lw	t5,4(t0)
   18354:	0106d69b          	srliw	a3,a3,0x10
   18358:	0277073b          	mulw	a4,a4,t2
   1835c:	00bf77b3          	and	a5,t5,a1
   18360:	00f707bb          	addw	a5,a4,a5
   18364:	00d787bb          	addw	a5,a5,a3
   18368:	0107d69b          	srliw	a3,a5,0x10
   1836c:	fb0fe6e3          	bltu	t6,a6,18318 <__multiply+0x140>
   18370:	00f2a223          	sw	a5,4(t0)
   18374:	00460613          	addi	a2,a2,4
   18378:	00430313          	addi	t1,t1,4
   1837c:	f1c660e3          	bltu	a2,t3,1827c <__multiply+0xa4>
   18380:	02805463          	blez	s0,183a8 <__multiply+0x1d0>
   18384:	ffc8a783          	lw	a5,-4(a7)
   18388:	ffc88893          	addi	a7,a7,-4
   1838c:	00078863          	beqz	a5,1839c <__multiply+0x1c4>
   18390:	0180006f          	j	183a8 <__multiply+0x1d0>
   18394:	0008a783          	lw	a5,0(a7)
   18398:	00079863          	bnez	a5,183a8 <__multiply+0x1d0>
   1839c:	fff4041b          	addiw	s0,s0,-1
   183a0:	ffc88893          	addi	a7,a7,-4
   183a4:	fe0418e3          	bnez	s0,18394 <__multiply+0x1bc>
   183a8:	02813083          	ld	ra,40(sp)
   183ac:	00852a23          	sw	s0,20(a0)
   183b0:	01813483          	ld	s1,24(sp)
   183b4:	02013403          	ld	s0,32(sp)
   183b8:	01013903          	ld	s2,16(sp)
   183bc:	00813983          	ld	s3,8(sp)
   183c0:	00013a03          	ld	s4,0(sp)
   183c4:	03010113          	addi	sp,sp,48
   183c8:	00008067          	ret

00000000000183cc <__pow5mult>:
   183cc:	fd010113          	addi	sp,sp,-48
   183d0:	02813023          	sd	s0,32(sp)
   183d4:	01213823          	sd	s2,16(sp)
   183d8:	01313423          	sd	s3,8(sp)
   183dc:	02113423          	sd	ra,40(sp)
   183e0:	00913c23          	sd	s1,24(sp)
   183e4:	00367793          	andi	a5,a2,3
   183e8:	00060413          	mv	s0,a2
   183ec:	00050993          	mv	s3,a0
   183f0:	00058913          	mv	s2,a1
   183f4:	0a079e63          	bnez	a5,184b0 <__pow5mult+0xe4>
   183f8:	4024541b          	sraiw	s0,s0,0x2
   183fc:	06040663          	beqz	s0,18468 <__pow5mult+0x9c>
   18400:	0709b483          	ld	s1,112(s3) # ffffffffffffe070 <_end+0xfffffffffffd72c8>
   18404:	0c048a63          	beqz	s1,184d8 <__pow5mult+0x10c>
   18408:	00147793          	andi	a5,s0,1
   1840c:	02079063          	bnez	a5,1842c <__pow5mult+0x60>
   18410:	4014541b          	sraiw	s0,s0,0x1
   18414:	04040a63          	beqz	s0,18468 <__pow5mult+0x9c>
   18418:	0004b503          	ld	a0,0(s1)
   1841c:	06050663          	beqz	a0,18488 <__pow5mult+0xbc>
   18420:	00050493          	mv	s1,a0
   18424:	00147793          	andi	a5,s0,1
   18428:	fe0784e3          	beqz	a5,18410 <__pow5mult+0x44>
   1842c:	00048613          	mv	a2,s1
   18430:	00090593          	mv	a1,s2
   18434:	00098513          	mv	a0,s3
   18438:	da1ff0ef          	jal	181d8 <__multiply>
   1843c:	06090663          	beqz	s2,184a8 <__pow5mult+0xdc>
   18440:	00892783          	lw	a5,8(s2)
   18444:	0789b703          	ld	a4,120(s3)
   18448:	4014541b          	sraiw	s0,s0,0x1
   1844c:	00379793          	slli	a5,a5,0x3
   18450:	00f707b3          	add	a5,a4,a5
   18454:	0007b703          	ld	a4,0(a5)
   18458:	00e93023          	sd	a4,0(s2)
   1845c:	0127b023          	sd	s2,0(a5)
   18460:	00050913          	mv	s2,a0
   18464:	fa041ae3          	bnez	s0,18418 <__pow5mult+0x4c>
   18468:	02813083          	ld	ra,40(sp)
   1846c:	00090513          	mv	a0,s2
   18470:	02013403          	ld	s0,32(sp)
   18474:	01813483          	ld	s1,24(sp)
   18478:	01013903          	ld	s2,16(sp)
   1847c:	00813983          	ld	s3,8(sp)
   18480:	03010113          	addi	sp,sp,48
   18484:	00008067          	ret
   18488:	00048613          	mv	a2,s1
   1848c:	00048593          	mv	a1,s1
   18490:	00098513          	mv	a0,s3
   18494:	d45ff0ef          	jal	181d8 <__multiply>
   18498:	00a4b023          	sd	a0,0(s1)
   1849c:	00053023          	sd	zero,0(a0)
   184a0:	00050493          	mv	s1,a0
   184a4:	f81ff06f          	j	18424 <__pow5mult+0x58>
   184a8:	00050913          	mv	s2,a0
   184ac:	f65ff06f          	j	18410 <__pow5mult+0x44>
   184b0:	fff7879b          	addiw	a5,a5,-1
   184b4:	00021737          	lui	a4,0x21
   184b8:	e3070713          	addi	a4,a4,-464 # 20e30 <p05.2568>
   184bc:	00279793          	slli	a5,a5,0x2
   184c0:	00f707b3          	add	a5,a4,a5
   184c4:	0007a603          	lw	a2,0(a5)
   184c8:	00000693          	li	a3,0
   184cc:	971ff0ef          	jal	17e3c <__multadd>
   184d0:	00050913          	mv	s2,a0
   184d4:	f25ff06f          	j	183f8 <__pow5mult+0x2c>
   184d8:	00100593          	li	a1,1
   184dc:	00098513          	mv	a0,s3
   184e0:	88dff0ef          	jal	17d6c <_Balloc>
   184e4:	27100793          	li	a5,625
   184e8:	00f52c23          	sw	a5,24(a0)
   184ec:	00100793          	li	a5,1
   184f0:	00f52a23          	sw	a5,20(a0)
   184f4:	06a9b823          	sd	a0,112(s3)
   184f8:	00050493          	mv	s1,a0
   184fc:	00053023          	sd	zero,0(a0)
   18500:	f09ff06f          	j	18408 <__pow5mult+0x3c>

0000000000018504 <__lshift>:
   18504:	fc010113          	addi	sp,sp,-64
   18508:	01513423          	sd	s5,8(sp)
   1850c:	0145aa83          	lw	s5,20(a1) # 10014 <_ftext+0x14>
   18510:	02813823          	sd	s0,48(sp)
   18514:	00c5a783          	lw	a5,12(a1)
   18518:	4056541b          	sraiw	s0,a2,0x5
   1851c:	01540abb          	addw	s5,s0,s5
   18520:	02913423          	sd	s1,40(sp)
   18524:	03213023          	sd	s2,32(sp)
   18528:	01313c23          	sd	s3,24(sp)
   1852c:	01413823          	sd	s4,16(sp)
   18530:	02113c23          	sd	ra,56(sp)
   18534:	001a849b          	addiw	s1,s5,1
   18538:	00058913          	mv	s2,a1
   1853c:	00060993          	mv	s3,a2
   18540:	00050a13          	mv	s4,a0
   18544:	0085a583          	lw	a1,8(a1)
   18548:	0097d863          	ble	s1,a5,18558 <__lshift+0x54>
   1854c:	0017979b          	slliw	a5,a5,0x1
   18550:	0015859b          	addiw	a1,a1,1
   18554:	fe97cce3          	blt	a5,s1,1854c <__lshift+0x48>
   18558:	000a0513          	mv	a0,s4
   1855c:	811ff0ef          	jal	17d6c <_Balloc>
   18560:	01850793          	addi	a5,a0,24
   18564:	0e805c63          	blez	s0,1865c <__lshift+0x158>
   18568:	fff4071b          	addiw	a4,s0,-1
   1856c:	02071713          	slli	a4,a4,0x20
   18570:	02075713          	srli	a4,a4,0x20
   18574:	00170713          	addi	a4,a4,1
   18578:	00271713          	slli	a4,a4,0x2
   1857c:	00e78733          	add	a4,a5,a4
   18580:	00478793          	addi	a5,a5,4
   18584:	fe07ae23          	sw	zero,-4(a5)
   18588:	fee79ce3          	bne	a5,a4,18580 <__lshift+0x7c>
   1858c:	01492883          	lw	a7,20(s2)
   18590:	01890793          	addi	a5,s2,24
   18594:	01f9f613          	andi	a2,s3,31
   18598:	00289893          	slli	a7,a7,0x2
   1859c:	011788b3          	add	a7,a5,a7
   185a0:	08060863          	beqz	a2,18630 <__lshift+0x12c>
   185a4:	02000313          	li	t1,32
   185a8:	40c3033b          	subw	t1,t1,a2
   185ac:	00000693          	li	a3,0
   185b0:	0080006f          	j	185b8 <__lshift+0xb4>
   185b4:	00080713          	mv	a4,a6
   185b8:	0007a583          	lw	a1,0(a5)
   185bc:	00470813          	addi	a6,a4,4
   185c0:	00478793          	addi	a5,a5,4
   185c4:	00c595bb          	sllw	a1,a1,a2
   185c8:	00d5e6b3          	or	a3,a1,a3
   185cc:	fed82e23          	sw	a3,-4(a6) # fffc <_ftext-0x4>
   185d0:	ffc7a683          	lw	a3,-4(a5)
   185d4:	0066d6bb          	srlw	a3,a3,t1
   185d8:	fd17eee3          	bltu	a5,a7,185b4 <__lshift+0xb0>
   185dc:	00d72223          	sw	a3,4(a4)
   185e0:	00068463          	beqz	a3,185e8 <__lshift+0xe4>
   185e4:	002a849b          	addiw	s1,s5,2
   185e8:	00892783          	lw	a5,8(s2)
   185ec:	078a3703          	ld	a4,120(s4) # ffffffff80000078 <_end+0xffffffff7ffd92d0>
   185f0:	fff4849b          	addiw	s1,s1,-1
   185f4:	00379793          	slli	a5,a5,0x3
   185f8:	00f707b3          	add	a5,a4,a5
   185fc:	0007b703          	ld	a4,0(a5)
   18600:	03813083          	ld	ra,56(sp)
   18604:	00952a23          	sw	s1,20(a0)
   18608:	00e93023          	sd	a4,0(s2)
   1860c:	0127b023          	sd	s2,0(a5)
   18610:	03013403          	ld	s0,48(sp)
   18614:	02813483          	ld	s1,40(sp)
   18618:	02013903          	ld	s2,32(sp)
   1861c:	01813983          	ld	s3,24(sp)
   18620:	01013a03          	ld	s4,16(sp)
   18624:	00813a83          	ld	s5,8(sp)
   18628:	04010113          	addi	sp,sp,64
   1862c:	00008067          	ret
   18630:	00478793          	addi	a5,a5,4
   18634:	ffc7a683          	lw	a3,-4(a5)
   18638:	00470713          	addi	a4,a4,4
   1863c:	fed72e23          	sw	a3,-4(a4)
   18640:	fb17f4e3          	bleu	a7,a5,185e8 <__lshift+0xe4>
   18644:	00478793          	addi	a5,a5,4
   18648:	ffc7a683          	lw	a3,-4(a5)
   1864c:	00470713          	addi	a4,a4,4
   18650:	fed72e23          	sw	a3,-4(a4)
   18654:	fd17eee3          	bltu	a5,a7,18630 <__lshift+0x12c>
   18658:	f91ff06f          	j	185e8 <__lshift+0xe4>
   1865c:	00078713          	mv	a4,a5
   18660:	f2dff06f          	j	1858c <__lshift+0x88>

0000000000018664 <__mcmp>:
   18664:	01452783          	lw	a5,20(a0)
   18668:	0145a703          	lw	a4,20(a1)
   1866c:	40e787bb          	subw	a5,a5,a4
   18670:	04079263          	bnez	a5,186b4 <__mcmp+0x50>
   18674:	00271713          	slli	a4,a4,0x2
   18678:	01850513          	addi	a0,a0,24
   1867c:	01858593          	addi	a1,a1,24
   18680:	00e507b3          	add	a5,a0,a4
   18684:	00e585b3          	add	a1,a1,a4
   18688:	0080006f          	j	18690 <__mcmp+0x2c>
   1868c:	02f57863          	bleu	a5,a0,186bc <__mcmp+0x58>
   18690:	ffc78793          	addi	a5,a5,-4
   18694:	ffc58593          	addi	a1,a1,-4
   18698:	0007a703          	lw	a4,0(a5)
   1869c:	0005a683          	lw	a3,0(a1)
   186a0:	fed706e3          	beq	a4,a3,1868c <__mcmp+0x28>
   186a4:	00d737b3          	sltu	a5,a4,a3
   186a8:	40f007bb          	negw	a5,a5
   186ac:	0017e513          	ori	a0,a5,1
   186b0:	00008067          	ret
   186b4:	00078513          	mv	a0,a5
   186b8:	00008067          	ret
   186bc:	00000513          	li	a0,0
   186c0:	00008067          	ret

00000000000186c4 <__mdiff>:
   186c4:	0145a703          	lw	a4,20(a1)
   186c8:	01462783          	lw	a5,20(a2)
   186cc:	fd010113          	addi	sp,sp,-48
   186d0:	01213823          	sd	s2,16(sp)
   186d4:	01313423          	sd	s3,8(sp)
   186d8:	02113423          	sd	ra,40(sp)
   186dc:	02813023          	sd	s0,32(sp)
   186e0:	00913c23          	sd	s1,24(sp)
   186e4:	01413023          	sd	s4,0(sp)
   186e8:	40f7073b          	subw	a4,a4,a5
   186ec:	00058913          	mv	s2,a1
   186f0:	00060993          	mv	s3,a2
   186f4:	04071863          	bnez	a4,18744 <__mdiff+0x80>
   186f8:	00279713          	slli	a4,a5,0x2
   186fc:	01858813          	addi	a6,a1,24
   18700:	01860413          	addi	s0,a2,24
   18704:	00e807b3          	add	a5,a6,a4
   18708:	00e40733          	add	a4,s0,a4
   1870c:	0080006f          	j	18714 <__mdiff+0x50>
   18710:	16f87263          	bleu	a5,a6,18874 <__mdiff+0x1b0>
   18714:	ffc78793          	addi	a5,a5,-4
   18718:	ffc70713          	addi	a4,a4,-4
   1871c:	0007a583          	lw	a1,0(a5)
   18720:	00072683          	lw	a3,0(a4)
   18724:	fed586e3          	beq	a1,a3,18710 <__mdiff+0x4c>
   18728:	18d5f063          	bleu	a3,a1,188a8 <__mdiff+0x1e4>
   1872c:	00090793          	mv	a5,s2
   18730:	00080493          	mv	s1,a6
   18734:	00098913          	mv	s2,s3
   18738:	00100a13          	li	s4,1
   1873c:	00078993          	mv	s3,a5
   18740:	0140006f          	j	18754 <__mdiff+0x90>
   18744:	16074a63          	bltz	a4,188b8 <__mdiff+0x1f4>
   18748:	01860493          	addi	s1,a2,24
   1874c:	01858413          	addi	s0,a1,24
   18750:	00000a13          	li	s4,0
   18754:	00892583          	lw	a1,8(s2)
   18758:	e14ff0ef          	jal	17d6c <_Balloc>
   1875c:	01492e03          	lw	t3,20(s2)
   18760:	0149af03          	lw	t5,20(s3)
   18764:	00010337          	lui	t1,0x10
   18768:	002e1e93          	slli	t4,t3,0x2
   1876c:	002f1f13          	slli	t5,t5,0x2
   18770:	01452823          	sw	s4,16(a0)
   18774:	01d40eb3          	add	t4,s0,t4
   18778:	01e48f33          	add	t5,s1,t5
   1877c:	01850813          	addi	a6,a0,24
   18780:	00000693          	li	a3,0
   18784:	fff3031b          	addiw	t1,t1,-1
   18788:	00042583          	lw	a1,0(s0)
   1878c:	0004a883          	lw	a7,0(s1)
   18790:	00480813          	addi	a6,a6,4
   18794:	0065f633          	and	a2,a1,t1
   18798:	00d606bb          	addw	a3,a2,a3
   1879c:	0068f733          	and	a4,a7,t1
   187a0:	40e6873b          	subw	a4,a3,a4
   187a4:	0105d59b          	srliw	a1,a1,0x10
   187a8:	0108d69b          	srliw	a3,a7,0x10
   187ac:	40d585bb          	subw	a1,a1,a3
   187b0:	4107569b          	sraiw	a3,a4,0x10
   187b4:	00d586bb          	addw	a3,a1,a3
   187b8:	0106979b          	slliw	a5,a3,0x10
   187bc:	00677733          	and	a4,a4,t1
   187c0:	00e7e7b3          	or	a5,a5,a4
   187c4:	00448493          	addi	s1,s1,4
   187c8:	fef82e23          	sw	a5,-4(a6)
   187cc:	00440413          	addi	s0,s0,4
   187d0:	4106d69b          	sraiw	a3,a3,0x10
   187d4:	fbe4eae3          	bltu	s1,t5,18788 <__mdiff+0xc4>
   187d8:	07d47063          	bleu	t4,s0,18838 <__mdiff+0x174>
   187dc:	00010f37          	lui	t5,0x10
   187e0:	00080313          	mv	t1,a6
   187e4:	00040893          	mv	a7,s0
   187e8:	ffff0f1b          	addiw	t5,t5,-1
   187ec:	0008a583          	lw	a1,0(a7)
   187f0:	00430313          	addi	t1,t1,4 # 10004 <_ftext+0x4>
   187f4:	00488893          	addi	a7,a7,4
   187f8:	01e5f633          	and	a2,a1,t5
   187fc:	00d606bb          	addw	a3,a2,a3
   18800:	4106d71b          	sraiw	a4,a3,0x10
   18804:	0105d59b          	srliw	a1,a1,0x10
   18808:	00e5873b          	addw	a4,a1,a4
   1880c:	01e6f6b3          	and	a3,a3,t5
   18810:	0107179b          	slliw	a5,a4,0x10
   18814:	00d7e7b3          	or	a5,a5,a3
   18818:	fef32e23          	sw	a5,-4(t1)
   1881c:	4107569b          	sraiw	a3,a4,0x10
   18820:	fdd8e6e3          	bltu	a7,t4,187ec <__mdiff+0x128>
   18824:	fff44413          	not	s0,s0
   18828:	01d40eb3          	add	t4,s0,t4
   1882c:	ffcefe93          	andi	t4,t4,-4
   18830:	004e8e93          	addi	t4,t4,4
   18834:	01d80833          	add	a6,a6,t4
   18838:	ffc80813          	addi	a6,a6,-4
   1883c:	00079a63          	bnez	a5,18850 <__mdiff+0x18c>
   18840:	ffc80813          	addi	a6,a6,-4
   18844:	00082783          	lw	a5,0(a6)
   18848:	fffe0e1b          	addiw	t3,t3,-1
   1884c:	fe078ae3          	beqz	a5,18840 <__mdiff+0x17c>
   18850:	02813083          	ld	ra,40(sp)
   18854:	02013403          	ld	s0,32(sp)
   18858:	01813483          	ld	s1,24(sp)
   1885c:	01013903          	ld	s2,16(sp)
   18860:	00813983          	ld	s3,8(sp)
   18864:	00013a03          	ld	s4,0(sp)
   18868:	01c52a23          	sw	t3,20(a0)
   1886c:	03010113          	addi	sp,sp,48
   18870:	00008067          	ret
   18874:	00000593          	li	a1,0
   18878:	cf4ff0ef          	jal	17d6c <_Balloc>
   1887c:	02813083          	ld	ra,40(sp)
   18880:	00100793          	li	a5,1
   18884:	02013403          	ld	s0,32(sp)
   18888:	01813483          	ld	s1,24(sp)
   1888c:	01013903          	ld	s2,16(sp)
   18890:	00813983          	ld	s3,8(sp)
   18894:	00013a03          	ld	s4,0(sp)
   18898:	00f52a23          	sw	a5,20(a0)
   1889c:	00052c23          	sw	zero,24(a0)
   188a0:	03010113          	addi	sp,sp,48
   188a4:	00008067          	ret
   188a8:	00040493          	mv	s1,s0
   188ac:	00000a13          	li	s4,0
   188b0:	00080413          	mv	s0,a6
   188b4:	ea1ff06f          	j	18754 <__mdiff+0x90>
   188b8:	00090793          	mv	a5,s2
   188bc:	01890493          	addi	s1,s2,24
   188c0:	01898413          	addi	s0,s3,24
   188c4:	00098913          	mv	s2,s3
   188c8:	00100a13          	li	s4,1
   188cc:	00078993          	mv	s3,a5
   188d0:	e85ff06f          	j	18754 <__mdiff+0x90>

00000000000188d4 <__ulp>:
   188d4:	e20507d3          	fmv.x.d	a5,fa0
   188d8:	7ff00737          	lui	a4,0x7ff00
   188dc:	4207d793          	srai	a5,a5,0x20
   188e0:	00e7f7b3          	and	a5,a5,a4
   188e4:	fcc00737          	lui	a4,0xfcc00
   188e8:	00e787bb          	addw	a5,a5,a4
   188ec:	00f05863          	blez	a5,188fc <__ulp+0x28>
   188f0:	02079793          	slli	a5,a5,0x20
   188f4:	f2078553          	fmv.d.x	fa0,a5
   188f8:	00008067          	ret
   188fc:	40f007bb          	negw	a5,a5
   18900:	4147d79b          	sraiw	a5,a5,0x14
   18904:	01300713          	li	a4,19
   18908:	04f75063          	ble	a5,a4,18948 <__ulp+0x74>
   1890c:	fec7869b          	addiw	a3,a5,-20
   18910:	01e00613          	li	a2,30
   18914:	00000793          	li	a5,0
   18918:	00100713          	li	a4,1
   1891c:	00d64663          	blt	a2,a3,18928 <__ulp+0x54>
   18920:	fff6c693          	not	a3,a3
   18924:	00d7173b          	sllw	a4,a4,a3
   18928:	fff00693          	li	a3,-1
   1892c:	02069693          	slli	a3,a3,0x20
   18930:	02071713          	slli	a4,a4,0x20
   18934:	02075713          	srli	a4,a4,0x20
   18938:	00d7f7b3          	and	a5,a5,a3
   1893c:	00e7e7b3          	or	a5,a5,a4
   18940:	f2078553          	fmv.d.x	fa0,a5
   18944:	00008067          	ret
   18948:	00080737          	lui	a4,0x80
   1894c:	40f757bb          	sraw	a5,a4,a5
   18950:	fa1ff06f          	j	188f0 <__ulp+0x1c>

0000000000018954 <__b2d>:
   18954:	fd010113          	addi	sp,sp,-48
   18958:	02813023          	sd	s0,32(sp)
   1895c:	01452403          	lw	s0,20(a0)
   18960:	00913c23          	sd	s1,24(sp)
   18964:	01850493          	addi	s1,a0,24
   18968:	00241413          	slli	s0,s0,0x2
   1896c:	00848433          	add	s0,s1,s0
   18970:	01213823          	sd	s2,16(sp)
   18974:	ffc42903          	lw	s2,-4(s0)
   18978:	01313423          	sd	s3,8(sp)
   1897c:	01413023          	sd	s4,0(sp)
   18980:	00090513          	mv	a0,s2
   18984:	00058a13          	mv	s4,a1
   18988:	02113423          	sd	ra,40(sp)
   1898c:	eecff0ef          	jal	18078 <__hi0bits>
   18990:	02000793          	li	a5,32
   18994:	40a7873b          	subw	a4,a5,a0
   18998:	00ea2023          	sw	a4,0(s4)
   1899c:	00a00713          	li	a4,10
   189a0:	ffc40993          	addi	s3,s0,-4
   189a4:	06a74a63          	blt	a4,a0,18a18 <__b2d+0xc4>
   189a8:	00b00693          	li	a3,11
   189ac:	40a686bb          	subw	a3,a3,a0
   189b0:	3ff00737          	lui	a4,0x3ff00
   189b4:	00d957bb          	srlw	a5,s2,a3
   189b8:	00e7e7b3          	or	a5,a5,a4
   189bc:	02079793          	slli	a5,a5,0x20
   189c0:	00000713          	li	a4,0
   189c4:	0134f663          	bleu	s3,s1,189d0 <__b2d+0x7c>
   189c8:	ff842703          	lw	a4,-8(s0)
   189cc:	00d7573b          	srlw	a4,a4,a3
   189d0:	0155051b          	addiw	a0,a0,21
   189d4:	00a9153b          	sllw	a0,s2,a0
   189d8:	00e56533          	or	a0,a0,a4
   189dc:	fff00713          	li	a4,-1
   189e0:	02051513          	slli	a0,a0,0x20
   189e4:	02071713          	slli	a4,a4,0x20
   189e8:	02055513          	srli	a0,a0,0x20
   189ec:	00e7f7b3          	and	a5,a5,a4
   189f0:	00a7e7b3          	or	a5,a5,a0
   189f4:	02813083          	ld	ra,40(sp)
   189f8:	f2078553          	fmv.d.x	fa0,a5
   189fc:	02013403          	ld	s0,32(sp)
   18a00:	01813483          	ld	s1,24(sp)
   18a04:	01013903          	ld	s2,16(sp)
   18a08:	00813983          	ld	s3,8(sp)
   18a0c:	00013a03          	ld	s4,0(sp)
   18a10:	03010113          	addi	sp,sp,48
   18a14:	00008067          	ret
   18a18:	ff55051b          	addiw	a0,a0,-11
   18a1c:	0534f263          	bleu	s3,s1,18a60 <__b2d+0x10c>
   18a20:	ff842683          	lw	a3,-8(s0)
   18a24:	04050263          	beqz	a0,18a68 <__b2d+0x114>
   18a28:	40a7863b          	subw	a2,a5,a0
   18a2c:	00a917bb          	sllw	a5,s2,a0
   18a30:	3ff00937          	lui	s2,0x3ff00
   18a34:	00c6d73b          	srlw	a4,a3,a2
   18a38:	0127e7b3          	or	a5,a5,s2
   18a3c:	00e7e7b3          	or	a5,a5,a4
   18a40:	ff840713          	addi	a4,s0,-8
   18a44:	02079793          	slli	a5,a5,0x20
   18a48:	04e4fa63          	bleu	a4,s1,18a9c <__b2d+0x148>
   18a4c:	ff442703          	lw	a4,-12(s0)
   18a50:	00a6953b          	sllw	a0,a3,a0
   18a54:	00c756bb          	srlw	a3,a4,a2
   18a58:	00a6e533          	or	a0,a3,a0
   18a5c:	f81ff06f          	j	189dc <__b2d+0x88>
   18a60:	00000693          	li	a3,0
   18a64:	02051063          	bnez	a0,18a84 <__b2d+0x130>
   18a68:	3ff00737          	lui	a4,0x3ff00
   18a6c:	00e967b3          	or	a5,s2,a4
   18a70:	02069693          	slli	a3,a3,0x20
   18a74:	0206d693          	srli	a3,a3,0x20
   18a78:	02079793          	slli	a5,a5,0x20
   18a7c:	00d7e7b3          	or	a5,a5,a3
   18a80:	f75ff06f          	j	189f4 <__b2d+0xa0>
   18a84:	00a917bb          	sllw	a5,s2,a0
   18a88:	3ff00737          	lui	a4,0x3ff00
   18a8c:	00e7e7b3          	or	a5,a5,a4
   18a90:	02079793          	slli	a5,a5,0x20
   18a94:	00000513          	li	a0,0
   18a98:	f45ff06f          	j	189dc <__b2d+0x88>
   18a9c:	00a6953b          	sllw	a0,a3,a0
   18aa0:	f3dff06f          	j	189dc <__b2d+0x88>

0000000000018aa4 <__d2b>:
   18aa4:	fc010113          	addi	sp,sp,-64
   18aa8:	02813823          	sd	s0,48(sp)
   18aac:	e2058453          	fmv.x.d	s0,fa1
   18ab0:	00100593          	li	a1,1
   18ab4:	02913423          	sd	s1,40(sp)
   18ab8:	03213023          	sd	s2,32(sp)
   18abc:	01313c23          	sd	s3,24(sp)
   18ac0:	01413823          	sd	s4,16(sp)
   18ac4:	00068993          	mv	s3,a3
   18ac8:	02113c23          	sd	ra,56(sp)
   18acc:	00060a13          	mv	s4,a2
   18ad0:	a9cff0ef          	jal	17d6c <_Balloc>
   18ad4:	42045793          	srai	a5,s0,0x20
   18ad8:	02179493          	slli	s1,a5,0x21
   18adc:	001006b7          	lui	a3,0x100
   18ae0:	fff6871b          	addiw	a4,a3,-1
   18ae4:	0354d493          	srli	s1,s1,0x35
   18ae8:	00050913          	mv	s2,a0
   18aec:	00e7f7b3          	and	a5,a5,a4
   18af0:	00048463          	beqz	s1,18af8 <__d2b+0x54>
   18af4:	00d7e7b3          	or	a5,a5,a3
   18af8:	00f12623          	sw	a5,12(sp)
   18afc:	0004041b          	sext.w	s0,s0
   18b00:	08040063          	beqz	s0,18b80 <__d2b+0xdc>
   18b04:	00810513          	addi	a0,sp,8
   18b08:	00812423          	sw	s0,8(sp)
   18b0c:	de8ff0ef          	jal	180f4 <__lo0bits>
   18b10:	00c12783          	lw	a5,12(sp)
   18b14:	0a051463          	bnez	a0,18bbc <__d2b+0x118>
   18b18:	00812703          	lw	a4,8(sp)
   18b1c:	00e92c23          	sw	a4,24(s2) # 3ff00018 <_end+0x3fed9270>
   18b20:	0017b413          	seqz	s0,a5
   18b24:	00200713          	li	a4,2
   18b28:	4087043b          	subw	s0,a4,s0
   18b2c:	00f92e23          	sw	a5,28(s2)
   18b30:	00892a23          	sw	s0,20(s2)
   18b34:	06049663          	bnez	s1,18ba0 <__d2b+0xfc>
   18b38:	bce5051b          	addiw	a0,a0,-1074
   18b3c:	00241793          	slli	a5,s0,0x2
   18b40:	00aa2023          	sw	a0,0(s4)
   18b44:	00f907b3          	add	a5,s2,a5
   18b48:	0147a503          	lw	a0,20(a5)
   18b4c:	0054141b          	slliw	s0,s0,0x5
   18b50:	d28ff0ef          	jal	18078 <__hi0bits>
   18b54:	40a4053b          	subw	a0,s0,a0
   18b58:	00a9a023          	sw	a0,0(s3)
   18b5c:	03813083          	ld	ra,56(sp)
   18b60:	00090513          	mv	a0,s2
   18b64:	03013403          	ld	s0,48(sp)
   18b68:	02813483          	ld	s1,40(sp)
   18b6c:	02013903          	ld	s2,32(sp)
   18b70:	01813983          	ld	s3,24(sp)
   18b74:	01013a03          	ld	s4,16(sp)
   18b78:	04010113          	addi	sp,sp,64
   18b7c:	00008067          	ret
   18b80:	00c10513          	addi	a0,sp,12
   18b84:	d70ff0ef          	jal	180f4 <__lo0bits>
   18b88:	00c12783          	lw	a5,12(sp)
   18b8c:	00100413          	li	s0,1
   18b90:	00892a23          	sw	s0,20(s2)
   18b94:	00f92c23          	sw	a5,24(s2)
   18b98:	0205051b          	addiw	a0,a0,32
   18b9c:	f8048ee3          	beqz	s1,18b38 <__d2b+0x94>
   18ba0:	bcd4849b          	addiw	s1,s1,-1075
   18ba4:	00a484bb          	addw	s1,s1,a0
   18ba8:	03500793          	li	a5,53
   18bac:	009a2023          	sw	s1,0(s4)
   18bb0:	40a7853b          	subw	a0,a5,a0
   18bb4:	00a9a023          	sw	a0,0(s3)
   18bb8:	fa5ff06f          	j	18b5c <__d2b+0xb8>
   18bbc:	02000713          	li	a4,32
   18bc0:	00812683          	lw	a3,8(sp)
   18bc4:	40a7073b          	subw	a4,a4,a0
   18bc8:	00e7973b          	sllw	a4,a5,a4
   18bcc:	00d76733          	or	a4,a4,a3
   18bd0:	00a7d7bb          	srlw	a5,a5,a0
   18bd4:	00e92c23          	sw	a4,24(s2)
   18bd8:	00f12623          	sw	a5,12(sp)
   18bdc:	f45ff06f          	j	18b20 <__d2b+0x7c>

0000000000018be0 <__ratio>:
   18be0:	fd010113          	addi	sp,sp,-48
   18be4:	00913c23          	sd	s1,24(sp)
   18be8:	00058493          	mv	s1,a1
   18bec:	00810593          	addi	a1,sp,8
   18bf0:	02113423          	sd	ra,40(sp)
   18bf4:	02813023          	sd	s0,32(sp)
   18bf8:	01213823          	sd	s2,16(sp)
   18bfc:	00050913          	mv	s2,a0
   18c00:	d55ff0ef          	jal	18954 <__b2d>
   18c04:	00c10593          	addi	a1,sp,12
   18c08:	00048513          	mv	a0,s1
   18c0c:	e2050453          	fmv.x.d	s0,fa0
   18c10:	d45ff0ef          	jal	18954 <__b2d>
   18c14:	01492703          	lw	a4,20(s2)
   18c18:	0144a783          	lw	a5,20(s1)
   18c1c:	00c12603          	lw	a2,12(sp)
   18c20:	e20506d3          	fmv.x.d	a3,fa0
   18c24:	40f707bb          	subw	a5,a4,a5
   18c28:	0057971b          	slliw	a4,a5,0x5
   18c2c:	00812783          	lw	a5,8(sp)
   18c30:	40c787bb          	subw	a5,a5,a2
   18c34:	00f707bb          	addw	a5,a4,a5
   18c38:	04f05463          	blez	a5,18c80 <__ratio+0xa0>
   18c3c:	00040713          	mv	a4,s0
   18c40:	0147979b          	slliw	a5,a5,0x14
   18c44:	42045413          	srai	s0,s0,0x20
   18c48:	00f407bb          	addw	a5,s0,a5
   18c4c:	02071413          	slli	s0,a4,0x20
   18c50:	02079793          	slli	a5,a5,0x20
   18c54:	02045413          	srli	s0,s0,0x20
   18c58:	00f46433          	or	s0,s0,a5
   18c5c:	f20407d3          	fmv.d.x	fa5,s0
   18c60:	f2068753          	fmv.d.x	fa4,a3
   18c64:	02813083          	ld	ra,40(sp)
   18c68:	02013403          	ld	s0,32(sp)
   18c6c:	1ae7f553          	fdiv.d	fa0,fa5,fa4
   18c70:	01813483          	ld	s1,24(sp)
   18c74:	01013903          	ld	s2,16(sp)
   18c78:	03010113          	addi	sp,sp,48
   18c7c:	00008067          	ret
   18c80:	00068613          	mv	a2,a3
   18c84:	0147979b          	slliw	a5,a5,0x14
   18c88:	4206d693          	srai	a3,a3,0x20
   18c8c:	40f687bb          	subw	a5,a3,a5
   18c90:	02061693          	slli	a3,a2,0x20
   18c94:	02079793          	slli	a5,a5,0x20
   18c98:	0206d693          	srli	a3,a3,0x20
   18c9c:	00f6e6b3          	or	a3,a3,a5
   18ca0:	fbdff06f          	j	18c5c <__ratio+0x7c>

0000000000018ca4 <_mprec_log10>:
   18ca4:	01700793          	li	a5,23
   18ca8:	02a7d263          	ble	a0,a5,18ccc <_mprec_log10+0x28>
   18cac:	000247b7          	lui	a5,0x24
   18cb0:	4507b507          	fld	fa0,1104(a5) # 24450 <mask+0x28>
   18cb4:	000247b7          	lui	a5,0x24
   18cb8:	4587b787          	fld	fa5,1112(a5) # 24458 <mask+0x30>
   18cbc:	fff5051b          	addiw	a0,a0,-1
   18cc0:	12f57553          	fmul.d	fa0,fa0,fa5
   18cc4:	fe051ce3          	bnez	a0,18cbc <_mprec_log10+0x18>
   18cc8:	00008067          	ret
   18ccc:	000217b7          	lui	a5,0x21
   18cd0:	e3078793          	addi	a5,a5,-464 # 20e30 <p05.2568>
   18cd4:	00351513          	slli	a0,a0,0x3
   18cd8:	00a78533          	add	a0,a5,a0
   18cdc:	01053507          	fld	fa0,16(a0)
   18ce0:	00008067          	ret

0000000000018ce4 <__copybits>:
   18ce4:	01462703          	lw	a4,20(a2)
   18ce8:	fff5859b          	addiw	a1,a1,-1
   18cec:	4055d81b          	sraiw	a6,a1,0x5
   18cf0:	00180813          	addi	a6,a6,1
   18cf4:	01860793          	addi	a5,a2,24
   18cf8:	00271713          	slli	a4,a4,0x2
   18cfc:	00281813          	slli	a6,a6,0x2
   18d00:	00e786b3          	add	a3,a5,a4
   18d04:	01050833          	add	a6,a0,a6
   18d08:	02d7f863          	bleu	a3,a5,18d38 <__copybits+0x54>
   18d0c:	00050713          	mv	a4,a0
   18d10:	00478793          	addi	a5,a5,4
   18d14:	ffc7a583          	lw	a1,-4(a5)
   18d18:	00470713          	addi	a4,a4,4 # 3ff00004 <_end+0x3fed925c>
   18d1c:	feb72e23          	sw	a1,-4(a4)
   18d20:	fed7e8e3          	bltu	a5,a3,18d10 <__copybits+0x2c>
   18d24:	40c687b3          	sub	a5,a3,a2
   18d28:	fe778793          	addi	a5,a5,-25
   18d2c:	ffc7f793          	andi	a5,a5,-4
   18d30:	00478793          	addi	a5,a5,4
   18d34:	00f50533          	add	a0,a0,a5
   18d38:	01057863          	bleu	a6,a0,18d48 <__copybits+0x64>
   18d3c:	00450513          	addi	a0,a0,4
   18d40:	fe052e23          	sw	zero,-4(a0)
   18d44:	ff056ce3          	bltu	a0,a6,18d3c <__copybits+0x58>
   18d48:	00008067          	ret

0000000000018d4c <__any_on>:
   18d4c:	01452783          	lw	a5,20(a0)
   18d50:	4055d71b          	sraiw	a4,a1,0x5
   18d54:	01850693          	addi	a3,a0,24
   18d58:	04e7c463          	blt	a5,a4,18da0 <__any_on+0x54>
   18d5c:	04f75063          	ble	a5,a4,18d9c <__any_on+0x50>
   18d60:	00070793          	mv	a5,a4
   18d64:	00279793          	slli	a5,a5,0x2
   18d68:	01f5f593          	andi	a1,a1,31
   18d6c:	00f687b3          	add	a5,a3,a5
   18d70:	04059063          	bnez	a1,18db0 <__any_on+0x64>
   18d74:	04f6fa63          	bleu	a5,a3,18dc8 <__any_on+0x7c>
   18d78:	ffc7a503          	lw	a0,-4(a5)
   18d7c:	ffc78793          	addi	a5,a5,-4
   18d80:	00051a63          	bnez	a0,18d94 <__any_on+0x48>
   18d84:	02f6f463          	bleu	a5,a3,18dac <__any_on+0x60>
   18d88:	ffc78793          	addi	a5,a5,-4
   18d8c:	0007a703          	lw	a4,0(a5)
   18d90:	fe070ae3          	beqz	a4,18d84 <__any_on+0x38>
   18d94:	00100513          	li	a0,1
   18d98:	00008067          	ret
   18d9c:	00070793          	mv	a5,a4
   18da0:	00279793          	slli	a5,a5,0x2
   18da4:	00f687b3          	add	a5,a3,a5
   18da8:	fcdff06f          	j	18d74 <__any_on+0x28>
   18dac:	00008067          	ret
   18db0:	0007a603          	lw	a2,0(a5)
   18db4:	00100513          	li	a0,1
   18db8:	00b6573b          	srlw	a4,a2,a1
   18dbc:	00b715bb          	sllw	a1,a4,a1
   18dc0:	fab60ae3          	beq	a2,a1,18d74 <__any_on+0x28>
   18dc4:	00008067          	ret
   18dc8:	00000513          	li	a0,0
   18dcc:	00008067          	ret

0000000000018dd0 <_realloc_r>:
   18dd0:	fb010113          	addi	sp,sp,-80
   18dd4:	02913c23          	sd	s1,56(sp)
   18dd8:	04113423          	sd	ra,72(sp)
   18ddc:	04813023          	sd	s0,64(sp)
   18de0:	03213823          	sd	s2,48(sp)
   18de4:	03313423          	sd	s3,40(sp)
   18de8:	03413023          	sd	s4,32(sp)
   18dec:	01513c23          	sd	s5,24(sp)
   18df0:	01613823          	sd	s6,16(sp)
   18df4:	01713423          	sd	s7,8(sp)
   18df8:	01813023          	sd	s8,0(sp)
   18dfc:	00060493          	mv	s1,a2
   18e00:	1c058a63          	beqz	a1,18fd4 <_realloc_r+0x204>
   18e04:	00058993          	mv	s3,a1
   18e08:	00050913          	mv	s2,a0
   18e0c:	f90f80ef          	jal	1159c <__malloc_lock>
   18e10:	ff89b783          	ld	a5,-8(s3)
   18e14:	01748413          	addi	s0,s1,23
   18e18:	02e00713          	li	a4,46
   18e1c:	ff098a93          	addi	s5,s3,-16
   18e20:	ffc7fa13          	andi	s4,a5,-4
   18e24:	0c877463          	bleu	s0,a4,18eec <_realloc_r+0x11c>
   18e28:	80000737          	lui	a4,0x80000
   18e2c:	ff047413          	andi	s0,s0,-16
   18e30:	fff74713          	not	a4,a4
   18e34:	14876a63          	bltu	a4,s0,18f88 <_realloc_r+0x1b8>
   18e38:	14946863          	bltu	s0,s1,18f88 <_realloc_r+0x1b8>
   18e3c:	0a8a5c63          	ble	s0,s4,18ef4 <_realloc_r+0x124>
   18e40:	00024b37          	lui	s6,0x24
   18e44:	b18b0b13          	addi	s6,s6,-1256 # 23b18 <__malloc_av_>
   18e48:	010b3703          	ld	a4,16(s6)
   18e4c:	014a86b3          	add	a3,s5,s4
   18e50:	2ee68e63          	beq	a3,a4,1914c <_realloc_r+0x37c>
   18e54:	0086b703          	ld	a4,8(a3) # 100008 <_end+0xd9260>
   18e58:	ffe77613          	andi	a2,a4,-2
   18e5c:	00c68633          	add	a2,a3,a2
   18e60:	00863603          	ld	a2,8(a2)
   18e64:	00167613          	andi	a2,a2,1
   18e68:	0e060c63          	beqz	a2,18f60 <_realloc_r+0x190>
   18e6c:	0017f793          	andi	a5,a5,1
   18e70:	26078063          	beqz	a5,190d0 <_realloc_r+0x300>
   18e74:	00048593          	mv	a1,s1
   18e78:	00090513          	mv	a0,s2
   18e7c:	e91f70ef          	jal	10d0c <_malloc_r>
   18e80:	00050493          	mv	s1,a0
   18e84:	48050e63          	beqz	a0,19320 <_realloc_r+0x550>
   18e88:	ff89b783          	ld	a5,-8(s3)
   18e8c:	ff050713          	addi	a4,a0,-16
   18e90:	ffe7f793          	andi	a5,a5,-2
   18e94:	00fa87b3          	add	a5,s5,a5
   18e98:	40f70e63          	beq	a4,a5,192b4 <_realloc_r+0x4e4>
   18e9c:	ff8a0613          	addi	a2,s4,-8
   18ea0:	04800793          	li	a5,72
   18ea4:	3ec7e263          	bltu	a5,a2,19288 <_realloc_r+0x4b8>
   18ea8:	02700713          	li	a4,39
   18eac:	36c76663          	bltu	a4,a2,19218 <_realloc_r+0x448>
   18eb0:	00050793          	mv	a5,a0
   18eb4:	00098713          	mv	a4,s3
   18eb8:	00073683          	ld	a3,0(a4) # ffffffff80000000 <_end+0xffffffff7ffd9258>
   18ebc:	00d7b023          	sd	a3,0(a5)
   18ec0:	00873683          	ld	a3,8(a4)
   18ec4:	00d7b423          	sd	a3,8(a5)
   18ec8:	01073703          	ld	a4,16(a4)
   18ecc:	00e7b823          	sd	a4,16(a5)
   18ed0:	00098593          	mv	a1,s3
   18ed4:	00090513          	mv	a0,s2
   18ed8:	d7dfd0ef          	jal	16c54 <_free_r>
   18edc:	00090513          	mv	a0,s2
   18ee0:	ec0f80ef          	jal	115a0 <__malloc_unlock>
   18ee4:	00048513          	mv	a0,s1
   18ee8:	0480006f          	j	18f30 <_realloc_r+0x160>
   18eec:	02000413          	li	s0,32
   18ef0:	f49ff06f          	j	18e38 <_realloc_r+0x68>
   18ef4:	00098493          	mv	s1,s3
   18ef8:	408a07b3          	sub	a5,s4,s0
   18efc:	01f00713          	li	a4,31
   18f00:	08f76c63          	bltu	a4,a5,18f98 <_realloc_r+0x1c8>
   18f04:	008ab783          	ld	a5,8(s5)
   18f08:	014a8733          	add	a4,s5,s4
   18f0c:	0017f793          	andi	a5,a5,1
   18f10:	0147e633          	or	a2,a5,s4
   18f14:	00cab423          	sd	a2,8(s5)
   18f18:	00873783          	ld	a5,8(a4)
   18f1c:	0017e793          	ori	a5,a5,1
   18f20:	00f73423          	sd	a5,8(a4)
   18f24:	00090513          	mv	a0,s2
   18f28:	e78f80ef          	jal	115a0 <__malloc_unlock>
   18f2c:	00048513          	mv	a0,s1
   18f30:	04813083          	ld	ra,72(sp)
   18f34:	04013403          	ld	s0,64(sp)
   18f38:	03813483          	ld	s1,56(sp)
   18f3c:	03013903          	ld	s2,48(sp)
   18f40:	02813983          	ld	s3,40(sp)
   18f44:	02013a03          	ld	s4,32(sp)
   18f48:	01813a83          	ld	s5,24(sp)
   18f4c:	01013b03          	ld	s6,16(sp)
   18f50:	00813b83          	ld	s7,8(sp)
   18f54:	00013c03          	ld	s8,0(sp)
   18f58:	05010113          	addi	sp,sp,80
   18f5c:	00008067          	ret
   18f60:	ffc77713          	andi	a4,a4,-4
   18f64:	01470733          	add	a4,a4,s4
   18f68:	0a874063          	blt	a4,s0,19008 <_realloc_r+0x238>
   18f6c:	0186b783          	ld	a5,24(a3)
   18f70:	0106b683          	ld	a3,16(a3)
   18f74:	00098493          	mv	s1,s3
   18f78:	00070a13          	mv	s4,a4
   18f7c:	00f6bc23          	sd	a5,24(a3)
   18f80:	00d7b823          	sd	a3,16(a5)
   18f84:	f75ff06f          	j	18ef8 <_realloc_r+0x128>
   18f88:	00c00793          	li	a5,12
   18f8c:	00f92023          	sw	a5,0(s2)
   18f90:	00000513          	li	a0,0
   18f94:	f9dff06f          	j	18f30 <_realloc_r+0x160>
   18f98:	008ab703          	ld	a4,8(s5)
   18f9c:	008a85b3          	add	a1,s5,s0
   18fa0:	0017e693          	ori	a3,a5,1
   18fa4:	00177713          	andi	a4,a4,1
   18fa8:	00876433          	or	s0,a4,s0
   18fac:	008ab423          	sd	s0,8(s5)
   18fb0:	00d5b423          	sd	a3,8(a1)
   18fb4:	00f587b3          	add	a5,a1,a5
   18fb8:	0087b703          	ld	a4,8(a5)
   18fbc:	01058593          	addi	a1,a1,16
   18fc0:	00090513          	mv	a0,s2
   18fc4:	00176713          	ori	a4,a4,1
   18fc8:	00e7b423          	sd	a4,8(a5)
   18fcc:	c89fd0ef          	jal	16c54 <_free_r>
   18fd0:	f55ff06f          	j	18f24 <_realloc_r+0x154>
   18fd4:	04813083          	ld	ra,72(sp)
   18fd8:	04013403          	ld	s0,64(sp)
   18fdc:	03813483          	ld	s1,56(sp)
   18fe0:	03013903          	ld	s2,48(sp)
   18fe4:	02813983          	ld	s3,40(sp)
   18fe8:	02013a03          	ld	s4,32(sp)
   18fec:	01813a83          	ld	s5,24(sp)
   18ff0:	01013b03          	ld	s6,16(sp)
   18ff4:	00813b83          	ld	s7,8(sp)
   18ff8:	00013c03          	ld	s8,0(sp)
   18ffc:	00060593          	mv	a1,a2
   19000:	05010113          	addi	sp,sp,80
   19004:	d09f706f          	j	10d0c <_malloc_r>
   19008:	0017f793          	andi	a5,a5,1
   1900c:	e60794e3          	bnez	a5,18e74 <_realloc_r+0xa4>
   19010:	ff09bb83          	ld	s7,-16(s3)
   19014:	417a8bb3          	sub	s7,s5,s7
   19018:	008bb783          	ld	a5,8(s7) # ffffffff80000008 <_end+0xffffffff7ffd9260>
   1901c:	ffc7f793          	andi	a5,a5,-4
   19020:	00f70b33          	add	s6,a4,a5
   19024:	0a8b4e63          	blt	s6,s0,190e0 <_realloc_r+0x310>
   19028:	0186b783          	ld	a5,24(a3)
   1902c:	0106b703          	ld	a4,16(a3)
   19030:	ff8a0613          	addi	a2,s4,-8
   19034:	010b8493          	addi	s1,s7,16
   19038:	00f73c23          	sd	a5,24(a4)
   1903c:	00e7b823          	sd	a4,16(a5)
   19040:	010bb703          	ld	a4,16(s7)
   19044:	018bb783          	ld	a5,24(s7)
   19048:	00f73c23          	sd	a5,24(a4)
   1904c:	00e7b823          	sd	a4,16(a5)
   19050:	04800793          	li	a5,72
   19054:	1ec7e463          	bltu	a5,a2,1923c <_realloc_r+0x46c>
   19058:	02700713          	li	a4,39
   1905c:	00048793          	mv	a5,s1
   19060:	04c77663          	bleu	a2,a4,190ac <_realloc_r+0x2dc>
   19064:	0009b783          	ld	a5,0(s3)
   19068:	00fbb823          	sd	a5,16(s7)
   1906c:	0089b783          	ld	a5,8(s3)
   19070:	00fbbc23          	sd	a5,24(s7)
   19074:	03700793          	li	a5,55
   19078:	24c7f863          	bleu	a2,a5,192c8 <_realloc_r+0x4f8>
   1907c:	0109b783          	ld	a5,16(s3)
   19080:	02fbb023          	sd	a5,32(s7)
   19084:	0189b783          	ld	a5,24(s3)
   19088:	02fbb423          	sd	a5,40(s7)
   1908c:	04800793          	li	a5,72
   19090:	0af61863          	bne	a2,a5,19140 <_realloc_r+0x370>
   19094:	0209b703          	ld	a4,32(s3)
   19098:	040b8793          	addi	a5,s7,64
   1909c:	03098993          	addi	s3,s3,48
   190a0:	02ebb823          	sd	a4,48(s7)
   190a4:	ff89b703          	ld	a4,-8(s3)
   190a8:	02ebbc23          	sd	a4,56(s7)
   190ac:	0009b703          	ld	a4,0(s3)
   190b0:	000b0a13          	mv	s4,s6
   190b4:	000b8a93          	mv	s5,s7
   190b8:	00e7b023          	sd	a4,0(a5)
   190bc:	0089b703          	ld	a4,8(s3)
   190c0:	00e7b423          	sd	a4,8(a5)
   190c4:	0109b703          	ld	a4,16(s3)
   190c8:	00e7b823          	sd	a4,16(a5)
   190cc:	e2dff06f          	j	18ef8 <_realloc_r+0x128>
   190d0:	ff09bb83          	ld	s7,-16(s3)
   190d4:	417a8bb3          	sub	s7,s5,s7
   190d8:	008bb783          	ld	a5,8(s7)
   190dc:	ffc7f793          	andi	a5,a5,-4
   190e0:	00fa0b33          	add	s6,s4,a5
   190e4:	d88b48e3          	blt	s6,s0,18e74 <_realloc_r+0xa4>
   190e8:	018bb783          	ld	a5,24(s7)
   190ec:	010bb703          	ld	a4,16(s7)
   190f0:	ff8a0613          	addi	a2,s4,-8
   190f4:	04800693          	li	a3,72
   190f8:	00f73c23          	sd	a5,24(a4)
   190fc:	00e7b823          	sd	a4,16(a5)
   19100:	010b8493          	addi	s1,s7,16
   19104:	12c6ec63          	bltu	a3,a2,1923c <_realloc_r+0x46c>
   19108:	02700713          	li	a4,39
   1910c:	00048793          	mv	a5,s1
   19110:	f8c77ee3          	bleu	a2,a4,190ac <_realloc_r+0x2dc>
   19114:	0009b783          	ld	a5,0(s3)
   19118:	00fbb823          	sd	a5,16(s7)
   1911c:	0089b783          	ld	a5,8(s3)
   19120:	00fbbc23          	sd	a5,24(s7)
   19124:	03700793          	li	a5,55
   19128:	1ac7f063          	bleu	a2,a5,192c8 <_realloc_r+0x4f8>
   1912c:	0109b783          	ld	a5,16(s3)
   19130:	02fbb023          	sd	a5,32(s7)
   19134:	0189b783          	ld	a5,24(s3)
   19138:	02fbb423          	sd	a5,40(s7)
   1913c:	f4d60ce3          	beq	a2,a3,19094 <_realloc_r+0x2c4>
   19140:	030b8793          	addi	a5,s7,48
   19144:	02098993          	addi	s3,s3,32
   19148:	f65ff06f          	j	190ac <_realloc_r+0x2dc>
   1914c:	0086b703          	ld	a4,8(a3)
   19150:	02040693          	addi	a3,s0,32
   19154:	ffc77713          	andi	a4,a4,-4
   19158:	01470733          	add	a4,a4,s4
   1915c:	0ed75c63          	ble	a3,a4,19254 <_realloc_r+0x484>
   19160:	0017f793          	andi	a5,a5,1
   19164:	d00798e3          	bnez	a5,18e74 <_realloc_r+0xa4>
   19168:	ff09bb83          	ld	s7,-16(s3)
   1916c:	417a8bb3          	sub	s7,s5,s7
   19170:	008bb783          	ld	a5,8(s7)
   19174:	ffc7f793          	andi	a5,a5,-4
   19178:	00e78c33          	add	s8,a5,a4
   1917c:	f6dc42e3          	blt	s8,a3,190e0 <_realloc_r+0x310>
   19180:	018bb783          	ld	a5,24(s7)
   19184:	010bb703          	ld	a4,16(s7)
   19188:	ff8a0613          	addi	a2,s4,-8
   1918c:	04800693          	li	a3,72
   19190:	00f73c23          	sd	a5,24(a4)
   19194:	00e7b823          	sd	a4,16(a5)
   19198:	010b8493          	addi	s1,s7,16
   1919c:	14c6ea63          	bltu	a3,a2,192f0 <_realloc_r+0x520>
   191a0:	02700713          	li	a4,39
   191a4:	00048793          	mv	a5,s1
   191a8:	02c77263          	bleu	a2,a4,191cc <_realloc_r+0x3fc>
   191ac:	0009b783          	ld	a5,0(s3)
   191b0:	00fbb823          	sd	a5,16(s7)
   191b4:	0089b783          	ld	a5,8(s3)
   191b8:	00fbbc23          	sd	a5,24(s7)
   191bc:	03700793          	li	a5,55
   191c0:	14c7e063          	bltu	a5,a2,19300 <_realloc_r+0x530>
   191c4:	020b8793          	addi	a5,s7,32
   191c8:	01098993          	addi	s3,s3,16
   191cc:	0009b703          	ld	a4,0(s3)
   191d0:	00e7b023          	sd	a4,0(a5)
   191d4:	0089b703          	ld	a4,8(s3)
   191d8:	00e7b423          	sd	a4,8(a5)
   191dc:	0109b703          	ld	a4,16(s3)
   191e0:	00e7b823          	sd	a4,16(a5)
   191e4:	008b8733          	add	a4,s7,s0
   191e8:	408c07b3          	sub	a5,s8,s0
   191ec:	00eb3823          	sd	a4,16(s6)
   191f0:	0017e793          	ori	a5,a5,1
   191f4:	00f73423          	sd	a5,8(a4)
   191f8:	008bb783          	ld	a5,8(s7)
   191fc:	00090513          	mv	a0,s2
   19200:	0017f793          	andi	a5,a5,1
   19204:	0087e433          	or	s0,a5,s0
   19208:	008bb423          	sd	s0,8(s7)
   1920c:	b94f80ef          	jal	115a0 <__malloc_unlock>
   19210:	00048513          	mv	a0,s1
   19214:	d1dff06f          	j	18f30 <_realloc_r+0x160>
   19218:	0009b703          	ld	a4,0(s3)
   1921c:	00e53023          	sd	a4,0(a0)
   19220:	0089b703          	ld	a4,8(s3)
   19224:	00e53423          	sd	a4,8(a0)
   19228:	03700713          	li	a4,55
   1922c:	06c76463          	bltu	a4,a2,19294 <_realloc_r+0x4c4>
   19230:	01050793          	addi	a5,a0,16
   19234:	01098713          	addi	a4,s3,16
   19238:	c81ff06f          	j	18eb8 <_realloc_r+0xe8>
   1923c:	00098593          	mv	a1,s3
   19240:	00048513          	mv	a0,s1
   19244:	92dfe0ef          	jal	17b70 <memmove>
   19248:	000b0a13          	mv	s4,s6
   1924c:	000b8a93          	mv	s5,s7
   19250:	ca9ff06f          	j	18ef8 <_realloc_r+0x128>
   19254:	008a8ab3          	add	s5,s5,s0
   19258:	408707b3          	sub	a5,a4,s0
   1925c:	015b3823          	sd	s5,16(s6)
   19260:	0017e793          	ori	a5,a5,1
   19264:	00fab423          	sd	a5,8(s5)
   19268:	ff89b783          	ld	a5,-8(s3)
   1926c:	00090513          	mv	a0,s2
   19270:	0017f793          	andi	a5,a5,1
   19274:	0087e433          	or	s0,a5,s0
   19278:	fe89bc23          	sd	s0,-8(s3)
   1927c:	b24f80ef          	jal	115a0 <__malloc_unlock>
   19280:	00098513          	mv	a0,s3
   19284:	cadff06f          	j	18f30 <_realloc_r+0x160>
   19288:	00098593          	mv	a1,s3
   1928c:	8e5fe0ef          	jal	17b70 <memmove>
   19290:	c41ff06f          	j	18ed0 <_realloc_r+0x100>
   19294:	0109b703          	ld	a4,16(s3)
   19298:	00e53823          	sd	a4,16(a0)
   1929c:	0189b703          	ld	a4,24(s3)
   192a0:	00e53c23          	sd	a4,24(a0)
   192a4:	02f60863          	beq	a2,a5,192d4 <_realloc_r+0x504>
   192a8:	02050793          	addi	a5,a0,32
   192ac:	02098713          	addi	a4,s3,32
   192b0:	c09ff06f          	j	18eb8 <_realloc_r+0xe8>
   192b4:	ff853783          	ld	a5,-8(a0)
   192b8:	00098493          	mv	s1,s3
   192bc:	ffc7f793          	andi	a5,a5,-4
   192c0:	00fa0a33          	add	s4,s4,a5
   192c4:	c35ff06f          	j	18ef8 <_realloc_r+0x128>
   192c8:	020b8793          	addi	a5,s7,32
   192cc:	01098993          	addi	s3,s3,16
   192d0:	dddff06f          	j	190ac <_realloc_r+0x2dc>
   192d4:	0209b683          	ld	a3,32(s3)
   192d8:	03050793          	addi	a5,a0,48
   192dc:	03098713          	addi	a4,s3,48
   192e0:	02d53023          	sd	a3,32(a0)
   192e4:	0289b683          	ld	a3,40(s3)
   192e8:	02d53423          	sd	a3,40(a0)
   192ec:	bcdff06f          	j	18eb8 <_realloc_r+0xe8>
   192f0:	00098593          	mv	a1,s3
   192f4:	00048513          	mv	a0,s1
   192f8:	879fe0ef          	jal	17b70 <memmove>
   192fc:	ee9ff06f          	j	191e4 <_realloc_r+0x414>
   19300:	0109b783          	ld	a5,16(s3)
   19304:	02fbb023          	sd	a5,32(s7)
   19308:	0189b783          	ld	a5,24(s3)
   1930c:	02fbb423          	sd	a5,40(s7)
   19310:	02d60063          	beq	a2,a3,19330 <_realloc_r+0x560>
   19314:	030b8793          	addi	a5,s7,48
   19318:	02098993          	addi	s3,s3,32
   1931c:	eb1ff06f          	j	191cc <_realloc_r+0x3fc>
   19320:	00090513          	mv	a0,s2
   19324:	a7cf80ef          	jal	115a0 <__malloc_unlock>
   19328:	00000513          	li	a0,0
   1932c:	c05ff06f          	j	18f30 <_realloc_r+0x160>
   19330:	0209b703          	ld	a4,32(s3)
   19334:	040b8793          	addi	a5,s7,64
   19338:	03098993          	addi	s3,s3,48
   1933c:	02ebb823          	sd	a4,48(s7)
   19340:	ff89b703          	ld	a4,-8(s3)
   19344:	02ebbc23          	sd	a4,56(s7)
   19348:	e85ff06f          	j	191cc <_realloc_r+0x3fc>

000000000001934c <lflush>:
   1934c:	01055783          	lhu	a5,16(a0)
   19350:	00900713          	li	a4,9
   19354:	0097f793          	andi	a5,a5,9
   19358:	00e78663          	beq	a5,a4,19364 <lflush+0x18>
   1935c:	00000513          	li	a0,0
   19360:	00008067          	ret
   19364:	9dcfd06f          	j	16540 <fflush>

0000000000019368 <__srefill_r>:
   19368:	fd010113          	addi	sp,sp,-48
   1936c:	02813023          	sd	s0,32(sp)
   19370:	00913c23          	sd	s1,24(sp)
   19374:	02113423          	sd	ra,40(sp)
   19378:	01213823          	sd	s2,16(sp)
   1937c:	01313423          	sd	s3,8(sp)
   19380:	00050493          	mv	s1,a0
   19384:	00058413          	mv	s0,a1
   19388:	00050663          	beqz	a0,19394 <__srefill_r+0x2c>
   1938c:	05052783          	lw	a5,80(a0)
   19390:	12078a63          	beqz	a5,194c4 <__srefill_r+0x15c>
   19394:	01041783          	lh	a5,16(s0)
   19398:	03079713          	slli	a4,a5,0x30
   1939c:	03075713          	srli	a4,a4,0x30
   193a0:	03271693          	slli	a3,a4,0x32
   193a4:	0206ca63          	bltz	a3,193d8 <__srefill_r+0x70>
   193a8:	0ac42683          	lw	a3,172(s0)
   193ac:	00002737          	lui	a4,0x2
   193b0:	00e7e7b3          	or	a5,a5,a4
   193b4:	ffffe737          	lui	a4,0xffffe
   193b8:	0107979b          	slliw	a5,a5,0x10
   193bc:	fff7071b          	addiw	a4,a4,-1
   193c0:	4107d79b          	sraiw	a5,a5,0x10
   193c4:	00e6f733          	and	a4,a3,a4
   193c8:	0ae42623          	sw	a4,172(s0)
   193cc:	03079713          	slli	a4,a5,0x30
   193d0:	00f41823          	sh	a5,16(s0)
   193d4:	03075713          	srli	a4,a4,0x30
   193d8:	00042423          	sw	zero,8(s0)
   193dc:	02077693          	andi	a3,a4,32
   193e0:	1a069c63          	bnez	a3,19598 <__srefill_r+0x230>
   193e4:	00477693          	andi	a3,a4,4
   193e8:	08068863          	beqz	a3,19478 <__srefill_r+0x110>
   193ec:	05843583          	ld	a1,88(s0)
   193f0:	02058263          	beqz	a1,19414 <__srefill_r+0xac>
   193f4:	07440793          	addi	a5,s0,116
   193f8:	00f58663          	beq	a1,a5,19404 <__srefill_r+0x9c>
   193fc:	00048513          	mv	a0,s1
   19400:	855fd0ef          	jal	16c54 <_free_r>
   19404:	07042783          	lw	a5,112(s0)
   19408:	04043c23          	sd	zero,88(s0)
   1940c:	00f42423          	sw	a5,8(s0)
   19410:	12079263          	bnez	a5,19534 <__srefill_r+0x1cc>
   19414:	01843783          	ld	a5,24(s0)
   19418:	18078463          	beqz	a5,195a0 <__srefill_r+0x238>
   1941c:	01041983          	lh	s3,16(s0)
   19420:	03099913          	slli	s2,s3,0x30
   19424:	03095913          	srli	s2,s2,0x30
   19428:	00397793          	andi	a5,s2,3
   1942c:	0a079063          	bnez	a5,194cc <__srefill_r+0x164>
   19430:	01843603          	ld	a2,24(s0)
   19434:	03843783          	ld	a5,56(s0)
   19438:	02042683          	lw	a3,32(s0)
   1943c:	03043583          	ld	a1,48(s0)
   19440:	00c43023          	sd	a2,0(s0)
   19444:	00048513          	mv	a0,s1
   19448:	000780e7          	jalr	a5
   1944c:	0005079b          	sext.w	a5,a0
   19450:	00f42423          	sw	a5,8(s0)
   19454:	00000513          	li	a0,0
   19458:	02f05e63          	blez	a5,19494 <__srefill_r+0x12c>
   1945c:	02813083          	ld	ra,40(sp)
   19460:	02013403          	ld	s0,32(sp)
   19464:	01813483          	ld	s1,24(sp)
   19468:	01013903          	ld	s2,16(sp)
   1946c:	00813983          	ld	s3,8(sp)
   19470:	03010113          	addi	sp,sp,48
   19474:	00008067          	ret
   19478:	01077693          	andi	a3,a4,16
   1947c:	10068663          	beqz	a3,19588 <__srefill_r+0x220>
   19480:	00877713          	andi	a4,a4,8
   19484:	0c071c63          	bnez	a4,1955c <__srefill_r+0x1f4>
   19488:	0047e793          	ori	a5,a5,4
   1948c:	00f41823          	sh	a5,16(s0)
   19490:	f85ff06f          	j	19414 <__srefill_r+0xac>
   19494:	06079863          	bnez	a5,19504 <__srefill_r+0x19c>
   19498:	01045783          	lhu	a5,16(s0)
   1949c:	02813083          	ld	ra,40(sp)
   194a0:	fff00513          	li	a0,-1
   194a4:	0207e793          	ori	a5,a5,32
   194a8:	00f41823          	sh	a5,16(s0)
   194ac:	01813483          	ld	s1,24(sp)
   194b0:	02013403          	ld	s0,32(sp)
   194b4:	01013903          	ld	s2,16(sp)
   194b8:	00813983          	ld	s3,8(sp)
   194bc:	03010113          	addi	sp,sp,48
   194c0:	00008067          	ret
   194c4:	bccfd0ef          	jal	16890 <__sinit>
   194c8:	ecdff06f          	j	19394 <__srefill_r+0x2c>
   194cc:	8081b503          	ld	a0,-2040(gp) # 243d8 <_global_impure_ptr>
   194d0:	000195b7          	lui	a1,0x19
   194d4:	00100793          	li	a5,1
   194d8:	00f41823          	sh	a5,16(s0)
   194dc:	34c58593          	addi	a1,a1,844 # 1934c <lflush>
   194e0:	f39fd0ef          	jal	17418 <_fwalk>
   194e4:	00997913          	andi	s2,s2,9
   194e8:	01341823          	sh	s3,16(s0)
   194ec:	00900793          	li	a5,9
   194f0:	f4f910e3          	bne	s2,a5,19430 <__srefill_r+0xc8>
   194f4:	00040593          	mv	a1,s0
   194f8:	00048513          	mv	a0,s1
   194fc:	d7dfc0ef          	jal	16278 <__sflush_r>
   19500:	f31ff06f          	j	19430 <__srefill_r+0xc8>
   19504:	01045783          	lhu	a5,16(s0)
   19508:	02813083          	ld	ra,40(sp)
   1950c:	00042423          	sw	zero,8(s0)
   19510:	0407e793          	ori	a5,a5,64
   19514:	fff00513          	li	a0,-1
   19518:	00f41823          	sh	a5,16(s0)
   1951c:	01813483          	ld	s1,24(sp)
   19520:	02013403          	ld	s0,32(sp)
   19524:	01013903          	ld	s2,16(sp)
   19528:	00813983          	ld	s3,8(sp)
   1952c:	03010113          	addi	sp,sp,48
   19530:	00008067          	ret
   19534:	06843783          	ld	a5,104(s0)
   19538:	02813083          	ld	ra,40(sp)
   1953c:	00000513          	li	a0,0
   19540:	00f43023          	sd	a5,0(s0)
   19544:	01813483          	ld	s1,24(sp)
   19548:	02013403          	ld	s0,32(sp)
   1954c:	01013903          	ld	s2,16(sp)
   19550:	00813983          	ld	s3,8(sp)
   19554:	03010113          	addi	sp,sp,48
   19558:	00008067          	ret
   1955c:	00040593          	mv	a1,s0
   19560:	00048513          	mv	a0,s1
   19564:	f81fc0ef          	jal	164e4 <_fflush_r>
   19568:	02051863          	bnez	a0,19598 <__srefill_r+0x230>
   1956c:	01045783          	lhu	a5,16(s0)
   19570:	00042623          	sw	zero,12(s0)
   19574:	02042423          	sw	zero,40(s0)
   19578:	ff77f793          	andi	a5,a5,-9
   1957c:	0107979b          	slliw	a5,a5,0x10
   19580:	4107d79b          	sraiw	a5,a5,0x10
   19584:	f05ff06f          	j	19488 <__srefill_r+0x120>
   19588:	00900713          	li	a4,9
   1958c:	00e4a023          	sw	a4,0(s1)
   19590:	0407e793          	ori	a5,a5,64
   19594:	00f41823          	sh	a5,16(s0)
   19598:	fff00513          	li	a0,-1
   1959c:	ec1ff06f          	j	1945c <__srefill_r+0xf4>
   195a0:	00040593          	mv	a1,s0
   195a4:	00048513          	mv	a0,s1
   195a8:	8d8fe0ef          	jal	17680 <__smakebuf_r>
   195ac:	e71ff06f          	j	1941c <__srefill_r+0xb4>

00000000000195b0 <__sccl>:
   195b0:	0005c603          	lbu	a2,0(a1)
   195b4:	05e00793          	li	a5,94
   195b8:	08f60e63          	beq	a2,a5,19654 <__sccl+0xa4>
   195bc:	00158593          	addi	a1,a1,1
   195c0:	00000713          	li	a4,0
   195c4:	00000813          	li	a6,0
   195c8:	00050793          	mv	a5,a0
   195cc:	10050693          	addi	a3,a0,256
   195d0:	00e78023          	sb	a4,0(a5)
   195d4:	00178793          	addi	a5,a5,1
   195d8:	fed79ce3          	bne	a5,a3,195d0 <__sccl+0x20>
   195dc:	00183713          	seqz	a4,a6
   195e0:	02d00313          	li	t1,45
   195e4:	05d00893          	li	a7,93
   195e8:	02060a63          	beqz	a2,1961c <__sccl+0x6c>
   195ec:	00c507b3          	add	a5,a0,a2
   195f0:	00e78023          	sb	a4,0(a5)
   195f4:	0005c783          	lbu	a5,0(a1)
   195f8:	00158813          	addi	a6,a1,1
   195fc:	02678863          	beq	a5,t1,1962c <__sccl+0x7c>
   19600:	03178263          	beq	a5,a7,19624 <__sccl+0x74>
   19604:	00078863          	beqz	a5,19614 <__sccl+0x64>
   19608:	00078613          	mv	a2,a5
   1960c:	00080593          	mv	a1,a6
   19610:	fddff06f          	j	195ec <__sccl+0x3c>
   19614:	00058513          	mv	a0,a1
   19618:	00008067          	ret
   1961c:	fff58513          	addi	a0,a1,-1
   19620:	00008067          	ret
   19624:	00080513          	mv	a0,a6
   19628:	00008067          	ret
   1962c:	0015c683          	lbu	a3,1(a1)
   19630:	fd168ce3          	beq	a3,a7,19608 <__sccl+0x58>
   19634:	fcc6cae3          	blt	a3,a2,19608 <__sccl+0x58>
   19638:	00258593          	addi	a1,a1,2
   1963c:	00c507b3          	add	a5,a0,a2
   19640:	00e780a3          	sb	a4,1(a5)
   19644:	0016061b          	addiw	a2,a2,1
   19648:	00178793          	addi	a5,a5,1
   1964c:	fed64ae3          	blt	a2,a3,19640 <__sccl+0x90>
   19650:	fa5ff06f          	j	195f4 <__sccl+0x44>
   19654:	00100713          	li	a4,1
   19658:	0015c603          	lbu	a2,1(a1)
   1965c:	00070813          	mv	a6,a4
   19660:	00258593          	addi	a1,a1,2
   19664:	f65ff06f          	j	195c8 <__sccl+0x18>

0000000000019668 <nanf>:
   19668:	000247b7          	lui	a5,0x24
   1966c:	4887a507          	flw	fa0,1160(a5) # 24488 <mask+0x60>
   19670:	00008067          	ret

0000000000019674 <__fpclassifyd>:
   19674:	e20507d3          	fmv.x.d	a5,fa0
   19678:	00200513          	li	a0,2
   1967c:	4207d713          	srai	a4,a5,0x20
   19680:	0007879b          	sext.w	a5,a5
   19684:	00f766b3          	or	a3,a4,a5
   19688:	00069463          	bnez	a3,19690 <__fpclassifyd+0x1c>
   1968c:	00008067          	ret
   19690:	800006b7          	lui	a3,0x80000
   19694:	04d70863          	beq	a4,a3,196e4 <__fpclassifyd+0x70>
   19698:	fff006b7          	lui	a3,0xfff00
   1969c:	00d706bb          	addw	a3,a4,a3
   196a0:	7fe00637          	lui	a2,0x7fe00
   196a4:	00400513          	li	a0,4
   196a8:	fec6e2e3          	bltu	a3,a2,1968c <__fpclassifyd+0x18>
   196ac:	7ff006b7          	lui	a3,0x7ff00
   196b0:	00d706bb          	addw	a3,a4,a3
   196b4:	fcc6ece3          	bltu	a3,a2,1968c <__fpclassifyd+0x18>
   196b8:	800006b7          	lui	a3,0x80000
   196bc:	fff6c693          	not	a3,a3
   196c0:	00d77733          	and	a4,a4,a3
   196c4:	001006b7          	lui	a3,0x100
   196c8:	00300513          	li	a0,3
   196cc:	fcd760e3          	bltu	a4,a3,1968c <__fpclassifyd+0x18>
   196d0:	7ff006b7          	lui	a3,0x7ff00
   196d4:	00000513          	li	a0,0
   196d8:	fad71ae3          	bne	a4,a3,1968c <__fpclassifyd+0x18>
   196dc:	0017b513          	seqz	a0,a5
   196e0:	00008067          	ret
   196e4:	fc079ae3          	bnez	a5,196b8 <__fpclassifyd+0x44>
   196e8:	00008067          	ret

00000000000196ec <_sprintf_r>:
   196ec:	f0010113          	addi	sp,sp,-256
   196f0:	0d810e13          	addi	t3,sp,216
   196f4:	0ef13423          	sd	a5,232(sp)
   196f8:	80000337          	lui	t1,0x80000
   196fc:	20800793          	li	a5,520
   19700:	00058e93          	mv	t4,a1
   19704:	fff34313          	not	t1,t1
   19708:	0cd13c23          	sd	a3,216(sp)
   1970c:	02f11023          	sh	a5,32(sp)
   19710:	01010593          	addi	a1,sp,16
   19714:	fff00793          	li	a5,-1
   19718:	000e0693          	mv	a3,t3
   1971c:	0c113423          	sd	ra,200(sp)
   19720:	02f11123          	sh	a5,34(sp)
   19724:	0ee13023          	sd	a4,224(sp)
   19728:	0f013823          	sd	a6,240(sp)
   1972c:	0f113c23          	sd	a7,248(sp)
   19730:	01d13823          	sd	t4,16(sp)
   19734:	03d13423          	sd	t4,40(sp)
   19738:	00612e23          	sw	t1,28(sp)
   1973c:	02612823          	sw	t1,48(sp)
   19740:	01c13423          	sd	t3,8(sp)
   19744:	0d5010ef          	jal	1b018 <_svfprintf_r>
   19748:	01013783          	ld	a5,16(sp)
   1974c:	00078023          	sb	zero,0(a5)
   19750:	0c813083          	ld	ra,200(sp)
   19754:	10010113          	addi	sp,sp,256
   19758:	00008067          	ret

000000000001975c <sprintf>:
   1975c:	00050e93          	mv	t4,a0
   19760:	f0010113          	addi	sp,sp,-256
   19764:	8101b503          	ld	a0,-2032(gp) # 243e0 <_impure_ptr>
   19768:	0d010e13          	addi	t3,sp,208
   1976c:	0ef13423          	sd	a5,232(sp)
   19770:	80000337          	lui	t1,0x80000
   19774:	20800793          	li	a5,520
   19778:	fff34313          	not	t1,t1
   1977c:	0cc13823          	sd	a2,208(sp)
   19780:	0cd13c23          	sd	a3,216(sp)
   19784:	02f11023          	sh	a5,32(sp)
   19788:	00058613          	mv	a2,a1
   1978c:	fff00793          	li	a5,-1
   19790:	01010593          	addi	a1,sp,16
   19794:	000e0693          	mv	a3,t3
   19798:	0c113423          	sd	ra,200(sp)
   1979c:	02f11123          	sh	a5,34(sp)
   197a0:	0ee13023          	sd	a4,224(sp)
   197a4:	0f013823          	sd	a6,240(sp)
   197a8:	0f113c23          	sd	a7,248(sp)
   197ac:	01d13823          	sd	t4,16(sp)
   197b0:	03d13423          	sd	t4,40(sp)
   197b4:	00612e23          	sw	t1,28(sp)
   197b8:	02612823          	sw	t1,48(sp)
   197bc:	01c13423          	sd	t3,8(sp)
   197c0:	059010ef          	jal	1b018 <_svfprintf_r>
   197c4:	01013783          	ld	a5,16(sp)
   197c8:	00078023          	sb	zero,0(a5)
   197cc:	0c813083          	ld	ra,200(sp)
   197d0:	10010113          	addi	sp,sp,256
   197d4:	00008067          	ret

00000000000197d8 <__sread>:
   197d8:	01259503          	lh	a0,18(a1)
   197dc:	ff010113          	addi	sp,sp,-16
   197e0:	00813023          	sd	s0,0(sp)
   197e4:	00058413          	mv	s0,a1
   197e8:	00060593          	mv	a1,a2
   197ec:	00068613          	mv	a2,a3
   197f0:	00113423          	sd	ra,8(sp)
   197f4:	359060ef          	jal	2034c <read>
   197f8:	02054063          	bltz	a0,19818 <__sread+0x40>
   197fc:	09043783          	ld	a5,144(s0)
   19800:	00813083          	ld	ra,8(sp)
   19804:	00a787b3          	add	a5,a5,a0
   19808:	08f43823          	sd	a5,144(s0)
   1980c:	00013403          	ld	s0,0(sp)
   19810:	01010113          	addi	sp,sp,16
   19814:	00008067          	ret
   19818:	01045703          	lhu	a4,16(s0)
   1981c:	fffff7b7          	lui	a5,0xfffff
   19820:	00813083          	ld	ra,8(sp)
   19824:	fff7879b          	addiw	a5,a5,-1
   19828:	00f777b3          	and	a5,a4,a5
   1982c:	00f41823          	sh	a5,16(s0)
   19830:	00013403          	ld	s0,0(sp)
   19834:	01010113          	addi	sp,sp,16
   19838:	00008067          	ret

000000000001983c <__seofread>:
   1983c:	00000513          	li	a0,0
   19840:	00008067          	ret

0000000000019844 <__swrite>:
   19844:	01059703          	lh	a4,16(a1)
   19848:	fd010113          	addi	sp,sp,-48
   1984c:	02813023          	sd	s0,32(sp)
   19850:	00913c23          	sd	s1,24(sp)
   19854:	02113423          	sd	ra,40(sp)
   19858:	10077793          	andi	a5,a4,256
   1985c:	00058413          	mv	s0,a1
   19860:	00060493          	mv	s1,a2
   19864:	02078063          	beqz	a5,19884 <__swrite+0x40>
   19868:	01259503          	lh	a0,18(a1)
   1986c:	00200613          	li	a2,2
   19870:	00000593          	li	a1,0
   19874:	00d13423          	sd	a3,8(sp)
   19878:	2c1060ef          	jal	20338 <lseek>
   1987c:	01041703          	lh	a4,16(s0)
   19880:	00813683          	ld	a3,8(sp)
   19884:	fffff7b7          	lui	a5,0xfffff
   19888:	fff7879b          	addiw	a5,a5,-1
   1988c:	00f777b3          	and	a5,a4,a5
   19890:	01241503          	lh	a0,18(s0)
   19894:	00f41823          	sh	a5,16(s0)
   19898:	00048593          	mv	a1,s1
   1989c:	02813083          	ld	ra,40(sp)
   198a0:	02013403          	ld	s0,32(sp)
   198a4:	01813483          	ld	s1,24(sp)
   198a8:	00068613          	mv	a2,a3
   198ac:	03010113          	addi	sp,sp,48
   198b0:	2b10606f          	j	20360 <write>

00000000000198b4 <__sseek>:
   198b4:	01259503          	lh	a0,18(a1)
   198b8:	ff010113          	addi	sp,sp,-16
   198bc:	00813023          	sd	s0,0(sp)
   198c0:	00058413          	mv	s0,a1
   198c4:	00060593          	mv	a1,a2
   198c8:	00068613          	mv	a2,a3
   198cc:	00113423          	sd	ra,8(sp)
   198d0:	269060ef          	jal	20338 <lseek>
   198d4:	fff00793          	li	a5,-1
   198d8:	01045703          	lhu	a4,16(s0)
   198dc:	02f50263          	beq	a0,a5,19900 <__sseek+0x4c>
   198e0:	00813083          	ld	ra,8(sp)
   198e4:	000017b7          	lui	a5,0x1
   198e8:	00f767b3          	or	a5,a4,a5
   198ec:	08a43823          	sd	a0,144(s0)
   198f0:	00f41823          	sh	a5,16(s0)
   198f4:	00013403          	ld	s0,0(sp)
   198f8:	01010113          	addi	sp,sp,16
   198fc:	00008067          	ret
   19900:	fffff7b7          	lui	a5,0xfffff
   19904:	00813083          	ld	ra,8(sp)
   19908:	fff7879b          	addiw	a5,a5,-1
   1990c:	00f777b3          	and	a5,a4,a5
   19910:	00f41823          	sh	a5,16(s0)
   19914:	00013403          	ld	s0,0(sp)
   19918:	01010113          	addi	sp,sp,16
   1991c:	00008067          	ret

0000000000019920 <__sclose>:
   19920:	01259503          	lh	a0,18(a1)
   19924:	2e90606f          	j	2040c <close>

0000000000019928 <_strtod_r>:
   19928:	f0010113          	addi	sp,sp,-256
   1992c:	0e813823          	sd	s0,240(sp)
   19930:	0f213023          	sd	s2,224(sp)
   19934:	0d313c23          	sd	s3,216(sp)
   19938:	0b713c23          	sd	s7,184(sp)
   1993c:	0b913423          	sd	s9,168(sp)
   19940:	0e113c23          	sd	ra,248(sp)
   19944:	0e913423          	sd	s1,232(sp)
   19948:	0d413823          	sd	s4,208(sp)
   1994c:	0d513423          	sd	s5,200(sp)
   19950:	0d613023          	sd	s6,192(sp)
   19954:	0b813823          	sd	s8,176(sp)
   19958:	0ba13023          	sd	s10,160(sp)
   1995c:	09b13c23          	sd	s11,152(sp)
   19960:	08813427          	fsd	fs0,136(sp)
   19964:	08913027          	fsd	fs1,128(sp)
   19968:	07213c27          	fsd	fs2,120(sp)
   1996c:	07313827          	fsd	fs3,112(sp)
   19970:	07413427          	fsd	fs4,104(sp)
   19974:	07513027          	fsd	fs5,96(sp)
   19978:	05613c27          	fsd	fs6,88(sp)
   1997c:	05713827          	fsd	fs7,80(sp)
   19980:	04013023          	sd	zero,64(sp)
   19984:	02b13c23          	sd	a1,56(sp)
   19988:	00058b93          	mv	s7,a1
   1998c:	000bc783          	lbu	a5,0(s7)
   19990:	00060993          	mv	s3,a2
   19994:	000216b7          	lui	a3,0x21
   19998:	02d00613          	li	a2,45
   1999c:	00058c93          	mv	s9,a1
   199a0:	00050413          	mv	s0,a0
   199a4:	00000913          	li	s2,0
   199a8:	f5868693          	addi	a3,a3,-168 # 20f58 <__mprec_bigtens+0x28>
   199ac:	28f66e63          	bltu	a2,a5,19c48 <_strtod_r+0x320>
   199b0:	00279713          	slli	a4,a5,0x2
   199b4:	00d70733          	add	a4,a4,a3
   199b8:	00072703          	lw	a4,0(a4) # ffffffffffffe000 <_end+0xfffffffffffd7258>
   199bc:	00070067          	jr	a4
   199c0:	00000a93          	li	s5,0
   199c4:	001b8713          	addi	a4,s7,1
   199c8:	02e13c23          	sd	a4,56(sp)
   199cc:	001bc783          	lbu	a5,1(s7)
   199d0:	1c078e63          	beqz	a5,19bac <_strtod_r+0x284>
   199d4:	00070b93          	mv	s7,a4
   199d8:	03000713          	li	a4,48
   199dc:	000b8a13          	mv	s4,s7
   199e0:	00000b13          	li	s6,0
   199e4:	26e78c63          	beq	a5,a4,19c5c <_strtod_r+0x334>
   199e8:	fd07871b          	addiw	a4,a5,-48
   199ec:	0ff77713          	andi	a4,a4,255
   199f0:	00900513          	li	a0,9
   199f4:	40e566e3          	bltu	a0,a4,1a600 <_strtod_r+0xcd8>
   199f8:	001a0593          	addi	a1,s4,1
   199fc:	00000d93          	li	s11,0
   19a00:	00000d13          	li	s10,0
   19a04:	00000c13          	li	s8,0
   19a08:	00800813          	li	a6,8
   19a0c:	29884663          	blt	a6,s8,19c98 <_strtod_r+0x370>
   19a10:	001d161b          	slliw	a2,s10,0x1
   19a14:	003d171b          	slliw	a4,s10,0x3
   19a18:	00e6073b          	addw	a4,a2,a4
   19a1c:	00f7073b          	addw	a4,a4,a5
   19a20:	fd070d1b          	addiw	s10,a4,-48
   19a24:	02b13c23          	sd	a1,56(sp)
   19a28:	0005c783          	lbu	a5,0(a1)
   19a2c:	00058913          	mv	s2,a1
   19a30:	001c0c1b          	addiw	s8,s8,1
   19a34:	fd07869b          	addiw	a3,a5,-48
   19a38:	0ff6f693          	andi	a3,a3,255
   19a3c:	00158593          	addi	a1,a1,1
   19a40:	fcd576e3          	bleu	a3,a0,19a0c <_strtod_r+0xe4>
   19a44:	00078493          	mv	s1,a5
   19a48:	00040513          	mv	a0,s0
   19a4c:	c0dfd0ef          	jal	17658 <_localeconv_r>
   19a50:	00053b83          	ld	s7,0(a0)
   19a54:	00040513          	mv	a0,s0
   19a58:	c01fd0ef          	jal	17658 <_localeconv_r>
   19a5c:	00053503          	ld	a0,0(a0)
   19a60:	fd1f70ef          	jal	11a30 <strlen>
   19a64:	00050613          	mv	a2,a0
   19a68:	000b8593          	mv	a1,s7
   19a6c:	00090513          	mv	a0,s2
   19a70:	5a0050ef          	jal	1f010 <strncmp>
   19a74:	32050e63          	beqz	a0,19db0 <_strtod_r+0x488>
   19a78:	000c0693          	mv	a3,s8
   19a7c:	00000613          	li	a2,0
   19a80:	00000593          	li	a1,0
   19a84:	00000513          	li	a0,0
   19a88:	fdf4f793          	andi	a5,s1,-33
   19a8c:	04500713          	li	a4,69
   19a90:	00000b93          	li	s7,0
   19a94:	10e79463          	bne	a5,a4,19b9c <_strtod_r+0x274>
   19a98:	00c6e7b3          	or	a5,a3,a2
   19a9c:	0167e7b3          	or	a5,a5,s6
   19aa0:	10078663          	beqz	a5,19bac <_strtod_r+0x284>
   19aa4:	03813c83          	ld	s9,56(sp)
   19aa8:	02b00713          	li	a4,43
   19aac:	001c8793          	addi	a5,s9,1
   19ab0:	02f13c23          	sd	a5,56(sp)
   19ab4:	001cc783          	lbu	a5,1(s9)
   19ab8:	22e780e3          	beq	a5,a4,1a4d8 <_strtod_r+0xbb0>
   19abc:	02d00713          	li	a4,45
   19ac0:	04e78ce3          	beq	a5,a4,1a318 <_strtod_r+0x9f0>
   19ac4:	00078493          	mv	s1,a5
   19ac8:	00000893          	li	a7,0
   19acc:	fd04879b          	addiw	a5,s1,-48
   19ad0:	00900813          	li	a6,9
   19ad4:	00048713          	mv	a4,s1
   19ad8:	12f860e3          	bltu	a6,a5,1a3f8 <_strtod_r+0xad0>
   19adc:	03000793          	li	a5,48
   19ae0:	02f49263          	bne	s1,a5,19b04 <_strtod_r+0x1dc>
   19ae4:	03813783          	ld	a5,56(sp)
   19ae8:	00048813          	mv	a6,s1
   19aec:	00178793          	addi	a5,a5,1 # fffffffffffff001 <_end+0xfffffffffffd8259>
   19af0:	02f13c23          	sd	a5,56(sp)
   19af4:	0007c703          	lbu	a4,0(a5)
   19af8:	00178793          	addi	a5,a5,1
   19afc:	00070493          	mv	s1,a4
   19b00:	ff0708e3          	beq	a4,a6,19af0 <_strtod_r+0x1c8>
   19b04:	fcf7071b          	addiw	a4,a4,-49
   19b08:	00800793          	li	a5,8
   19b0c:	00000b93          	li	s7,0
   19b10:	08e7e663          	bltu	a5,a4,19b9c <_strtod_r+0x274>
   19b14:	03813f03          	ld	t5,56(sp)
   19b18:	fd04879b          	addiw	a5,s1,-48
   19b1c:	00900e93          	li	t4,9
   19b20:	001f0e13          	addi	t3,t5,1 # 10001 <_ftext+0x1>
   19b24:	03c13c23          	sd	t3,56(sp)
   19b28:	001f4483          	lbu	s1,1(t5)
   19b2c:	fd04871b          	addiw	a4,s1,-48
   19b30:	0ff77713          	andi	a4,a4,255
   19b34:	02eeee63          	bltu	t4,a4,19b70 <_strtod_r+0x248>
   19b38:	002f0313          	addi	t1,t5,2
   19b3c:	02613c23          	sd	t1,56(sp)
   19b40:	00034803          	lbu	a6,0(t1) # ffffffff80000000 <_end+0xffffffff7ffd9258>
   19b44:	0017971b          	slliw	a4,a5,0x1
   19b48:	0037979b          	slliw	a5,a5,0x3
   19b4c:	00f707bb          	addw	a5,a4,a5
   19b50:	fd08071b          	addiw	a4,a6,-48
   19b54:	009787bb          	addw	a5,a5,s1
   19b58:	0ff77713          	andi	a4,a4,255
   19b5c:	00030e13          	mv	t3,t1
   19b60:	fd07879b          	addiw	a5,a5,-48
   19b64:	00080493          	mv	s1,a6
   19b68:	00130313          	addi	t1,t1,1
   19b6c:	fceef8e3          	bleu	a4,t4,19b3c <_strtod_r+0x214>
   19b70:	00005737          	lui	a4,0x5
   19b74:	41ee0e33          	sub	t3,t3,t5
   19b78:	00800813          	li	a6,8
   19b7c:	e1f70b9b          	addiw	s7,a4,-481
   19b80:	01c84a63          	blt	a6,t3,19b94 <_strtod_r+0x26c>
   19b84:	e1f7071b          	addiw	a4,a4,-481
   19b88:	00078b93          	mv	s7,a5
   19b8c:	00f75463          	ble	a5,a4,19b94 <_strtod_r+0x26c>
   19b90:	00070b93          	mv	s7,a4
   19b94:	00088463          	beqz	a7,19b9c <_strtod_r+0x274>
   19b98:	41700bbb          	negw	s7,s7
   19b9c:	10069a63          	bnez	a3,19cb0 <_strtod_r+0x388>
   19ba0:	01666b33          	or	s6,a2,s6
   19ba4:	200b1263          	bnez	s6,19da8 <_strtod_r+0x480>
   19ba8:	70050a63          	beqz	a0,1a2bc <_strtod_r+0x994>
   19bac:	00000493          	li	s1,0
   19bb0:	00000a93          	li	s5,0
   19bb4:	00098663          	beqz	s3,19bc0 <_strtod_r+0x298>
   19bb8:	0199b023          	sd	s9,0(s3)
   19bbc:	060a9263          	bnez	s5,19c20 <_strtod_r+0x2f8>
   19bc0:	0f813083          	ld	ra,248(sp)
   19bc4:	f2048553          	fmv.d.x	fa0,s1
   19bc8:	0f013403          	ld	s0,240(sp)
   19bcc:	0e813483          	ld	s1,232(sp)
   19bd0:	0e013903          	ld	s2,224(sp)
   19bd4:	0d813983          	ld	s3,216(sp)
   19bd8:	0d013a03          	ld	s4,208(sp)
   19bdc:	0c813a83          	ld	s5,200(sp)
   19be0:	0c013b03          	ld	s6,192(sp)
   19be4:	0b813b83          	ld	s7,184(sp)
   19be8:	0b013c03          	ld	s8,176(sp)
   19bec:	0a813c83          	ld	s9,168(sp)
   19bf0:	0a013d03          	ld	s10,160(sp)
   19bf4:	09813d83          	ld	s11,152(sp)
   19bf8:	08813407          	fld	fs0,136(sp)
   19bfc:	08013487          	fld	fs1,128(sp)
   19c00:	07813907          	fld	fs2,120(sp)
   19c04:	07013987          	fld	fs3,112(sp)
   19c08:	06813a07          	fld	fs4,104(sp)
   19c0c:	06013a87          	fld	fs5,96(sp)
   19c10:	05813b07          	fld	fs6,88(sp)
   19c14:	05013b87          	fld	fs7,80(sp)
   19c18:	10010113          	addi	sp,sp,256
   19c1c:	00008067          	ret
   19c20:	f20487d3          	fmv.d.x	fa5,s1
   19c24:	22f797d3          	fneg.d	fa5,fa5
   19c28:	e20784d3          	fmv.x.d	s1,fa5
   19c2c:	f95ff06f          	j	19bc0 <_strtod_r+0x298>
   19c30:	00100a93          	li	s5,1
   19c34:	d91ff06f          	j	199c4 <_strtod_r+0x9c>
   19c38:	001b8b93          	addi	s7,s7,1
   19c3c:	03713c23          	sd	s7,56(sp)
   19c40:	000bc783          	lbu	a5,0(s7)
   19c44:	d6f676e3          	bleu	a5,a2,199b0 <_strtod_r+0x88>
   19c48:	03000713          	li	a4,48
   19c4c:	00000a93          	li	s5,0
   19c50:	000b8a13          	mv	s4,s7
   19c54:	00000b13          	li	s6,0
   19c58:	d8e798e3          	bne	a5,a4,199e8 <_strtod_r+0xc0>
   19c5c:	001bc703          	lbu	a4,1(s7)
   19c60:	05800693          	li	a3,88
   19c64:	7ad70063          	beq	a4,a3,1a404 <_strtod_r+0xadc>
   19c68:	07800693          	li	a3,120
   19c6c:	78d70c63          	beq	a4,a3,1a404 <_strtod_r+0xadc>
   19c70:	001b8713          	addi	a4,s7,1
   19c74:	00070a13          	mv	s4,a4
   19c78:	02e13c23          	sd	a4,56(sp)
   19c7c:	00170713          	addi	a4,a4,1 # 5001 <_ftext-0xafff>
   19c80:	fff74483          	lbu	s1,-1(a4)
   19c84:	fef488e3          	beq	s1,a5,19c74 <_strtod_r+0x34c>
   19c88:	12048063          	beqz	s1,19da8 <_strtod_r+0x480>
   19c8c:	00048793          	mv	a5,s1
   19c90:	00100b13          	li	s6,1
   19c94:	d55ff06f          	j	199e8 <_strtod_r+0xc0>
   19c98:	001d961b          	slliw	a2,s11,0x1
   19c9c:	003d969b          	slliw	a3,s11,0x3
   19ca0:	00d606bb          	addw	a3,a2,a3
   19ca4:	00f687bb          	addw	a5,a3,a5
   19ca8:	fd078d9b          	addiw	s11,a5,-48
   19cac:	d79ff06f          	j	19a24 <_strtod_r+0xfc>
   19cb0:	40bb8bbb          	subw	s7,s7,a1
   19cb4:	000c1463          	bnez	s8,19cbc <_strtod_r+0x394>
   19cb8:	00068c13          	mv	s8,a3
   19cbc:	01000793          	li	a5,16
   19cc0:	00068713          	mv	a4,a3
   19cc4:	00d7d463          	ble	a3,a5,19ccc <_strtod_r+0x3a4>
   19cc8:	00078713          	mv	a4,a5
   19ccc:	d21d07d3          	fcvt.d.wu	fa5,s10
   19cd0:	00900793          	li	a5,9
   19cd4:	e20785d3          	fmv.x.d	a1,fa5
   19cd8:	00058913          	mv	s2,a1
   19cdc:	02e7d663          	ble	a4,a5,19d08 <_strtod_r+0x3e0>
   19ce0:	ff77079b          	addiw	a5,a4,-9
   19ce4:	00021637          	lui	a2,0x21
   19ce8:	00379793          	slli	a5,a5,0x3
   19cec:	e4060613          	addi	a2,a2,-448 # 20e40 <__mprec_tens>
   19cf0:	00c78633          	add	a2,a5,a2
   19cf4:	d21d87d3          	fcvt.d.wu	fa5,s11
   19cf8:	00063707          	fld	fa4,0(a2)
   19cfc:	f20586d3          	fmv.d.x	fa3,a1
   19d00:	7ae6f7c3          	fmadd.d	fa5,fa3,fa4,fa5
   19d04:	e2078953          	fmv.x.d	s2,fa5
   19d08:	00f00793          	li	a5,15
   19d0c:	10d7c663          	blt	a5,a3,19e18 <_strtod_r+0x4f0>
   19d10:	080b8863          	beqz	s7,19da0 <_strtod_r+0x478>
   19d14:	357054e3          	blez	s7,1a85c <_strtod_r+0xf34>
   19d18:	01600613          	li	a2,22
   19d1c:	29764ce3          	blt	a2,s7,1a7b4 <_strtod_r+0xe8c>
   19d20:	00021737          	lui	a4,0x21
   19d24:	003b9793          	slli	a5,s7,0x3
   19d28:	e4070713          	addi	a4,a4,-448 # 20e40 <__mprec_tens>
   19d2c:	00e787b3          	add	a5,a5,a4
   19d30:	0007b787          	fld	fa5,0(a5)
   19d34:	f2090753          	fmv.d.x	fa4,s2
   19d38:	12e7f7d3          	fmul.d	fa5,fa5,fa4
   19d3c:	e20784d3          	fmv.x.d	s1,fa5
   19d40:	e6098ee3          	beqz	s3,19bbc <_strtod_r+0x294>
   19d44:	03813c83          	ld	s9,56(sp)
   19d48:	0199b023          	sd	s9,0(s3)
   19d4c:	e71ff06f          	j	19bbc <_strtod_r+0x294>
   19d50:	00022737          	lui	a4,0x22
   19d54:	02d13c23          	sd	a3,56(sp)
   19d58:	00068613          	mv	a2,a3
   19d5c:	d1870713          	addi	a4,a4,-744 # 21d18 <zeroes.4123+0x708>
   19d60:	01900893          	li	a7,25
   19d64:	00170713          	addi	a4,a4,1
   19d68:	fff74503          	lbu	a0,-1(a4)
   19d6c:	00160613          	addi	a2,a2,1
   19d70:	480500e3          	beqz	a0,1a9f0 <_strtod_r+0x10c8>
   19d74:	00064583          	lbu	a1,0(a2)
   19d78:	fbf5879b          	addiw	a5,a1,-65
   19d7c:	0ff7f793          	andi	a5,a5,255
   19d80:	00058813          	mv	a6,a1
   19d84:	00f8e463          	bltu	a7,a5,19d8c <_strtod_r+0x464>
   19d88:	0205881b          	addiw	a6,a1,32
   19d8c:	fca80ce3          	beq	a6,a0,19d64 <_strtod_r+0x43c>
   19d90:	00168693          	addi	a3,a3,1
   19d94:	02d13c23          	sd	a3,56(sp)
   19d98:	7ff00913          	li	s2,2047
   19d9c:	03491913          	slli	s2,s2,0x34
   19da0:	00090493          	mv	s1,s2
   19da4:	f9dff06f          	j	19d40 <_strtod_r+0x418>
   19da8:	00000493          	li	s1,0
   19dac:	f95ff06f          	j	19d40 <_strtod_r+0x418>
   19db0:	00040513          	mv	a0,s0
   19db4:	8a5fd0ef          	jal	17658 <_localeconv_r>
   19db8:	00053503          	ld	a0,0(a0)
   19dbc:	c75f70ef          	jal	11a30 <strlen>
   19dc0:	03813783          	ld	a5,56(sp)
   19dc4:	00a78533          	add	a0,a5,a0
   19dc8:	02a13c23          	sd	a0,56(sp)
   19dcc:	00054483          	lbu	s1,0(a0)
   19dd0:	4a0c1863          	bnez	s8,1a280 <_strtod_r+0x958>
   19dd4:	03000793          	li	a5,48
   19dd8:	2ef494e3          	bne	s1,a5,1a8c0 <_strtod_r+0xf98>
   19ddc:	00150793          	addi	a5,a0,1
   19de0:	00000613          	li	a2,0
   19de4:	00048713          	mv	a4,s1
   19de8:	02f13c23          	sd	a5,56(sp)
   19dec:	0007c483          	lbu	s1,0(a5)
   19df0:	0016061b          	addiw	a2,a2,1
   19df4:	00178793          	addi	a5,a5,1
   19df8:	fee488e3          	beq	s1,a4,19de8 <_strtod_r+0x4c0>
   19dfc:	fcf4879b          	addiw	a5,s1,-49
   19e00:	00800713          	li	a4,8
   19e04:	16f778e3          	bleu	a5,a4,1a774 <_strtod_r+0xe4c>
   19e08:	00000693          	li	a3,0
   19e0c:	00000593          	li	a1,0
   19e10:	00100513          	li	a0,1
   19e14:	c75ff06f          	j	19a88 <_strtod_r+0x160>
   19e18:	40e6873b          	subw	a4,a3,a4
   19e1c:	0177073b          	addw	a4,a4,s7
   19e20:	70e05a63          	blez	a4,1a534 <_strtod_r+0xc0c>
   19e24:	00f77793          	andi	a5,a4,15
   19e28:	02078263          	beqz	a5,19e4c <_strtod_r+0x524>
   19e2c:	00021637          	lui	a2,0x21
   19e30:	00379793          	slli	a5,a5,0x3
   19e34:	e4060613          	addi	a2,a2,-448 # 20e40 <__mprec_tens>
   19e38:	00c787b3          	add	a5,a5,a2
   19e3c:	f2090753          	fmv.d.x	fa4,s2
   19e40:	0007b787          	fld	fa5,0(a5)
   19e44:	12e7f7d3          	fmul.d	fa5,fa5,fa4
   19e48:	e2078953          	fmv.x.d	s2,fa5
   19e4c:	ff077793          	andi	a5,a4,-16
   19e50:	0c078863          	beqz	a5,19f20 <_strtod_r+0x5f8>
   19e54:	13400713          	li	a4,308
   19e58:	4cf74a63          	blt	a4,a5,1a32c <_strtod_r+0xa04>
   19e5c:	4047d79b          	sraiw	a5,a5,0x4
   19e60:	00100513          	li	a0,1
   19e64:	3af55ce3          	ble	a5,a0,1aa1c <_strtod_r+0x10f4>
   19e68:	00021737          	lui	a4,0x21
   19e6c:	f3070313          	addi	t1,a4,-208 # 20f30 <__mprec_bigtens>
   19e70:	00090813          	mv	a6,s2
   19e74:	f3070713          	addi	a4,a4,-208
   19e78:	00000893          	li	a7,0
   19e7c:	00000613          	li	a2,0
   19e80:	0017f593          	andi	a1,a5,1
   19e84:	00058c63          	beqz	a1,19e9c <_strtod_r+0x574>
   19e88:	f2080753          	fmv.d.x	fa4,a6
   19e8c:	00073787          	fld	fa5,0(a4)
   19e90:	00100893          	li	a7,1
   19e94:	12f777d3          	fmul.d	fa5,fa4,fa5
   19e98:	e2078853          	fmv.x.d	a6,fa5
   19e9c:	4017d79b          	sraiw	a5,a5,0x1
   19ea0:	0016061b          	addiw	a2,a2,1
   19ea4:	00870713          	addi	a4,a4,8
   19ea8:	fca79ce3          	bne	a5,a0,19e80 <_strtod_r+0x558>
   19eac:	500890e3          	bnez	a7,1abac <_strtod_r+0x1284>
   19eb0:	00361793          	slli	a5,a2,0x3
   19eb4:	42095713          	srai	a4,s2,0x20
   19eb8:	00f30633          	add	a2,t1,a5
   19ebc:	fcb007b7          	lui	a5,0xfcb00
   19ec0:	00f707bb          	addw	a5,a4,a5
   19ec4:	fff00713          	li	a4,-1
   19ec8:	02075713          	srli	a4,a4,0x20
   19ecc:	02079793          	slli	a5,a5,0x20
   19ed0:	00e97933          	and	s2,s2,a4
   19ed4:	00f96933          	or	s2,s2,a5
   19ed8:	00063787          	fld	fa5,0(a2)
   19edc:	f2090753          	fmv.d.x	fa4,s2
   19ee0:	7ff007b7          	lui	a5,0x7ff00
   19ee4:	7ca005b7          	lui	a1,0x7ca00
   19ee8:	12e7f7d3          	fmul.d	fa5,fa5,fa4
   19eec:	e2078953          	fmv.x.d	s2,fa5
   19ef0:	42095613          	srai	a2,s2,0x20
   19ef4:	00f677b3          	and	a5,a2,a5
   19ef8:	42f5ea63          	bltu	a1,a5,1a32c <_strtod_r+0xa04>
   19efc:	7c9005b7          	lui	a1,0x7c900
   19f00:	2cf5f4e3          	bleu	a5,a1,1a9c8 <_strtod_r+0x10a0>
   19f04:	7ff007b7          	lui	a5,0x7ff00
   19f08:	02091913          	slli	s2,s2,0x20
   19f0c:	fff78793          	addi	a5,a5,-1 # 7fefffff <_end+0x7fed9257>
   19f10:	02095913          	srli	s2,s2,0x20
   19f14:	02079793          	slli	a5,a5,0x20
   19f18:	00f96933          	or	s2,s2,a5
   19f1c:	00e96933          	or	s2,s2,a4
   19f20:	00000c93          	li	s9,0
   19f24:	000d0713          	mv	a4,s10
   19f28:	000c0613          	mv	a2,s8
   19f2c:	000a0593          	mv	a1,s4
   19f30:	00040513          	mv	a0,s0
   19f34:	818fe0ef          	jal	17f4c <__s2b>
   19f38:	00050d13          	mv	s10,a0
   19f3c:	3e050863          	beqz	a0,1a32c <_strtod_r+0xa04>
   19f40:	417007bb          	negw	a5,s7
   19f44:	41fbdd9b          	sraiw	s11,s7,0x1f
   19f48:	00fdf7b3          	and	a5,s11,a5
   19f4c:	01712423          	sw	s7,8(sp)
   19f50:	00f12623          	sw	a5,12(sp)
   19f54:	100bc0e3          	bltz	s7,1a854 <_strtod_r+0xf2c>
   19f58:	000247b7          	lui	a5,0x24
   19f5c:	4707b907          	fld	fs2,1136(a5) # 24470 <mask+0x48>
   19f60:	000247b7          	lui	a5,0x24
   19f64:	4987b487          	fld	fs1,1176(a5) # 24498 <mask+0x70>
   19f68:	000247b7          	lui	a5,0x24
   19f6c:	4507b987          	fld	fs3,1104(a5) # 24450 <mask+0x28>
   19f70:	000247b7          	lui	a5,0x24
   19f74:	4907bb07          	fld	fs6,1168(a5) # 24490 <mask+0x68>
   19f78:	000247b7          	lui	a5,0x24
   19f7c:	23290ad3          	fmv.d	fs5,fs2
   19f80:	4a87ba07          	fld	fs4,1192(a5) # 244a8 <mask+0x80>
   19f84:	00000c13          	li	s8,0
   19f88:	00000a13          	li	s4,0
   19f8c:	008d2583          	lw	a1,8(s10)
   19f90:	00040513          	mv	a0,s0
   19f94:	dd9fd0ef          	jal	17d6c <_Balloc>
   19f98:	00050b13          	mv	s6,a0
   19f9c:	3a050263          	beqz	a0,1a340 <_strtod_r+0xa18>
   19fa0:	014d2603          	lw	a2,20(s10)
   19fa4:	010d0593          	addi	a1,s10,16
   19fa8:	01050513          	addi	a0,a0,16
   19fac:	00260613          	addi	a2,a2,2
   19fb0:	00261613          	slli	a2,a2,0x2
   19fb4:	cc8f70ef          	jal	1147c <memcpy>
   19fb8:	f20905d3          	fmv.d.x	fa1,s2
   19fbc:	04810693          	addi	a3,sp,72
   19fc0:	03410613          	addi	a2,sp,52
   19fc4:	00040513          	mv	a0,s0
   19fc8:	addfe0ef          	jal	18aa4 <__d2b>
   19fcc:	04a13023          	sd	a0,64(sp)
   19fd0:	00090493          	mv	s1,s2
   19fd4:	36050863          	beqz	a0,1a344 <_strtod_r+0xa1c>
   19fd8:	00100593          	li	a1,1
   19fdc:	00040513          	mv	a0,s0
   19fe0:	9c4fe0ef          	jal	181a4 <__i2b>
   19fe4:	00050a13          	mv	s4,a0
   19fe8:	34050c63          	beqz	a0,1a340 <_strtod_r+0xa18>
   19fec:	03412703          	lw	a4,52(sp)
   19ff0:	3a074e63          	bltz	a4,1a3ac <_strtod_r+0xa84>
   19ff4:	00c12783          	lw	a5,12(sp)
   19ff8:	00812583          	lw	a1,8(sp)
   19ffc:	00e78dbb          	addw	s11,a5,a4
   1a000:	04812503          	lw	a0,72(sp)
   1a004:	4197073b          	subw	a4,a4,s9
   1a008:	00100693          	li	a3,1
   1a00c:	00a7073b          	addw	a4,a4,a0
   1a010:	03600793          	li	a5,54
   1a014:	fff7071b          	addiw	a4,a4,-1
   1a018:	c0200613          	li	a2,-1022
   1a01c:	00012c23          	sw	zero,24(sp)
   1a020:	00d12823          	sw	a3,16(sp)
   1a024:	40a787bb          	subw	a5,a5,a0
   1a028:	00c75e63          	ble	a2,a4,1a044 <_strtod_r+0x71c>
   1a02c:	40e6063b          	subw	a2,a2,a4
   1a030:	01f00513          	li	a0,31
   1a034:	40c787bb          	subw	a5,a5,a2
   1a038:	38c54263          	blt	a0,a2,1a3bc <_strtod_r+0xa94>
   1a03c:	00c6973b          	sllw	a4,a3,a2
   1a040:	00e12823          	sw	a4,16(sp)
   1a044:	00f5873b          	addw	a4,a1,a5
   1a048:	00fd87bb          	addw	a5,s11,a5
   1a04c:	00ec8bbb          	addw	s7,s9,a4
   1a050:	000d8593          	mv	a1,s11
   1a054:	01b7d463          	ble	s11,a5,1a05c <_strtod_r+0x734>
   1a058:	00078593          	mv	a1,a5
   1a05c:	000b8613          	mv	a2,s7
   1a060:	0175d463          	ble	s7,a1,1a068 <_strtod_r+0x740>
   1a064:	00058613          	mv	a2,a1
   1a068:	00c05863          	blez	a2,1a078 <_strtod_r+0x750>
   1a06c:	40c787bb          	subw	a5,a5,a2
   1a070:	40cb8bbb          	subw	s7,s7,a2
   1a074:	40cd8dbb          	subw	s11,s11,a2
   1a078:	00c12703          	lw	a4,12(sp)
   1a07c:	06070063          	beqz	a4,1a0dc <_strtod_r+0x7b4>
   1a080:	000a0593          	mv	a1,s4
   1a084:	00070613          	mv	a2,a4
   1a088:	00040513          	mv	a0,s0
   1a08c:	02f13023          	sd	a5,32(sp)
   1a090:	b3cfe0ef          	jal	183cc <__pow5mult>
   1a094:	00050a13          	mv	s4,a0
   1a098:	02013783          	ld	a5,32(sp)
   1a09c:	2a050263          	beqz	a0,1a340 <_strtod_r+0xa18>
   1a0a0:	04013603          	ld	a2,64(sp)
   1a0a4:	00050593          	mv	a1,a0
   1a0a8:	00040513          	mv	a0,s0
   1a0ac:	02f13023          	sd	a5,32(sp)
   1a0b0:	928fe0ef          	jal	181d8 <__multiply>
   1a0b4:	02013783          	ld	a5,32(sp)
   1a0b8:	28050463          	beqz	a0,1a340 <_strtod_r+0xa18>
   1a0bc:	04013583          	ld	a1,64(sp)
   1a0c0:	02a13423          	sd	a0,40(sp)
   1a0c4:	00040513          	mv	a0,s0
   1a0c8:	02f13023          	sd	a5,32(sp)
   1a0cc:	d4dfd0ef          	jal	17e18 <_Bfree>
   1a0d0:	02813603          	ld	a2,40(sp)
   1a0d4:	02013783          	ld	a5,32(sp)
   1a0d8:	04c13023          	sd	a2,64(sp)
   1a0dc:	00f05e63          	blez	a5,1a0f8 <_strtod_r+0x7d0>
   1a0e0:	04013583          	ld	a1,64(sp)
   1a0e4:	00078613          	mv	a2,a5
   1a0e8:	00040513          	mv	a0,s0
   1a0ec:	c18fe0ef          	jal	18504 <__lshift>
   1a0f0:	04a13023          	sd	a0,64(sp)
   1a0f4:	24050863          	beqz	a0,1a344 <_strtod_r+0xa1c>
   1a0f8:	00812783          	lw	a5,8(sp)
   1a0fc:	00078e63          	beqz	a5,1a118 <_strtod_r+0x7f0>
   1a100:	00812603          	lw	a2,8(sp)
   1a104:	000b0593          	mv	a1,s6
   1a108:	00040513          	mv	a0,s0
   1a10c:	ac0fe0ef          	jal	183cc <__pow5mult>
   1a110:	00050b13          	mv	s6,a0
   1a114:	22050663          	beqz	a0,1a340 <_strtod_r+0xa18>
   1a118:	01705e63          	blez	s7,1a134 <_strtod_r+0x80c>
   1a11c:	000b0593          	mv	a1,s6
   1a120:	000b8613          	mv	a2,s7
   1a124:	00040513          	mv	a0,s0
   1a128:	bdcfe0ef          	jal	18504 <__lshift>
   1a12c:	00050b13          	mv	s6,a0
   1a130:	20050863          	beqz	a0,1a340 <_strtod_r+0xa18>
   1a134:	01b05e63          	blez	s11,1a150 <_strtod_r+0x828>
   1a138:	000a0593          	mv	a1,s4
   1a13c:	000d8613          	mv	a2,s11
   1a140:	00040513          	mv	a0,s0
   1a144:	bc0fe0ef          	jal	18504 <__lshift>
   1a148:	00050a13          	mv	s4,a0
   1a14c:	1e050a63          	beqz	a0,1a340 <_strtod_r+0xa18>
   1a150:	04013583          	ld	a1,64(sp)
   1a154:	000b0613          	mv	a2,s6
   1a158:	00040513          	mv	a0,s0
   1a15c:	d68fe0ef          	jal	186c4 <__mdiff>
   1a160:	00050c13          	mv	s8,a0
   1a164:	1c050e63          	beqz	a0,1a340 <_strtod_r+0xa18>
   1a168:	01052783          	lw	a5,16(a0)
   1a16c:	000a0593          	mv	a1,s4
   1a170:	00052823          	sw	zero,16(a0)
   1a174:	00078b93          	mv	s7,a5
   1a178:	cecfe0ef          	jal	18664 <__mcmp>
   1a17c:	7c054063          	bltz	a0,1a93c <_strtod_r+0x1014>
   1a180:	74050463          	beqz	a0,1a8c8 <_strtod_r+0xfa0>
   1a184:	000a0593          	mv	a1,s4
   1a188:	000c0513          	mv	a0,s8
   1a18c:	a55fe0ef          	jal	18be0 <__ratio>
   1a190:	a29507d3          	fle.d	a5,fa0,fs1
   1a194:	20078063          	beqz	a5,1a394 <_strtod_r+0xa6c>
   1a198:	220b8e63          	beqz	s7,1a3d4 <_strtod_r+0xaac>
   1a19c:	00024737          	lui	a4,0x24
   1a1a0:	45073407          	fld	fs0,1104(a4) # 24450 <mask+0x28>
   1a1a4:	3ff00793          	li	a5,1023
   1a1a8:	03479793          	slli	a5,a5,0x34
   1a1ac:	42095713          	srai	a4,s2,0x20
   1a1b0:	7ff006b7          	lui	a3,0x7ff00
   1a1b4:	00d77633          	and	a2,a4,a3
   1a1b8:	7fe005b7          	lui	a1,0x7fe00
   1a1bc:	28b60863          	beq	a2,a1,1a44c <_strtod_r+0xb24>
   1a1c0:	040c8c63          	beqz	s9,1a218 <_strtod_r+0x8f0>
   1a1c4:	06a00737          	lui	a4,0x6a00
   1a1c8:	04c76863          	bltu	a4,a2,1a218 <_strtod_r+0x8f0>
   1a1cc:	00024737          	lui	a4,0x24
   1a1d0:	4a073787          	fld	fa5,1184(a4) # 244a0 <mask+0x78>
   1a1d4:	a2f40753          	fle.d	a4,fs0,fa5
   1a1d8:	02070063          	beqz	a4,1a1f8 <_strtod_r+0x8d0>
   1a1dc:	c21417d3          	fcvt.wu.d	a5,fs0,rtz
   1a1e0:	62078063          	beqz	a5,1a800 <_strtod_r+0xed8>
   1a1e4:	d2178453          	fcvt.d.wu	fs0,a5
   1a1e8:	e20407d3          	fmv.x.d	a5,fs0
   1a1ec:	000b9663          	bnez	s7,1a1f8 <_strtod_r+0x8d0>
   1a1f0:	228417d3          	fneg.d	fa5,fs0
   1a1f4:	e20787d3          	fmv.x.d	a5,fa5
   1a1f8:	4207d713          	srai	a4,a5,0x20
   1a1fc:	06b006b7          	lui	a3,0x6b00
   1a200:	00d7073b          	addw	a4,a4,a3
   1a204:	40c7073b          	subw	a4,a4,a2
   1a208:	02079793          	slli	a5,a5,0x20
   1a20c:	02071713          	slli	a4,a4,0x20
   1a210:	0207d793          	srli	a5,a5,0x20
   1a214:	00e7e7b3          	or	a5,a5,a4
   1a218:	f2048553          	fmv.d.x	fa0,s1
   1a21c:	00c13823          	sd	a2,16(sp)
   1a220:	f2078bd3          	fmv.d.x	fs7,a5
   1a224:	eb0fe0ef          	jal	188d4 <__ulp>
   1a228:	f20487d3          	fmv.d.x	fa5,s1
   1a22c:	01013603          	ld	a2,16(sp)
   1a230:	7aabf7c3          	fmadd.d	fa5,fs7,fa0,fa5
   1a234:	e2078953          	fmv.x.d	s2,fa5
   1a238:	42095713          	srai	a4,s2,0x20
   1a23c:	000c9863          	bnez	s9,1a24c <_strtod_r+0x924>
   1a240:	7ff007b7          	lui	a5,0x7ff00
   1a244:	00f777b3          	and	a5,a4,a5
   1a248:	28f60c63          	beq	a2,a5,1a4e0 <_strtod_r+0xbb8>
   1a24c:	04013583          	ld	a1,64(sp)
   1a250:	00040513          	mv	a0,s0
   1a254:	bc5fd0ef          	jal	17e18 <_Bfree>
   1a258:	000b0593          	mv	a1,s6
   1a25c:	00040513          	mv	a0,s0
   1a260:	bb9fd0ef          	jal	17e18 <_Bfree>
   1a264:	000a0593          	mv	a1,s4
   1a268:	00040513          	mv	a0,s0
   1a26c:	badfd0ef          	jal	17e18 <_Bfree>
   1a270:	000c0593          	mv	a1,s8
   1a274:	00040513          	mv	a0,s0
   1a278:	ba1fd0ef          	jal	17e18 <_Bfree>
   1a27c:	d11ff06f          	j	19f8c <_strtod_r+0x664>
   1a280:	000c0693          	mv	a3,s8
   1a284:	00000613          	li	a2,0
   1a288:	00000593          	li	a1,0
   1a28c:	fd04851b          	addiw	a0,s1,-48
   1a290:	00900793          	li	a5,9
   1a294:	b6a7eee3          	bltu	a5,a0,19e10 <_strtod_r+0x4e8>
   1a298:	0016071b          	addiw	a4,a2,1
   1a29c:	00050493          	mv	s1,a0
   1a2a0:	46051863          	bnez	a0,1a710 <_strtod_r+0xde8>
   1a2a4:	03813803          	ld	a6,56(sp)
   1a2a8:	00070613          	mv	a2,a4
   1a2ac:	00180793          	addi	a5,a6,1
   1a2b0:	02f13c23          	sd	a5,56(sp)
   1a2b4:	00184483          	lbu	s1,1(a6)
   1a2b8:	fd5ff06f          	j	1a28c <_strtod_r+0x964>
   1a2bc:	04e00793          	li	a5,78
   1a2c0:	00f48c63          	beq	s1,a5,1a2d8 <_strtod_r+0x9b0>
   1a2c4:	5497d463          	ble	s1,a5,1a80c <_strtod_r+0xee4>
   1a2c8:	06900793          	li	a5,105
   1a2cc:	54f48463          	beq	s1,a5,1a814 <_strtod_r+0xeec>
   1a2d0:	06e00793          	li	a5,110
   1a2d4:	8cf49ce3          	bne	s1,a5,19bac <_strtod_r+0x284>
   1a2d8:	03813603          	ld	a2,56(sp)
   1a2dc:	00022737          	lui	a4,0x22
   1a2e0:	d2070713          	addi	a4,a4,-736 # 21d20 <zeroes.4123+0x710>
   1a2e4:	01900813          	li	a6,25
   1a2e8:	00170713          	addi	a4,a4,1
   1a2ec:	fff74583          	lbu	a1,-1(a4)
   1a2f0:	5a058663          	beqz	a1,1a89c <_strtod_r+0xf74>
   1a2f4:	00160613          	addi	a2,a2,1
   1a2f8:	00064683          	lbu	a3,0(a2)
   1a2fc:	fbf6879b          	addiw	a5,a3,-65
   1a300:	0ff7f793          	andi	a5,a5,255
   1a304:	00068513          	mv	a0,a3
   1a308:	00f86463          	bltu	a6,a5,1a310 <_strtod_r+0x9e8>
   1a30c:	0206851b          	addiw	a0,a3,32
   1a310:	fcb50ce3          	beq	a0,a1,1a2e8 <_strtod_r+0x9c0>
   1a314:	899ff06f          	j	19bac <_strtod_r+0x284>
   1a318:	00100893          	li	a7,1
   1a31c:	002c8793          	addi	a5,s9,2
   1a320:	02f13c23          	sd	a5,56(sp)
   1a324:	002cc483          	lbu	s1,2(s9)
   1a328:	fa4ff06f          	j	19acc <_strtod_r+0x1a4>
   1a32c:	02200793          	li	a5,34
   1a330:	7ff00493          	li	s1,2047
   1a334:	00f42023          	sw	a5,0(s0)
   1a338:	03449493          	slli	s1,s1,0x34
   1a33c:	a05ff06f          	j	19d40 <_strtod_r+0x418>
   1a340:	04013503          	ld	a0,64(sp)
   1a344:	02200793          	li	a5,34
   1a348:	7ff00493          	li	s1,2047
   1a34c:	00f42023          	sw	a5,0(s0)
   1a350:	03449493          	slli	s1,s1,0x34
   1a354:	00050593          	mv	a1,a0
   1a358:	00040513          	mv	a0,s0
   1a35c:	abdfd0ef          	jal	17e18 <_Bfree>
   1a360:	000b0593          	mv	a1,s6
   1a364:	00040513          	mv	a0,s0
   1a368:	ab1fd0ef          	jal	17e18 <_Bfree>
   1a36c:	000a0593          	mv	a1,s4
   1a370:	00040513          	mv	a0,s0
   1a374:	aa5fd0ef          	jal	17e18 <_Bfree>
   1a378:	000d0593          	mv	a1,s10
   1a37c:	00040513          	mv	a0,s0
   1a380:	a99fd0ef          	jal	17e18 <_Bfree>
   1a384:	000c0593          	mv	a1,s8
   1a388:	00040513          	mv	a0,s0
   1a38c:	a8dfd0ef          	jal	17e18 <_Bfree>
   1a390:	9b1ff06f          	j	19d40 <_strtod_r+0x418>
   1a394:	13257453          	fmul.d	fs0,fa0,fs2
   1a398:	e20407d3          	fmv.x.d	a5,fs0
   1a39c:	e00b98e3          	bnez	s7,1a1ac <_strtod_r+0x884>
   1a3a0:	228417d3          	fneg.d	fa5,fs0
   1a3a4:	e20787d3          	fmv.x.d	a5,fa5
   1a3a8:	e05ff06f          	j	1a1ac <_strtod_r+0x884>
   1a3ac:	00812783          	lw	a5,8(sp)
   1a3b0:	00c12d83          	lw	s11,12(sp)
   1a3b4:	40e785bb          	subw	a1,a5,a4
   1a3b8:	c49ff06f          	j	1a000 <_strtod_r+0x6d8>
   1a3bc:	01012683          	lw	a3,16(sp)
   1a3c0:	be200613          	li	a2,-1054
   1a3c4:	40e6073b          	subw	a4,a2,a4
   1a3c8:	00e6973b          	sllw	a4,a3,a4
   1a3cc:	00e12c23          	sw	a4,24(sp)
   1a3d0:	c75ff06f          	j	1a044 <_strtod_r+0x71c>
   1a3d4:	00c91793          	slli	a5,s2,0xc
   1a3d8:	12078e63          	beqz	a5,1a514 <_strtod_r+0xbec>
   1a3dc:	00100793          	li	a5,1
   1a3e0:	5cf90a63          	beq	s2,a5,1a9b4 <_strtod_r+0x108c>
   1a3e4:	bff00793          	li	a5,-1025
   1a3e8:	00024737          	lui	a4,0x24
   1a3ec:	03479793          	slli	a5,a5,0x34
   1a3f0:	45073407          	fld	fs0,1104(a4) # 24450 <mask+0x28>
   1a3f4:	db9ff06f          	j	1a1ac <_strtod_r+0x884>
   1a3f8:	03913c23          	sd	s9,56(sp)
   1a3fc:	00000b93          	li	s7,0
   1a400:	f9cff06f          	j	19b9c <_strtod_r+0x274>
   1a404:	00021637          	lui	a2,0x21
   1a408:	000a8793          	mv	a5,s5
   1a40c:	04010713          	addi	a4,sp,64
   1a410:	03410693          	addi	a3,sp,52
   1a414:	03060613          	addi	a2,a2,48 # 21030 <fpi.2617>
   1a418:	03810593          	addi	a1,sp,56
   1a41c:	00040513          	mv	a0,s0
   1a420:	200040ef          	jal	1e620 <__gethex>
   1a424:	00757a13          	andi	s4,a0,7
   1a428:	00050b13          	mv	s6,a0
   1a42c:	00000493          	li	s1,0
   1a430:	900a08e3          	beqz	s4,19d40 <_strtod_r+0x418>
   1a434:	00600793          	li	a5,6
   1a438:	1efa1e63          	bne	s4,a5,1a634 <_strtod_r+0xd0c>
   1a43c:	001b8713          	addi	a4,s7,1
   1a440:	02e13c23          	sd	a4,56(sp)
   1a444:	00000a93          	li	s5,0
   1a448:	8f9ff06f          	j	19d40 <_strtod_r+0x418>
   1a44c:	fcb005b7          	lui	a1,0xfcb00
   1a450:	00b7073b          	addw	a4,a4,a1
   1a454:	fff00593          	li	a1,-1
   1a458:	0205d593          	srli	a1,a1,0x20
   1a45c:	02071713          	slli	a4,a4,0x20
   1a460:	00b97933          	and	s2,s2,a1
   1a464:	00e96933          	or	s2,s2,a4
   1a468:	f2090553          	fmv.d.x	fa0,s2
   1a46c:	f2078bd3          	fmv.d.x	fs7,a5
   1a470:	00d13c23          	sd	a3,24(sp)
   1a474:	00c13823          	sd	a2,16(sp)
   1a478:	02b13023          	sd	a1,32(sp)
   1a47c:	c58fe0ef          	jal	188d4 <__ulp>
   1a480:	f20907d3          	fmv.d.x	fa5,s2
   1a484:	01813683          	ld	a3,24(sp)
   1a488:	7ca00737          	lui	a4,0x7ca00
   1a48c:	7aabf7c3          	fmadd.d	fa5,fs7,fa0,fa5
   1a490:	01013603          	ld	a2,16(sp)
   1a494:	e2078953          	fmv.x.d	s2,fa5
   1a498:	42095793          	srai	a5,s2,0x20
   1a49c:	00d7f6b3          	and	a3,a5,a3
   1a4a0:	16e6ec63          	bltu	a3,a4,1a618 <_strtod_r+0xcf0>
   1a4a4:	7ff00793          	li	a5,2047
   1a4a8:	03479793          	slli	a5,a5,0x34
   1a4ac:	fff78793          	addi	a5,a5,-1 # 7fefffff <_end+0x7fed9257>
   1a4b0:	02013583          	ld	a1,32(sp)
   1a4b4:	e8f486e3          	beq	s1,a5,1a340 <_strtod_r+0xa18>
   1a4b8:	7ff007b7          	lui	a5,0x7ff00
   1a4bc:	02091913          	slli	s2,s2,0x20
   1a4c0:	fff78793          	addi	a5,a5,-1 # 7fefffff <_end+0x7fed9257>
   1a4c4:	02095913          	srli	s2,s2,0x20
   1a4c8:	02079793          	slli	a5,a5,0x20
   1a4cc:	00f96933          	or	s2,s2,a5
   1a4d0:	00b96933          	or	s2,s2,a1
   1a4d4:	d79ff06f          	j	1a24c <_strtod_r+0x924>
   1a4d8:	00000893          	li	a7,0
   1a4dc:	e41ff06f          	j	1a31c <_strtod_r+0x9f4>
   1a4e0:	c20417d3          	fcvt.w.d	a5,fs0,rtz
   1a4e4:	d2078553          	fcvt.d.w	fa0,a5
   1a4e8:	0aa47553          	fsub.d	fa0,fs0,fa0
   1a4ec:	0e0b9c63          	bnez	s7,1a5e4 <_strtod_r+0xcbc>
   1a4f0:	00c91793          	slli	a5,s2,0xc
   1a4f4:	0e079863          	bnez	a5,1a5e4 <_strtod_r+0xcbc>
   1a4f8:	000247b7          	lui	a5,0x24
   1a4fc:	4b87b787          	fld	fa5,1208(a5) # 244b8 <mask+0x90>
   1a500:	a2f517d3          	flt.d	a5,fa0,fa5
   1a504:	d40784e3          	beqz	a5,1a24c <_strtod_r+0x924>
   1a508:	04013503          	ld	a0,64(sp)
   1a50c:	00090493          	mv	s1,s2
   1a510:	e45ff06f          	j	1a354 <_strtod_r+0xa2c>
   1a514:	a33517d3          	flt.d	a5,fa0,fs3
   1a518:	36079c63          	bnez	a5,1a890 <_strtod_r+0xf68>
   1a51c:	000247b7          	lui	a5,0x24
   1a520:	4707b407          	fld	fs0,1136(a5) # 24470 <mask+0x48>
   1a524:	12857453          	fmul.d	fs0,fa0,fs0
   1a528:	228417d3          	fneg.d	fa5,fs0
   1a52c:	e20787d3          	fmv.x.d	a5,fa5
   1a530:	c7dff06f          	j	1a1ac <_strtod_r+0x884>
   1a534:	9e0706e3          	beqz	a4,19f20 <_strtod_r+0x5f8>
   1a538:	40e007bb          	negw	a5,a4
   1a53c:	00f7f713          	andi	a4,a5,15
   1a540:	02070263          	beqz	a4,1a564 <_strtod_r+0xc3c>
   1a544:	00021637          	lui	a2,0x21
   1a548:	00371713          	slli	a4,a4,0x3
   1a54c:	e4060613          	addi	a2,a2,-448 # 20e40 <__mprec_tens>
   1a550:	00c70733          	add	a4,a4,a2
   1a554:	f2090753          	fmv.d.x	fa4,s2
   1a558:	00073787          	fld	fa5,0(a4) # 7ca00000 <_end+0x7c9d9258>
   1a55c:	1af777d3          	fdiv.d	fa5,fa4,fa5
   1a560:	e2078953          	fmv.x.d	s2,fa5
   1a564:	4047d79b          	sraiw	a5,a5,0x4
   1a568:	9a078ce3          	beqz	a5,19f20 <_strtod_r+0x5f8>
   1a56c:	01f00713          	li	a4,31
   1a570:	06f74263          	blt	a4,a5,1a5d4 <_strtod_r+0xcac>
   1a574:	0107f713          	andi	a4,a5,16
   1a578:	54070a63          	beqz	a4,1aacc <_strtod_r+0x11a4>
   1a57c:	06a00c93          	li	s9,106
   1a580:	50f05663          	blez	a5,1aa8c <_strtod_r+0x1164>
   1a584:	00021737          	lui	a4,0x21
   1a588:	00090593          	mv	a1,s2
   1a58c:	06070713          	addi	a4,a4,96 # 21060 <tinytens>
   1a590:	00000513          	li	a0,0
   1a594:	0017f613          	andi	a2,a5,1
   1a598:	00060c63          	beqz	a2,1a5b0 <_strtod_r+0xc88>
   1a59c:	f2058753          	fmv.d.x	fa4,a1
   1a5a0:	00073787          	fld	fa5,0(a4)
   1a5a4:	00100513          	li	a0,1
   1a5a8:	12f777d3          	fmul.d	fa5,fa4,fa5
   1a5ac:	e20785d3          	fmv.x.d	a1,fa5
   1a5b0:	4017d79b          	sraiw	a5,a5,0x1
   1a5b4:	00870713          	addi	a4,a4,8
   1a5b8:	fc079ee3          	bnez	a5,1a594 <_strtod_r+0xc6c>
   1a5bc:	60051463          	bnez	a0,1abc4 <_strtod_r+0x129c>
   1a5c0:	4c0c9663          	bnez	s9,1aa8c <_strtod_r+0x1164>
   1a5c4:	f20007d3          	fmv.d.x	fa5,zero
   1a5c8:	f2090753          	fmv.d.x	fa4,s2
   1a5cc:	a2f727d3          	feq.d	a5,fa4,fa5
   1a5d0:	94078ae3          	beqz	a5,19f24 <_strtod_r+0x5fc>
   1a5d4:	02200793          	li	a5,34
   1a5d8:	00f42023          	sw	a5,0(s0)
   1a5dc:	00000493          	li	s1,0
   1a5e0:	f60ff06f          	j	19d40 <_strtod_r+0x418>
   1a5e4:	a34517d3          	flt.d	a5,fa0,fs4
   1a5e8:	f20790e3          	bnez	a5,1a508 <_strtod_r+0xbe0>
   1a5ec:	000247b7          	lui	a5,0x24
   1a5f0:	4b07b787          	fld	fa5,1200(a5) # 244b0 <mask+0x88>
   1a5f4:	a2a797d3          	flt.d	a5,fa5,fa0
   1a5f8:	c4078ae3          	beqz	a5,1a24c <_strtod_r+0x924>
   1a5fc:	f0dff06f          	j	1a508 <_strtod_r+0xbe0>
   1a600:	00078493          	mv	s1,a5
   1a604:	000a0913          	mv	s2,s4
   1a608:	00000d93          	li	s11,0
   1a60c:	00000d13          	li	s10,0
   1a610:	00000c13          	li	s8,0
   1a614:	c34ff06f          	j	19a48 <_strtod_r+0x120>
   1a618:	03500737          	lui	a4,0x3500
   1a61c:	00e7873b          	addw	a4,a5,a4
   1a620:	02091913          	slli	s2,s2,0x20
   1a624:	02071793          	slli	a5,a4,0x20
   1a628:	02095913          	srli	s2,s2,0x20
   1a62c:	00f96933          	or	s2,s2,a5
   1a630:	c0dff06f          	j	1a23c <_strtod_r+0x914>
   1a634:	04013603          	ld	a2,64(sp)
   1a638:	00060e63          	beqz	a2,1a654 <_strtod_r+0xd2c>
   1a63c:	03500593          	li	a1,53
   1a640:	04810513          	addi	a0,sp,72
   1a644:	ea0fe0ef          	jal	18ce4 <__copybits>
   1a648:	04013583          	ld	a1,64(sp)
   1a64c:	00040513          	mv	a0,s0
   1a650:	fc8fd0ef          	jal	17e18 <_Bfree>
   1a654:	00600793          	li	a5,6
   1a658:	0347e463          	bltu	a5,s4,1a680 <_strtod_r+0xd58>
   1a65c:	020a1793          	slli	a5,s4,0x20
   1a660:	00021737          	lui	a4,0x21
   1a664:	01e7d793          	srli	a5,a5,0x1e
   1a668:	01070713          	addi	a4,a4,16 # 21010 <__mprec_bigtens+0xe0>
   1a66c:	00e787b3          	add	a5,a5,a4
   1a670:	0007a783          	lw	a5,0(a5)
   1a674:	00078067          	jr	a5
   1a678:	7ff00913          	li	s2,2047
   1a67c:	03491913          	slli	s2,s2,0x34
   1a680:	008b7b13          	andi	s6,s6,8
   1a684:	f00b0e63          	beqz	s6,19da0 <_strtod_r+0x478>
   1a688:	42095713          	srai	a4,s2,0x20
   1a68c:	800007b7          	lui	a5,0x80000
   1a690:	00f767b3          	or	a5,a4,a5
   1a694:	02091493          	slli	s1,s2,0x20
   1a698:	02079793          	slli	a5,a5,0x20
   1a69c:	0204d493          	srli	s1,s1,0x20
   1a6a0:	00f4e4b3          	or	s1,s1,a5
   1a6a4:	e9cff06f          	j	19d40 <_strtod_r+0x418>
   1a6a8:	04c16783          	lwu	a5,76(sp)
   1a6ac:	04816903          	lwu	s2,72(sp)
   1a6b0:	02079793          	slli	a5,a5,0x20
   1a6b4:	00f96933          	or	s2,s2,a5
   1a6b8:	fc9ff06f          	j	1a680 <_strtod_r+0xd58>
   1a6bc:	03412783          	lw	a5,52(sp)
   1a6c0:	04c12683          	lw	a3,76(sp)
   1a6c4:	fff00737          	lui	a4,0xfff00
   1a6c8:	4337879b          	addiw	a5,a5,1075
   1a6cc:	fff7071b          	addiw	a4,a4,-1
   1a6d0:	00e6f733          	and	a4,a3,a4
   1a6d4:	0147979b          	slliw	a5,a5,0x14
   1a6d8:	04816903          	lwu	s2,72(sp)
   1a6dc:	00f767b3          	or	a5,a4,a5
   1a6e0:	02079793          	slli	a5,a5,0x20
   1a6e4:	00f96933          	or	s2,s2,a5
   1a6e8:	f99ff06f          	j	1a680 <_strtod_r+0xd58>
   1a6ec:	800007b7          	lui	a5,0x80000
   1a6f0:	fff7c793          	not	a5,a5
   1a6f4:	fff00913          	li	s2,-1
   1a6f8:	02079793          	slli	a5,a5,0x20
   1a6fc:	02095913          	srli	s2,s2,0x20
   1a700:	0127e933          	or	s2,a5,s2
   1a704:	f7dff06f          	j	1a680 <_strtod_r+0xd58>
   1a708:	00000913          	li	s2,0
   1a70c:	f75ff06f          	j	1a680 <_strtod_r+0xd58>
   1a710:	00100793          	li	a5,1
   1a714:	00e585bb          	addw	a1,a1,a4
   1a718:	00d6063b          	addw	a2,a2,a3
   1a71c:	00800813          	li	a6,8
   1a720:	01000313          	li	t1,16
   1a724:	48f70863          	beq	a4,a5,1abb4 <_strtod_r+0x128c>
   1a728:	0016869b          	addiw	a3,a3,1
   1a72c:	fff6871b          	addiw	a4,a3,-1
   1a730:	06e86863          	bltu	a6,a4,1a7a0 <_strtod_r+0xe78>
   1a734:	001d189b          	slliw	a7,s10,0x1
   1a738:	003d171b          	slliw	a4,s10,0x3
   1a73c:	00e88d3b          	addw	s10,a7,a4
   1a740:	fec694e3          	bne	a3,a2,1a728 <_strtod_r+0xe00>
   1a744:	03813803          	ld	a6,56(sp)
   1a748:	0016869b          	addiw	a3,a3,1
   1a74c:	00800713          	li	a4,8
   1a750:	02c75c63          	ble	a2,a4,1a788 <_strtod_r+0xe60>
   1a754:	01000793          	li	a5,16
   1a758:	00000613          	li	a2,0
   1a75c:	b4d7c8e3          	blt	a5,a3,1a2ac <_strtod_r+0x984>
   1a760:	001d971b          	slliw	a4,s11,0x1
   1a764:	003d979b          	slliw	a5,s11,0x3
   1a768:	00f707bb          	addw	a5,a4,a5
   1a76c:	00f50dbb          	addw	s11,a0,a5
   1a770:	b3dff06f          	j	1a2ac <_strtod_r+0x984>
   1a774:	03813a03          	ld	s4,56(sp)
   1a778:	fd04849b          	addiw	s1,s1,-48
   1a77c:	0016059b          	addiw	a1,a2,1
   1a780:	000a0813          	mv	a6,s4
   1a784:	00100693          	li	a3,1
   1a788:	001d161b          	slliw	a2,s10,0x1
   1a78c:	003d171b          	slliw	a4,s10,0x3
   1a790:	00e6073b          	addw	a4,a2,a4
   1a794:	00e48d3b          	addw	s10,s1,a4
   1a798:	00000613          	li	a2,0
   1a79c:	b11ff06f          	j	1a2ac <_strtod_r+0x984>
   1a7a0:	fad340e3          	blt	t1,a3,1a740 <_strtod_r+0xe18>
   1a7a4:	001d971b          	slliw	a4,s11,0x1
   1a7a8:	003d979b          	slliw	a5,s11,0x3
   1a7ac:	00f70dbb          	addw	s11,a4,a5
   1a7b0:	f91ff06f          	j	1a740 <_strtod_r+0xe18>
   1a7b4:	02500613          	li	a2,37
   1a7b8:	40d6063b          	subw	a2,a2,a3
   1a7bc:	e5764e63          	blt	a2,s7,19e18 <_strtod_r+0x4f0>
   1a7c0:	40d787bb          	subw	a5,a5,a3
   1a7c4:	00078713          	mv	a4,a5
   1a7c8:	000216b7          	lui	a3,0x21
   1a7cc:	e4068693          	addi	a3,a3,-448 # 20e40 <__mprec_tens>
   1a7d0:	00371713          	slli	a4,a4,0x3
   1a7d4:	00d70733          	add	a4,a4,a3
   1a7d8:	00073787          	fld	fa5,0(a4) # fffffffffff00000 <_end+0xffffffffffed9258>
   1a7dc:	f2090753          	fmv.d.x	fa4,s2
   1a7e0:	40fb87bb          	subw	a5,s7,a5
   1a7e4:	00379793          	slli	a5,a5,0x3
   1a7e8:	12e7f753          	fmul.d	fa4,fa5,fa4
   1a7ec:	00d787b3          	add	a5,a5,a3
   1a7f0:	0007b787          	fld	fa5,0(a5) # ffffffff80000000 <_end+0xffffffff7ffd9258>
   1a7f4:	12f777d3          	fmul.d	fa5,fa4,fa5
   1a7f8:	e20784d3          	fmv.x.d	s1,fa5
   1a7fc:	d44ff06f          	j	19d40 <_strtod_r+0x418>
   1a800:	000247b7          	lui	a5,0x24
   1a804:	4507b407          	fld	fs0,1104(a5) # 24450 <mask+0x28>
   1a808:	9e1ff06f          	j	1a1e8 <_strtod_r+0x8c0>
   1a80c:	04900793          	li	a5,73
   1a810:	b8f49e63          	bne	s1,a5,19bac <_strtod_r+0x284>
   1a814:	03813683          	ld	a3,56(sp)
   1a818:	00022737          	lui	a4,0x22
   1a81c:	d1070713          	addi	a4,a4,-752 # 21d10 <zeroes.4123+0x700>
   1a820:	01900813          	li	a6,25
   1a824:	00170713          	addi	a4,a4,1
   1a828:	fff74583          	lbu	a1,-1(a4)
   1a82c:	d2058263          	beqz	a1,19d50 <_strtod_r+0x428>
   1a830:	00168693          	addi	a3,a3,1
   1a834:	0006c603          	lbu	a2,0(a3)
   1a838:	fbf6079b          	addiw	a5,a2,-65
   1a83c:	0ff7f793          	andi	a5,a5,255
   1a840:	00060513          	mv	a0,a2
   1a844:	00f86463          	bltu	a6,a5,1a84c <_strtod_r+0xf24>
   1a848:	0206051b          	addiw	a0,a2,32
   1a84c:	fcb50ce3          	beq	a0,a1,1a824 <_strtod_r+0xefc>
   1a850:	b5cff06f          	j	19bac <_strtod_r+0x284>
   1a854:	00012423          	sw	zero,8(sp)
   1a858:	f00ff06f          	j	19f58 <_strtod_r+0x630>
   1a85c:	fea00793          	li	a5,-22
   1a860:	dafbcc63          	blt	s7,a5,19e18 <_strtod_r+0x4f0>
   1a864:	41700bbb          	negw	s7,s7
   1a868:	000b8793          	mv	a5,s7
   1a86c:	00021737          	lui	a4,0x21
   1a870:	00379793          	slli	a5,a5,0x3
   1a874:	e4070713          	addi	a4,a4,-448 # 20e40 <__mprec_tens>
   1a878:	00e787b3          	add	a5,a5,a4
   1a87c:	0007b787          	fld	fa5,0(a5)
   1a880:	f2090753          	fmv.d.x	fa4,s2
   1a884:	1af777d3          	fdiv.d	fa5,fa4,fa5
   1a888:	e20784d3          	fmv.x.d	s1,fa5
   1a88c:	cb4ff06f          	j	19d40 <_strtod_r+0x418>
   1a890:	e20b07d3          	fmv.x.d	a5,fs6
   1a894:	235a8453          	fmv.d	fs0,fs5
   1a898:	915ff06f          	j	1a1ac <_strtod_r+0x884>
   1a89c:	00160793          	addi	a5,a2,1
   1a8a0:	02f13c23          	sd	a5,56(sp)
   1a8a4:	00164703          	lbu	a4,1(a2)
   1a8a8:	02800793          	li	a5,40
   1a8ac:	18f70063          	beq	a4,a5,1aa2c <_strtod_r+0x1104>
   1a8b0:	fff00913          	li	s2,-1
   1a8b4:	03391913          	slli	s2,s2,0x33
   1a8b8:	00090493          	mv	s1,s2
   1a8bc:	c84ff06f          	j	19d40 <_strtod_r+0x418>
   1a8c0:	00000613          	li	a2,0
   1a8c4:	d38ff06f          	j	19dfc <_strtod_r+0x4d4>
   1a8c8:	120b8863          	beqz	s7,1a9f8 <_strtod_r+0x10d0>
   1a8cc:	42095693          	srai	a3,s2,0x20
   1a8d0:	fff6c793          	not	a5,a3
   1a8d4:	02c79713          	slli	a4,a5,0x2c
   1a8d8:	26070063          	beqz	a4,1ab38 <_strtod_r+0x1210>
   1a8dc:	01812703          	lw	a4,24(sp)
   1a8e0:	12070463          	beqz	a4,1aa08 <_strtod_r+0x10e0>
   1a8e4:	42095793          	srai	a5,s2,0x20
   1a8e8:	00e7f7b3          	and	a5,a5,a4
   1a8ec:	02078063          	beqz	a5,1a90c <_strtod_r+0xfe4>
   1a8f0:	000c8593          	mv	a1,s9
   1a8f4:	00090513          	mv	a0,s2
   1a8f8:	160b8863          	beqz	s7,1aa68 <_strtod_r+0x1140>
   1a8fc:	5bd050ef          	jal	206b8 <sulp>
   1a900:	f20487d3          	fmv.d.x	fa5,s1
   1a904:	02a7f7d3          	fadd.d	fa5,fa5,fa0
   1a908:	e20784d3          	fmv.x.d	s1,fa5
   1a90c:	0c0c8e63          	beqz	s9,1a9e8 <_strtod_r+0x10c0>
   1a910:	39500793          	li	a5,917
   1a914:	03479793          	slli	a5,a5,0x34
   1a918:	f20487d3          	fmv.d.x	fa5,s1
   1a91c:	f2078753          	fmv.d.x	fa4,a5
   1a920:	04013503          	ld	a0,64(sp)
   1a924:	12e7f7d3          	fmul.d	fa5,fa5,fa4
   1a928:	e20784d3          	fmv.x.d	s1,fa5
   1a92c:	a20494e3          	bnez	s1,1a354 <_strtod_r+0xa2c>
   1a930:	02200793          	li	a5,34
   1a934:	00f42023          	sw	a5,0(s0)
   1a938:	a1dff06f          	j	1a354 <_strtod_r+0xa2c>
   1a93c:	fc0b98e3          	bnez	s7,1a90c <_strtod_r+0xfe4>
   1a940:	00c91793          	slli	a5,s2,0xc
   1a944:	fc0794e3          	bnez	a5,1a90c <_strtod_r+0xfe4>
   1a948:	02095913          	srli	s2,s2,0x20
   1a94c:	0009071b          	sext.w	a4,s2
   1a950:	7ff007b7          	lui	a5,0x7ff00
   1a954:	00f777b3          	and	a5,a4,a5
   1a958:	06b00737          	lui	a4,0x6b00
   1a95c:	faf778e3          	bleu	a5,a4,1a90c <_strtod_r+0xfe4>
   1a960:	018c2783          	lw	a5,24(s8)
   1a964:	00079863          	bnez	a5,1a974 <_strtod_r+0x104c>
   1a968:	014c2703          	lw	a4,20(s8)
   1a96c:	00100793          	li	a5,1
   1a970:	f8e7dee3          	ble	a4,a5,1a90c <_strtod_r+0xfe4>
   1a974:	000c0593          	mv	a1,s8
   1a978:	00100613          	li	a2,1
   1a97c:	00040513          	mv	a0,s0
   1a980:	b85fd0ef          	jal	18504 <__lshift>
   1a984:	000a0593          	mv	a1,s4
   1a988:	00050c13          	mv	s8,a0
   1a98c:	cd9fd0ef          	jal	18664 <__mcmp>
   1a990:	f6a05ee3          	blez	a0,1a90c <_strtod_r+0xfe4>
   1a994:	140c8263          	beqz	s9,1aad8 <_strtod_r+0x11b0>
   1a998:	0009071b          	sext.w	a4,s2
   1a99c:	7ff007b7          	lui	a5,0x7ff00
   1a9a0:	00f777b3          	and	a5,a4,a5
   1a9a4:	06b00737          	lui	a4,0x6b00
   1a9a8:	12f74863          	blt	a4,a5,1aad8 <_strtod_r+0x11b0>
   1a9ac:	03700737          	lui	a4,0x3700
   1a9b0:	f6f740e3          	blt	a4,a5,1a910 <_strtod_r+0xfe8>
   1a9b4:	02200793          	li	a5,34
   1a9b8:	00f42023          	sw	a5,0(s0)
   1a9bc:	04013503          	ld	a0,64(sp)
   1a9c0:	00000493          	li	s1,0
   1a9c4:	991ff06f          	j	1a354 <_strtod_r+0xa2c>
   1a9c8:	035007b7          	lui	a5,0x3500
   1a9cc:	00f607bb          	addw	a5,a2,a5
   1a9d0:	02091913          	slli	s2,s2,0x20
   1a9d4:	02079793          	slli	a5,a5,0x20
   1a9d8:	02095913          	srli	s2,s2,0x20
   1a9dc:	00f96933          	or	s2,s2,a5
   1a9e0:	00000c93          	li	s9,0
   1a9e4:	d40ff06f          	j	19f24 <_strtod_r+0x5fc>
   1a9e8:	04013503          	ld	a0,64(sp)
   1a9ec:	969ff06f          	j	1a354 <_strtod_r+0xa2c>
   1a9f0:	02c13c23          	sd	a2,56(sp)
   1a9f4:	ba4ff06f          	j	19d98 <_strtod_r+0x470>
   1a9f8:	00c91793          	slli	a5,s2,0xc
   1a9fc:	ee0790e3          	bnez	a5,1a8dc <_strtod_r+0xfb4>
   1aa00:	02095913          	srli	s2,s2,0x20
   1aa04:	f91ff06f          	j	1a994 <_strtod_r+0x106c>
   1aa08:	01012703          	lw	a4,16(sp)
   1aa0c:	0009079b          	sext.w	a5,s2
   1aa10:	00e7f7b3          	and	a5,a5,a4
   1aa14:	ee078ce3          	beqz	a5,1a90c <_strtod_r+0xfe4>
   1aa18:	ed9ff06f          	j	1a8f0 <_strtod_r+0xfc8>
   1aa1c:	00021337          	lui	t1,0x21
   1aa20:	00000613          	li	a2,0
   1aa24:	f3030313          	addi	t1,t1,-208 # 20f30 <__mprec_bigtens>
   1aa28:	c88ff06f          	j	19eb0 <_strtod_r+0x588>
   1aa2c:	000215b7          	lui	a1,0x21
   1aa30:	04810613          	addi	a2,sp,72
   1aa34:	04858593          	addi	a1,a1,72 # 21048 <fpinan.2653>
   1aa38:	03810513          	addi	a0,sp,56
   1aa3c:	374040ef          	jal	1edb0 <__hexnan>
   1aa40:	00500793          	li	a5,5
   1aa44:	e6f516e3          	bne	a0,a5,1a8b0 <_strtod_r+0xf88>
   1aa48:	04c12703          	lw	a4,76(sp)
   1aa4c:	04816903          	lwu	s2,72(sp)
   1aa50:	7ff007b7          	lui	a5,0x7ff00
   1aa54:	00f767b3          	or	a5,a4,a5
   1aa58:	02079793          	slli	a5,a5,0x20
   1aa5c:	0127e933          	or	s2,a5,s2
   1aa60:	00090493          	mv	s1,s2
   1aa64:	adcff06f          	j	19d40 <_strtod_r+0x418>
   1aa68:	451050ef          	jal	206b8 <sulp>
   1aa6c:	f20487d3          	fmv.d.x	fa5,s1
   1aa70:	0aa7f7d3          	fsub.d	fa5,fa5,fa0
   1aa74:	e20784d3          	fmv.x.d	s1,fa5
   1aa78:	f20007d3          	fmv.d.x	fa5,zero
   1aa7c:	f2048753          	fmv.d.x	fa4,s1
   1aa80:	a2f727d3          	feq.d	a5,fa4,fa5
   1aa84:	f20798e3          	bnez	a5,1a9b4 <_strtod_r+0x108c>
   1aa88:	e85ff06f          	j	1a90c <_strtod_r+0xfe4>
   1aa8c:	42095613          	srai	a2,s2,0x20
   1aa90:	02161793          	slli	a5,a2,0x21
   1aa94:	0357d713          	srli	a4,a5,0x35
   1aa98:	06b00793          	li	a5,107
   1aa9c:	40e787bb          	subw	a5,a5,a4
   1aaa0:	b2f052e3          	blez	a5,1a5c4 <_strtod_r+0xc9c>
   1aaa4:	01f00713          	li	a4,31
   1aaa8:	06f75263          	ble	a5,a4,1ab0c <_strtod_r+0x11e4>
   1aaac:	fff00713          	li	a4,-1
   1aab0:	02071593          	slli	a1,a4,0x20
   1aab4:	00b97933          	and	s2,s2,a1
   1aab8:	03400593          	li	a1,52
   1aabc:	0cf5da63          	ble	a5,a1,1ab90 <_strtod_r+0x1268>
   1aac0:	03700913          	li	s2,55
   1aac4:	03491913          	slli	s2,s2,0x34
   1aac8:	afdff06f          	j	1a5c4 <_strtod_r+0xc9c>
   1aacc:	00000c93          	li	s9,0
   1aad0:	aaf04ae3          	bgtz	a5,1a584 <_strtod_r+0xc5c>
   1aad4:	af1ff06f          	j	1a5c4 <_strtod_r+0xc9c>
   1aad8:	7ff00737          	lui	a4,0x7ff00
   1aadc:	0009091b          	sext.w	s2,s2
   1aae0:	fff007b7          	lui	a5,0xfff00
   1aae4:	00e97933          	and	s2,s2,a4
   1aae8:	00f9073b          	addw	a4,s2,a5
   1aaec:	001007b7          	lui	a5,0x100
   1aaf0:	fff7879b          	addiw	a5,a5,-1
   1aaf4:	00f767b3          	or	a5,a4,a5
   1aaf8:	fff00493          	li	s1,-1
   1aafc:	02079793          	slli	a5,a5,0x20
   1ab00:	0204d493          	srli	s1,s1,0x20
   1ab04:	00f4e4b3          	or	s1,s1,a5
   1ab08:	e05ff06f          	j	1a90c <_strtod_r+0xfe4>
   1ab0c:	fff00713          	li	a4,-1
   1ab10:	0009061b          	sext.w	a2,s2
   1ab14:	00f717bb          	sllw	a5,a4,a5
   1ab18:	00f677b3          	and	a5,a2,a5
   1ab1c:	fff00713          	li	a4,-1
   1ab20:	02079793          	slli	a5,a5,0x20
   1ab24:	02071713          	slli	a4,a4,0x20
   1ab28:	0207d793          	srli	a5,a5,0x20
   1ab2c:	00e97933          	and	s2,s2,a4
   1ab30:	00f96933          	or	s2,s2,a5
   1ab34:	a91ff06f          	j	1a5c4 <_strtod_r+0xc9c>
   1ab38:	0009059b          	sext.w	a1,s2
   1ab3c:	fff00713          	li	a4,-1
   1ab40:	020c8263          	beqz	s9,1ab64 <_strtod_r+0x123c>
   1ab44:	7ff007b7          	lui	a5,0x7ff00
   1ab48:	00f6f7b3          	and	a5,a3,a5
   1ab4c:	06a00637          	lui	a2,0x6a00
   1ab50:	00f66a63          	bltu	a2,a5,1ab64 <_strtod_r+0x123c>
   1ab54:	0147d79b          	srliw	a5,a5,0x14
   1ab58:	06b00613          	li	a2,107
   1ab5c:	40f607bb          	subw	a5,a2,a5
   1ab60:	00f7173b          	sllw	a4,a4,a5
   1ab64:	d6b71ce3          	bne	a4,a1,1a8dc <_strtod_r+0xfb4>
   1ab68:	7ff00713          	li	a4,2047
   1ab6c:	03471713          	slli	a4,a4,0x34
   1ab70:	fff70713          	addi	a4,a4,-1 # 7fefffff <_end+0x7fed9257>
   1ab74:	fce90663          	beq	s2,a4,1a340 <_strtod_r+0xa18>
   1ab78:	7ff007b7          	lui	a5,0x7ff00
   1ab7c:	00f6f7b3          	and	a5,a3,a5
   1ab80:	001004b7          	lui	s1,0x100
   1ab84:	009784bb          	addw	s1,a5,s1
   1ab88:	02049493          	slli	s1,s1,0x20
   1ab8c:	d81ff06f          	j	1a90c <_strtod_r+0xfe4>
   1ab90:	00f717bb          	sllw	a5,a4,a5
   1ab94:	00c7f7b3          	and	a5,a5,a2
   1ab98:	02075713          	srli	a4,a4,0x20
   1ab9c:	02079793          	slli	a5,a5,0x20
   1aba0:	00e97933          	and	s2,s2,a4
   1aba4:	00f96933          	or	s2,s2,a5
   1aba8:	a1dff06f          	j	1a5c4 <_strtod_r+0xc9c>
   1abac:	00080913          	mv	s2,a6
   1abb0:	b00ff06f          	j	19eb0 <_strtod_r+0x588>
   1abb4:	00068613          	mv	a2,a3
   1abb8:	03813803          	ld	a6,56(sp)
   1abbc:	00f686bb          	addw	a3,a3,a5
   1abc0:	b8dff06f          	j	1a74c <_strtod_r+0xe24>
   1abc4:	00058913          	mv	s2,a1
   1abc8:	9f9ff06f          	j	1a5c0 <_strtod_r+0xc98>

000000000001abcc <strtod>:
   1abcc:	00058613          	mv	a2,a1
   1abd0:	00050593          	mv	a1,a0
   1abd4:	8101b503          	ld	a0,-2032(gp) # 243e0 <_impure_ptr>
   1abd8:	d51fe06f          	j	19928 <_strtod_r>

000000000001abdc <strtof>:
   1abdc:	00058613          	mv	a2,a1
   1abe0:	00050593          	mv	a1,a0
   1abe4:	8101b503          	ld	a0,-2032(gp) # 243e0 <_impure_ptr>
   1abe8:	fe010113          	addi	sp,sp,-32
   1abec:	00813427          	fsd	fs0,8(sp)
   1abf0:	00113c23          	sd	ra,24(sp)
   1abf4:	d35fe0ef          	jal	19928 <_strtod_r>
   1abf8:	22a50453          	fmv.d	fs0,fa0
   1abfc:	a79fe0ef          	jal	19674 <__fpclassifyd>
   1ac00:	00050c63          	beqz	a0,1ac18 <strtof+0x3c>
   1ac04:	01813083          	ld	ra,24(sp)
   1ac08:	40147553          	fcvt.s.d	fa0,fs0
   1ac0c:	00813407          	fld	fs0,8(sp)
   1ac10:	02010113          	addi	sp,sp,32
   1ac14:	00008067          	ret
   1ac18:	01813083          	ld	ra,24(sp)
   1ac1c:	00813407          	fld	fs0,8(sp)
   1ac20:	00000513          	li	a0,0
   1ac24:	02010113          	addi	sp,sp,32
   1ac28:	a41fe06f          	j	19668 <nanf>

000000000001ac2c <_strtol_r>:
   1ac2c:	8281be83          	ld	t4,-2008(gp) # 243f8 <__ctype_ptr__>
   1ac30:	00058313          	mv	t1,a1
   1ac34:	0080006f          	j	1ac3c <_strtol_r+0x10>
   1ac38:	00080313          	mv	t1,a6
   1ac3c:	00130813          	addi	a6,t1,1
   1ac40:	fff84783          	lbu	a5,-1(a6)
   1ac44:	00fe8733          	add	a4,t4,a5
   1ac48:	00174703          	lbu	a4,1(a4)
   1ac4c:	00877713          	andi	a4,a4,8
   1ac50:	fe0714e3          	bnez	a4,1ac38 <_strtol_r+0xc>
   1ac54:	ff010113          	addi	sp,sp,-16
   1ac58:	00078893          	mv	a7,a5
   1ac5c:	00813423          	sd	s0,8(sp)
   1ac60:	00913023          	sd	s1,0(sp)
   1ac64:	02d00793          	li	a5,45
   1ac68:	14f88063          	beq	a7,a5,1ada8 <_strtol_r+0x17c>
   1ac6c:	02b00793          	li	a5,43
   1ac70:	00000393          	li	t2,0
   1ac74:	12f88463          	beq	a7,a5,1ad9c <_strtol_r+0x170>
   1ac78:	0e068263          	beqz	a3,1ad5c <_strtol_r+0x130>
   1ac7c:	01000793          	li	a5,16
   1ac80:	00068413          	mv	s0,a3
   1ac84:	14f68863          	beq	a3,a5,1add4 <_strtol_r+0x1a8>
   1ac88:	fff00793          	li	a5,-1
   1ac8c:	0017df13          	srli	t5,a5,0x1
   1ac90:	00038463          	beqz	t2,1ac98 <_strtol_r+0x6c>
   1ac94:	03f79f13          	slli	t5,a5,0x3f
   1ac98:	028f74b3          	remu	s1,t5,s0
   1ac9c:	011e8733          	add	a4,t4,a7
   1aca0:	00174783          	lbu	a5,1(a4)
   1aca4:	00000e13          	li	t3,0
   1aca8:	00000313          	li	t1,0
   1acac:	0047f713          	andi	a4,a5,4
   1acb0:	00100293          	li	t0,1
   1acb4:	fff00f93          	li	t6,-1
   1acb8:	028f5f33          	divu	t5,t5,s0
   1acbc:	0004849b          	sext.w	s1,s1
   1acc0:	04070063          	beqz	a4,1ad00 <_strtol_r+0xd4>
   1acc4:	fd08879b          	addiw	a5,a7,-48
   1acc8:	04d7de63          	ble	a3,a5,1ad24 <_strtol_r+0xf8>
   1accc:	01fe0e63          	beq	t3,t6,1ace8 <_strtol_r+0xbc>
   1acd0:	fff00e13          	li	t3,-1
   1acd4:	006f6a63          	bltu	t5,t1,1ace8 <_strtol_r+0xbc>
   1acd8:	07e30e63          	beq	t1,t5,1ad54 <_strtol_r+0x128>
   1acdc:	00100e13          	li	t3,1
   1ace0:	02830333          	mul	t1,t1,s0
   1ace4:	00678333          	add	t1,a5,t1
   1ace8:	00180813          	addi	a6,a6,1
   1acec:	fff84883          	lbu	a7,-1(a6)
   1acf0:	011e8733          	add	a4,t4,a7
   1acf4:	00174783          	lbu	a5,1(a4)
   1acf8:	0047f713          	andi	a4,a5,4
   1acfc:	fc0714e3          	bnez	a4,1acc4 <_strtol_r+0x98>
   1ad00:	0037f713          	andi	a4,a5,3
   1ad04:	02070063          	beqz	a4,1ad24 <_strtol_r+0xf8>
   1ad08:	40e2873b          	subw	a4,t0,a4
   1ad0c:	00e03733          	snez	a4,a4
   1ad10:	40e0073b          	negw	a4,a4
   1ad14:	02077713          	andi	a4,a4,32
   1ad18:	0377071b          	addiw	a4,a4,55
   1ad1c:	40e887bb          	subw	a5,a7,a4
   1ad20:	fad7c6e3          	blt	a5,a3,1accc <_strtol_r+0xa0>
   1ad24:	fff00793          	li	a5,-1
   1ad28:	04fe0863          	beq	t3,a5,1ad78 <_strtol_r+0x14c>
   1ad2c:	04039263          	bnez	t2,1ad70 <_strtol_r+0x144>
   1ad30:	00030793          	mv	a5,t1
   1ad34:	00060663          	beqz	a2,1ad40 <_strtol_r+0x114>
   1ad38:	040e1e63          	bnez	t3,1ad94 <_strtol_r+0x168>
   1ad3c:	00b63023          	sd	a1,0(a2) # 6a00000 <_end+0x69d9258>
   1ad40:	00078513          	mv	a0,a5
   1ad44:	00813403          	ld	s0,8(sp)
   1ad48:	00013483          	ld	s1,0(sp)
   1ad4c:	01010113          	addi	sp,sp,16
   1ad50:	00008067          	ret
   1ad54:	f8f4cae3          	blt	s1,a5,1ace8 <_strtol_r+0xbc>
   1ad58:	f85ff06f          	j	1acdc <_strtol_r+0xb0>
   1ad5c:	03000793          	li	a5,48
   1ad60:	04f88c63          	beq	a7,a5,1adb8 <_strtol_r+0x18c>
   1ad64:	00a00413          	li	s0,10
   1ad68:	00040693          	mv	a3,s0
   1ad6c:	f1dff06f          	j	1ac88 <_strtol_r+0x5c>
   1ad70:	40600333          	neg	t1,t1
   1ad74:	fbdff06f          	j	1ad30 <_strtol_r+0x104>
   1ad78:	fff00713          	li	a4,-1
   1ad7c:	00175793          	srli	a5,a4,0x1
   1ad80:	00038463          	beqz	t2,1ad88 <_strtol_r+0x15c>
   1ad84:	03f71793          	slli	a5,a4,0x3f
   1ad88:	02200713          	li	a4,34
   1ad8c:	00e52023          	sw	a4,0(a0)
   1ad90:	fa0608e3          	beqz	a2,1ad40 <_strtol_r+0x114>
   1ad94:	fff80593          	addi	a1,a6,-1
   1ad98:	fa5ff06f          	j	1ad3c <_strtol_r+0x110>
   1ad9c:	00134883          	lbu	a7,1(t1)
   1ada0:	00230813          	addi	a6,t1,2
   1ada4:	ed5ff06f          	j	1ac78 <_strtol_r+0x4c>
   1ada8:	00230813          	addi	a6,t1,2
   1adac:	00134883          	lbu	a7,1(t1)
   1adb0:	00100393          	li	t2,1
   1adb4:	ec5ff06f          	j	1ac78 <_strtol_r+0x4c>
   1adb8:	00084783          	lbu	a5,0(a6)
   1adbc:	05800713          	li	a4,88
   1adc0:	0df7f793          	andi	a5,a5,223
   1adc4:	02e78463          	beq	a5,a4,1adec <_strtol_r+0x1c0>
   1adc8:	00800413          	li	s0,8
   1adcc:	00040693          	mv	a3,s0
   1add0:	eb9ff06f          	j	1ac88 <_strtol_r+0x5c>
   1add4:	03000793          	li	a5,48
   1add8:	02f89463          	bne	a7,a5,1ae00 <_strtol_r+0x1d4>
   1addc:	00084783          	lbu	a5,0(a6)
   1ade0:	05800713          	li	a4,88
   1ade4:	0df7f793          	andi	a5,a5,223
   1ade8:	00e79c63          	bne	a5,a4,1ae00 <_strtol_r+0x1d4>
   1adec:	01000413          	li	s0,16
   1adf0:	00184883          	lbu	a7,1(a6)
   1adf4:	00040693          	mv	a3,s0
   1adf8:	00280813          	addi	a6,a6,2
   1adfc:	e8dff06f          	j	1ac88 <_strtol_r+0x5c>
   1ae00:	01000413          	li	s0,16
   1ae04:	e85ff06f          	j	1ac88 <_strtol_r+0x5c>

000000000001ae08 <strtol>:
   1ae08:	00060693          	mv	a3,a2
   1ae0c:	00058613          	mv	a2,a1
   1ae10:	00050593          	mv	a1,a0
   1ae14:	8101b503          	ld	a0,-2032(gp) # 243e0 <_impure_ptr>
   1ae18:	e15ff06f          	j	1ac2c <_strtol_r>

000000000001ae1c <_strtoul_r>:
   1ae1c:	00050f13          	mv	t5,a0
   1ae20:	8281be03          	ld	t3,-2008(gp) # 243f8 <__ctype_ptr__>
   1ae24:	00058313          	mv	t1,a1
   1ae28:	0080006f          	j	1ae30 <_strtoul_r+0x14>
   1ae2c:	00080313          	mv	t1,a6
   1ae30:	00130813          	addi	a6,t1,1
   1ae34:	fff84783          	lbu	a5,-1(a6)
   1ae38:	00fe0733          	add	a4,t3,a5
   1ae3c:	00174703          	lbu	a4,1(a4)
   1ae40:	00877713          	andi	a4,a4,8
   1ae44:	fe0714e3          	bnez	a4,1ae2c <_strtoul_r+0x10>
   1ae48:	ff010113          	addi	sp,sp,-16
   1ae4c:	00078893          	mv	a7,a5
   1ae50:	00813423          	sd	s0,8(sp)
   1ae54:	00913023          	sd	s1,0(sp)
   1ae58:	02d00793          	li	a5,45
   1ae5c:	12f88263          	beq	a7,a5,1af80 <_strtoul_r+0x164>
   1ae60:	02b00793          	li	a5,43
   1ae64:	00000f93          	li	t6,0
   1ae68:	0ef88663          	beq	a7,a5,1af54 <_strtoul_r+0x138>
   1ae6c:	02068263          	beqz	a3,1ae90 <_strtoul_r+0x74>
   1ae70:	01000793          	li	a5,16
   1ae74:	14f68263          	beq	a3,a5,1afb8 <_strtoul_r+0x19c>
   1ae78:	fff00e93          	li	t4,-1
   1ae7c:	02def3b3          	remu	t2,t4,a3
   1ae80:	00068293          	mv	t0,a3
   1ae84:	02dedeb3          	divu	t4,t4,a3
   1ae88:	0003839b          	sext.w	t2,t2
   1ae8c:	0200006f          	j	1aeac <_strtoul_r+0x90>
   1ae90:	03000793          	li	a5,48
   1ae94:	0ef88e63          	beq	a7,a5,1af90 <_strtoul_r+0x174>
   1ae98:	000247b7          	lui	a5,0x24
   1ae9c:	4c07be83          	ld	t4,1216(a5) # 244c0 <mask+0x98>
   1aea0:	00a00293          	li	t0,10
   1aea4:	00500393          	li	t2,5
   1aea8:	00028693          	mv	a3,t0
   1aeac:	011e0733          	add	a4,t3,a7
   1aeb0:	00174783          	lbu	a5,1(a4)
   1aeb4:	00000313          	li	t1,0
   1aeb8:	00000513          	li	a0,0
   1aebc:	0047f713          	andi	a4,a5,4
   1aec0:	00100493          	li	s1,1
   1aec4:	fff00413          	li	s0,-1
   1aec8:	04070063          	beqz	a4,1af08 <_strtoul_r+0xec>
   1aecc:	fd08879b          	addiw	a5,a7,-48
   1aed0:	04d7de63          	ble	a3,a5,1af2c <_strtoul_r+0x110>
   1aed4:	00830e63          	beq	t1,s0,1aef0 <_strtoul_r+0xd4>
   1aed8:	fff00313          	li	t1,-1
   1aedc:	00aeea63          	bltu	t4,a0,1aef0 <_strtoul_r+0xd4>
   1aee0:	09d50063          	beq	a0,t4,1af60 <_strtoul_r+0x144>
   1aee4:	02550733          	mul	a4,a0,t0
   1aee8:	00100313          	li	t1,1
   1aeec:	00e78533          	add	a0,a5,a4
   1aef0:	00180813          	addi	a6,a6,1
   1aef4:	fff84883          	lbu	a7,-1(a6)
   1aef8:	011e0733          	add	a4,t3,a7
   1aefc:	00174783          	lbu	a5,1(a4)
   1af00:	0047f713          	andi	a4,a5,4
   1af04:	fc0714e3          	bnez	a4,1aecc <_strtoul_r+0xb0>
   1af08:	0037f713          	andi	a4,a5,3
   1af0c:	02070063          	beqz	a4,1af2c <_strtoul_r+0x110>
   1af10:	40e4873b          	subw	a4,s1,a4
   1af14:	00e03733          	snez	a4,a4
   1af18:	40e0073b          	negw	a4,a4
   1af1c:	02077713          	andi	a4,a4,32
   1af20:	0377071b          	addiw	a4,a4,55
   1af24:	40e887bb          	subw	a5,a7,a4
   1af28:	fad7c6e3          	blt	a5,a3,1aed4 <_strtoul_r+0xb8>
   1af2c:	02034e63          	bltz	t1,1af68 <_strtoul_r+0x14c>
   1af30:	000f8463          	beqz	t6,1af38 <_strtoul_r+0x11c>
   1af34:	40a00533          	neg	a0,a0
   1af38:	00060663          	beqz	a2,1af44 <_strtoul_r+0x128>
   1af3c:	02031e63          	bnez	t1,1af78 <_strtoul_r+0x15c>
   1af40:	00b63023          	sd	a1,0(a2)
   1af44:	00813403          	ld	s0,8(sp)
   1af48:	00013483          	ld	s1,0(sp)
   1af4c:	01010113          	addi	sp,sp,16
   1af50:	00008067          	ret
   1af54:	00134883          	lbu	a7,1(t1)
   1af58:	00230813          	addi	a6,t1,2
   1af5c:	f11ff06f          	j	1ae6c <_strtoul_r+0x50>
   1af60:	f8f3c8e3          	blt	t2,a5,1aef0 <_strtoul_r+0xd4>
   1af64:	f81ff06f          	j	1aee4 <_strtoul_r+0xc8>
   1af68:	02200793          	li	a5,34
   1af6c:	00ff2023          	sw	a5,0(t5)
   1af70:	fff00513          	li	a0,-1
   1af74:	fc0608e3          	beqz	a2,1af44 <_strtoul_r+0x128>
   1af78:	fff80593          	addi	a1,a6,-1
   1af7c:	fc5ff06f          	j	1af40 <_strtoul_r+0x124>
   1af80:	00230813          	addi	a6,t1,2
   1af84:	00134883          	lbu	a7,1(t1)
   1af88:	00100f93          	li	t6,1
   1af8c:	ee1ff06f          	j	1ae6c <_strtoul_r+0x50>
   1af90:	00084783          	lbu	a5,0(a6)
   1af94:	05800713          	li	a4,88
   1af98:	0df7f793          	andi	a5,a5,223
   1af9c:	02e78a63          	beq	a5,a4,1afd0 <_strtoul_r+0x1b4>
   1afa0:	00800293          	li	t0,8
   1afa4:	fff00e93          	li	t4,-1
   1afa8:	00700393          	li	t2,7
   1afac:	003ede93          	srli	t4,t4,0x3
   1afb0:	00028693          	mv	a3,t0
   1afb4:	ef9ff06f          	j	1aeac <_strtoul_r+0x90>
   1afb8:	03000793          	li	a5,48
   1afbc:	02f89a63          	bne	a7,a5,1aff0 <_strtoul_r+0x1d4>
   1afc0:	00084783          	lbu	a5,0(a6)
   1afc4:	05800713          	li	a4,88
   1afc8:	0df7f793          	andi	a5,a5,223
   1afcc:	02e79263          	bne	a5,a4,1aff0 <_strtoul_r+0x1d4>
   1afd0:	01000293          	li	t0,16
   1afd4:	fff00e93          	li	t4,-1
   1afd8:	00184883          	lbu	a7,1(a6)
   1afdc:	00f00393          	li	t2,15
   1afe0:	00280813          	addi	a6,a6,2
   1afe4:	004ede93          	srli	t4,t4,0x4
   1afe8:	00028693          	mv	a3,t0
   1afec:	ec1ff06f          	j	1aeac <_strtoul_r+0x90>
   1aff0:	fff00e93          	li	t4,-1
   1aff4:	00f00393          	li	t2,15
   1aff8:	004ede93          	srli	t4,t4,0x4
   1affc:	01000293          	li	t0,16
   1b000:	eadff06f          	j	1aeac <_strtoul_r+0x90>

000000000001b004 <strtoul>:
   1b004:	00060693          	mv	a3,a2
   1b008:	00058613          	mv	a2,a1
   1b00c:	00050593          	mv	a1,a0
   1b010:	8101b503          	ld	a0,-2032(gp) # 243e0 <_impure_ptr>
   1b014:	e09ff06f          	j	1ae1c <_strtoul_r>

000000000001b018 <_svfprintf_r>:
   1b018:	e1010113          	addi	sp,sp,-496
   1b01c:	1e113423          	sd	ra,488(sp)
   1b020:	1d313423          	sd	s3,456(sp)
   1b024:	1b713423          	sd	s7,424(sp)
   1b028:	1b813023          	sd	s8,416(sp)
   1b02c:	00058b93          	mv	s7,a1
   1b030:	00060993          	mv	s3,a2
   1b034:	02d13423          	sd	a3,40(sp)
   1b038:	1e813023          	sd	s0,480(sp)
   1b03c:	1c913c23          	sd	s1,472(sp)
   1b040:	1d213823          	sd	s2,464(sp)
   1b044:	1d413023          	sd	s4,448(sp)
   1b048:	1b513c23          	sd	s5,440(sp)
   1b04c:	1b613823          	sd	s6,432(sp)
   1b050:	19913c23          	sd	s9,408(sp)
   1b054:	19a13823          	sd	s10,400(sp)
   1b058:	19b13423          	sd	s11,392(sp)
   1b05c:	16813c27          	fsd	fs0,376(sp)
   1b060:	00050c13          	mv	s8,a0
   1b064:	df4fc0ef          	jal	17658 <_localeconv_r>
   1b068:	00053783          	ld	a5,0(a0)
   1b06c:	00078513          	mv	a0,a5
   1b070:	06f13023          	sd	a5,96(sp)
   1b074:	9bdf60ef          	jal	11a30 <strlen>
   1b078:	010bd783          	lhu	a5,16(s7)
   1b07c:	06a13423          	sd	a0,104(sp)
   1b080:	0807f793          	andi	a5,a5,128
   1b084:	00078863          	beqz	a5,1b094 <_svfprintf_r+0x7c>
   1b088:	018bb783          	ld	a5,24(s7)
   1b08c:	00079463          	bnez	a5,1b094 <_svfprintf_r+0x7c>
   1b090:	5b00106f          	j	1c640 <_svfprintf_r+0x1628>
   1b094:	000217b7          	lui	a5,0x21
   1b098:	08878793          	addi	a5,a5,136 # 21088 <tinytens+0x28>
   1b09c:	0f010a93          	addi	s5,sp,240
   1b0a0:	02f13823          	sd	a5,48(sp)
   1b0a4:	0ef10793          	addi	a5,sp,239
   1b0a8:	00021a37          	lui	s4,0x21
   1b0ac:	000214b7          	lui	s1,0x21
   1b0b0:	40fa87b3          	sub	a5,s5,a5
   1b0b4:	04013c23          	sd	zero,88(sp)
   1b0b8:	0b513823          	sd	s5,176(sp)
   1b0bc:	0c013023          	sd	zero,192(sp)
   1b0c0:	0a012c23          	sw	zero,184(sp)
   1b0c4:	06012823          	sw	zero,112(sp)
   1b0c8:	000a8893          	mv	a7,s5
   1b0cc:	02013c23          	sd	zero,56(sp)
   1b0d0:	06012a23          	sw	zero,116(sp)
   1b0d4:	00012e23          	sw	zero,28(sp)
   1b0d8:	1f0a0a13          	addi	s4,s4,496 # 211f0 <blanks.4178>
   1b0dc:	20048493          	addi	s1,s1,512 # 21200 <zeroes.4179>
   1b0e0:	06f13c23          	sd	a5,120(sp)
   1b0e4:	0009c783          	lbu	a5,0(s3)
   1b0e8:	000780e3          	beqz	a5,1b8e8 <_svfprintf_r+0x8d0>
   1b0ec:	02500713          	li	a4,37
   1b0f0:	00098413          	mv	s0,s3
   1b0f4:	00e79663          	bne	a5,a4,1b100 <_svfprintf_r+0xe8>
   1b0f8:	0580006f          	j	1b150 <_svfprintf_r+0x138>
   1b0fc:	00e78863          	beq	a5,a4,1b10c <_svfprintf_r+0xf4>
   1b100:	00140413          	addi	s0,s0,1
   1b104:	00044783          	lbu	a5,0(s0)
   1b108:	fe079ae3          	bnez	a5,1b0fc <_svfprintf_r+0xe4>
   1b10c:	4134093b          	subw	s2,s0,s3
   1b110:	04090063          	beqz	s2,1b150 <_svfprintf_r+0x138>
   1b114:	0c013703          	ld	a4,192(sp)
   1b118:	0b812783          	lw	a5,184(sp)
   1b11c:	00090693          	mv	a3,s2
   1b120:	00d70733          	add	a4,a4,a3
   1b124:	0017879b          	addiw	a5,a5,1
   1b128:	0138b023          	sd	s3,0(a7)
   1b12c:	00d8b423          	sd	a3,8(a7)
   1b130:	0ce13023          	sd	a4,192(sp)
   1b134:	0af12c23          	sw	a5,184(sp)
   1b138:	00700713          	li	a4,7
   1b13c:	01088893          	addi	a7,a7,16
   1b140:	14f74263          	blt	a4,a5,1b284 <_svfprintf_r+0x26c>
   1b144:	01c12783          	lw	a5,28(sp)
   1b148:	012787bb          	addw	a5,a5,s2
   1b14c:	00f12e23          	sw	a5,28(sp)
   1b150:	00044783          	lbu	a5,0(s0)
   1b154:	14078663          	beqz	a5,1b2a0 <_svfprintf_r+0x288>
   1b158:	00140993          	addi	s3,s0,1
   1b15c:	080107a3          	sb	zero,143(sp)
   1b160:	00000613          	li	a2,0
   1b164:	00000593          	li	a1,0
   1b168:	fff00413          	li	s0,-1
   1b16c:	00012c23          	sw	zero,24(sp)
   1b170:	00000b13          	li	s6,0
   1b174:	05800713          	li	a4,88
   1b178:	00900693          	li	a3,9
   1b17c:	02a00513          	li	a0,42
   1b180:	0009cd03          	lbu	s10,0(s3)
   1b184:	00198993          	addi	s3,s3,1
   1b188:	fe0d079b          	addiw	a5,s10,-32
   1b18c:	14f766e3          	bltu	a4,a5,1bad8 <_svfprintf_r+0xac0>
   1b190:	03013803          	ld	a6,48(sp)
   1b194:	02079793          	slli	a5,a5,0x20
   1b198:	01e7d793          	srli	a5,a5,0x1e
   1b19c:	010787b3          	add	a5,a5,a6
   1b1a0:	0007a783          	lw	a5,0(a5)
   1b1a4:	00078067          	jr	a5
   1b1a8:	010b6b13          	ori	s6,s6,16
   1b1ac:	fd5ff06f          	j	1b180 <_svfprintf_r+0x168>
   1b1b0:	02813783          	ld	a5,40(sp)
   1b1b4:	0007a803          	lw	a6,0(a5)
   1b1b8:	00878793          	addi	a5,a5,8
   1b1bc:	02f13423          	sd	a5,40(sp)
   1b1c0:	01012c23          	sw	a6,24(sp)
   1b1c4:	fa085ee3          	bgez	a6,1b180 <_svfprintf_r+0x168>
   1b1c8:	410007bb          	negw	a5,a6
   1b1cc:	00f12c23          	sw	a5,24(sp)
   1b1d0:	004b6b13          	ori	s6,s6,4
   1b1d4:	fadff06f          	j	1b180 <_svfprintf_r+0x168>
   1b1d8:	03000793          	li	a5,48
   1b1dc:	08f10823          	sb	a5,144(sp)
   1b1e0:	07800793          	li	a5,120
   1b1e4:	08f108a3          	sb	a5,145(sp)
   1b1e8:	02813783          	ld	a5,40(sp)
   1b1ec:	080107a3          	sb	zero,143(sp)
   1b1f0:	002b6693          	ori	a3,s6,2
   1b1f4:	00878713          	addi	a4,a5,8
   1b1f8:	0007b783          	ld	a5,0(a5)
   1b1fc:	100448e3          	bltz	s0,1bb0c <_svfprintf_r+0xaf4>
   1b200:	f7fb7b13          	andi	s6,s6,-129
   1b204:	02e13423          	sd	a4,40(sp)
   1b208:	002b6b13          	ori	s6,s6,2
   1b20c:	0a079ae3          	bnez	a5,1bac0 <_svfprintf_r+0xaa8>
   1b210:	000227b7          	lui	a5,0x22
   1b214:	cb878793          	addi	a5,a5,-840 # 21cb8 <zeroes.4123+0x6a8>
   1b218:	02f13c23          	sd	a5,56(sp)
   1b21c:	07800d13          	li	s10,120
   1b220:	00000613          	li	a2,0
   1b224:	00000793          	li	a5,0
   1b228:	70040063          	beqz	s0,1b928 <_svfprintf_r+0x910>
   1b22c:	000a8913          	mv	s2,s5
   1b230:	03813683          	ld	a3,56(sp)
   1b234:	00f7f713          	andi	a4,a5,15
   1b238:	fff90913          	addi	s2,s2,-1
   1b23c:	00e68733          	add	a4,a3,a4
   1b240:	00074703          	lbu	a4,0(a4)
   1b244:	0047d793          	srli	a5,a5,0x4
   1b248:	00e90023          	sb	a4,0(s2)
   1b24c:	fe0792e3          	bnez	a5,1b230 <_svfprintf_r+0x218>
   1b250:	412a87b3          	sub	a5,s5,s2
   1b254:	02f12023          	sw	a5,32(sp)
   1b258:	02012783          	lw	a5,32(sp)
   1b25c:	00078d93          	mv	s11,a5
   1b260:	0087d463          	ble	s0,a5,1b268 <_svfprintf_r+0x250>
   1b264:	00040d93          	mv	s11,s0
   1b268:	01b12423          	sw	s11,8(sp)
   1b26c:	04012623          	sw	zero,76(sp)
   1b270:	32060263          	beqz	a2,1b594 <_svfprintf_r+0x57c>
   1b274:	00812783          	lw	a5,8(sp)
   1b278:	0017879b          	addiw	a5,a5,1
   1b27c:	00f12423          	sw	a5,8(sp)
   1b280:	3140006f          	j	1b594 <_svfprintf_r+0x57c>
   1b284:	0b010613          	addi	a2,sp,176
   1b288:	000b8593          	mv	a1,s7
   1b28c:	000c0513          	mv	a0,s8
   1b290:	659030ef          	jal	1f0e8 <__ssprint_r>
   1b294:	02051263          	bnez	a0,1b2b8 <_svfprintf_r+0x2a0>
   1b298:	000a8893          	mv	a7,s5
   1b29c:	ea9ff06f          	j	1b144 <_svfprintf_r+0x12c>
   1b2a0:	0c013783          	ld	a5,192(sp)
   1b2a4:	00078a63          	beqz	a5,1b2b8 <_svfprintf_r+0x2a0>
   1b2a8:	0b010613          	addi	a2,sp,176
   1b2ac:	000b8593          	mv	a1,s7
   1b2b0:	000c0513          	mv	a0,s8
   1b2b4:	635030ef          	jal	1f0e8 <__ssprint_r>
   1b2b8:	010bd783          	lhu	a5,16(s7)
   1b2bc:	01c12503          	lw	a0,28(sp)
   1b2c0:	0407f793          	andi	a5,a5,64
   1b2c4:	00078463          	beqz	a5,1b2cc <_svfprintf_r+0x2b4>
   1b2c8:	4f80106f          	j	1c7c0 <_svfprintf_r+0x17a8>
   1b2cc:	1e813083          	ld	ra,488(sp)
   1b2d0:	1e013403          	ld	s0,480(sp)
   1b2d4:	1d813483          	ld	s1,472(sp)
   1b2d8:	1d013903          	ld	s2,464(sp)
   1b2dc:	1c813983          	ld	s3,456(sp)
   1b2e0:	1c013a03          	ld	s4,448(sp)
   1b2e4:	1b813a83          	ld	s5,440(sp)
   1b2e8:	1b013b03          	ld	s6,432(sp)
   1b2ec:	1a813b83          	ld	s7,424(sp)
   1b2f0:	1a013c03          	ld	s8,416(sp)
   1b2f4:	19813c83          	ld	s9,408(sp)
   1b2f8:	19013d03          	ld	s10,400(sp)
   1b2fc:	18813d83          	ld	s11,392(sp)
   1b300:	17813407          	fld	fs0,376(sp)
   1b304:	1f010113          	addi	sp,sp,496
   1b308:	00008067          	ret
   1b30c:	00100613          	li	a2,1
   1b310:	02b00593          	li	a1,43
   1b314:	e6dff06f          	j	1b180 <_svfprintf_r+0x168>
   1b318:	00060463          	beqz	a2,1b320 <_svfprintf_r+0x308>
   1b31c:	0990106f          	j	1cbb4 <_svfprintf_r+0x1b9c>
   1b320:	010b7793          	andi	a5,s6,16
   1b324:	16078863          	beqz	a5,1b494 <_svfprintf_r+0x47c>
   1b328:	02813783          	ld	a5,40(sp)
   1b32c:	080107a3          	sb	zero,143(sp)
   1b330:	00878713          	addi	a4,a5,8
   1b334:	0007b783          	ld	a5,0(a5)
   1b338:	16044c63          	bltz	s0,1b4b0 <_svfprintf_r+0x498>
   1b33c:	02e13423          	sd	a4,40(sp)
   1b340:	f7fb7b13          	andi	s6,s6,-129
   1b344:	3a0794e3          	bnez	a5,1beec <_svfprintf_r+0xed4>
   1b348:	00000613          	li	a2,0
   1b34c:	00000793          	li	a5,0
   1b350:	00041463          	bnez	s0,1b358 <_svfprintf_r+0x340>
   1b354:	3780106f          	j	1c6cc <_svfprintf_r+0x16b4>
   1b358:	000a8913          	mv	s2,s5
   1b35c:	0077f713          	andi	a4,a5,7
   1b360:	fff90913          	addi	s2,s2,-1
   1b364:	0307071b          	addiw	a4,a4,48
   1b368:	00e90023          	sb	a4,0(s2)
   1b36c:	0037d793          	srli	a5,a5,0x3
   1b370:	fe0796e3          	bnez	a5,1b35c <_svfprintf_r+0x344>
   1b374:	001b7793          	andi	a5,s6,1
   1b378:	ec078ce3          	beqz	a5,1b250 <_svfprintf_r+0x238>
   1b37c:	03000793          	li	a5,48
   1b380:	ecf708e3          	beq	a4,a5,1b250 <_svfprintf_r+0x238>
   1b384:	fff90713          	addi	a4,s2,-1
   1b388:	40ea86b3          	sub	a3,s5,a4
   1b38c:	fef90fa3          	sb	a5,-1(s2)
   1b390:	02d12023          	sw	a3,32(sp)
   1b394:	00070913          	mv	s2,a4
   1b398:	ec1ff06f          	j	1b258 <_svfprintf_r+0x240>
   1b39c:	00060463          	beqz	a2,1b3a4 <_svfprintf_r+0x38c>
   1b3a0:	0710106f          	j	1cc10 <_svfprintf_r+0x1bf8>
   1b3a4:	000227b7          	lui	a5,0x22
   1b3a8:	cb878793          	addi	a5,a5,-840 # 21cb8 <zeroes.4123+0x6a8>
   1b3ac:	02f13c23          	sd	a5,56(sp)
   1b3b0:	010b7793          	andi	a5,s6,16
   1b3b4:	18078863          	beqz	a5,1b544 <_svfprintf_r+0x52c>
   1b3b8:	02813703          	ld	a4,40(sp)
   1b3bc:	00073783          	ld	a5,0(a4)
   1b3c0:	00870713          	addi	a4,a4,8
   1b3c4:	02e13423          	sd	a4,40(sp)
   1b3c8:	001b7713          	andi	a4,s6,1
   1b3cc:	300704e3          	beqz	a4,1bed4 <_svfprintf_r+0xebc>
   1b3d0:	00079463          	bnez	a5,1b3d8 <_svfprintf_r+0x3c0>
   1b3d4:	7b10006f          	j	1c384 <_svfprintf_r+0x136c>
   1b3d8:	03000713          	li	a4,48
   1b3dc:	08e10823          	sb	a4,144(sp)
   1b3e0:	09a108a3          	sb	s10,145(sp)
   1b3e4:	080107a3          	sb	zero,143(sp)
   1b3e8:	002b6713          	ori	a4,s6,2
   1b3ec:	00045463          	bgez	s0,1b3f4 <_svfprintf_r+0x3dc>
   1b3f0:	4840106f          	j	1c874 <_svfprintf_r+0x185c>
   1b3f4:	f7fb7b13          	andi	s6,s6,-129
   1b3f8:	002b6b13          	ori	s6,s6,2
   1b3fc:	00000613          	li	a2,0
   1b400:	e2dff06f          	j	1b22c <_svfprintf_r+0x214>
   1b404:	00060463          	beqz	a2,1b40c <_svfprintf_r+0x3f4>
   1b408:	7980106f          	j	1cba0 <_svfprintf_r+0x1b88>
   1b40c:	010b7793          	andi	a5,s6,16
   1b410:	720788e3          	beqz	a5,1c340 <_svfprintf_r+0x1328>
   1b414:	02813683          	ld	a3,40(sp)
   1b418:	01c12703          	lw	a4,28(sp)
   1b41c:	0006b783          	ld	a5,0(a3)
   1b420:	00868693          	addi	a3,a3,8
   1b424:	02d13423          	sd	a3,40(sp)
   1b428:	00e7b023          	sd	a4,0(a5)
   1b42c:	cb9ff06f          	j	1b0e4 <_svfprintf_r+0xcc>
   1b430:	0009cd03          	lbu	s10,0(s3)
   1b434:	00198993          	addi	s3,s3,1
   1b438:	00ad1463          	bne	s10,a0,1b440 <_svfprintf_r+0x428>
   1b43c:	6f80106f          	j	1cb34 <_svfprintf_r+0x1b1c>
   1b440:	fd0d079b          	addiw	a5,s10,-48
   1b444:	00000413          	li	s0,0
   1b448:	d4f6e0e3          	bltu	a3,a5,1b188 <_svfprintf_r+0x170>
   1b44c:	00198993          	addi	s3,s3,1
   1b450:	fff9cd03          	lbu	s10,-1(s3)
   1b454:	0014181b          	slliw	a6,s0,0x1
   1b458:	0034141b          	slliw	s0,s0,0x3
   1b45c:	0088043b          	addw	s0,a6,s0
   1b460:	00f4043b          	addw	s0,s0,a5
   1b464:	fd0d079b          	addiw	a5,s10,-48
   1b468:	fef6f2e3          	bleu	a5,a3,1b44c <_svfprintf_r+0x434>
   1b46c:	d0045ee3          	bgez	s0,1b188 <_svfprintf_r+0x170>
   1b470:	fff00413          	li	s0,-1
   1b474:	d15ff06f          	j	1b188 <_svfprintf_r+0x170>
   1b478:	080b6b13          	ori	s6,s6,128
   1b47c:	d05ff06f          	j	1b180 <_svfprintf_r+0x168>
   1b480:	00060463          	beqz	a2,1b488 <_svfprintf_r+0x470>
   1b484:	7240106f          	j	1cba8 <_svfprintf_r+0x1b90>
   1b488:	010b6b13          	ori	s6,s6,16
   1b48c:	010b7793          	andi	a5,s6,16
   1b490:	e8079ce3          	bnez	a5,1b328 <_svfprintf_r+0x310>
   1b494:	040b7793          	andi	a5,s6,64
   1b498:	080107a3          	sb	zero,143(sp)
   1b49c:	600784e3          	beqz	a5,1c2a4 <_svfprintf_r+0x128c>
   1b4a0:	02813783          	ld	a5,40(sp)
   1b4a4:	00878713          	addi	a4,a5,8
   1b4a8:	0007d783          	lhu	a5,0(a5)
   1b4ac:	e80458e3          	bgez	s0,1b33c <_svfprintf_r+0x324>
   1b4b0:	02e13423          	sd	a4,40(sp)
   1b4b4:	22079ce3          	bnez	a5,1beec <_svfprintf_r+0xed4>
   1b4b8:	00000613          	li	a2,0
   1b4bc:	00000713          	li	a4,0
   1b4c0:	6700006f          	j	1bb30 <_svfprintf_r+0xb18>
   1b4c4:	00060463          	beqz	a2,1b4cc <_svfprintf_r+0x4b4>
   1b4c8:	7040106f          	j	1cbcc <_svfprintf_r+0x1bb4>
   1b4cc:	010b6b13          	ori	s6,s6,16
   1b4d0:	010b7793          	andi	a5,s6,16
   1b4d4:	38078ae3          	beqz	a5,1c068 <_svfprintf_r+0x1050>
   1b4d8:	02813783          	ld	a5,40(sp)
   1b4dc:	080107a3          	sb	zero,143(sp)
   1b4e0:	00878713          	addi	a4,a5,8
   1b4e4:	0007b783          	ld	a5,0(a5)
   1b4e8:	38044ee3          	bltz	s0,1c084 <_svfprintf_r+0x106c>
   1b4ec:	02e13423          	sd	a4,40(sp)
   1b4f0:	f7fb7b13          	andi	s6,s6,-129
   1b4f4:	00000613          	li	a2,0
   1b4f8:	42078663          	beqz	a5,1b924 <_svfprintf_r+0x90c>
   1b4fc:	00900713          	li	a4,9
   1b500:	000a8913          	mv	s2,s5
   1b504:	00a00693          	li	a3,10
   1b508:	62f77a63          	bleu	a5,a4,1bb3c <_svfprintf_r+0xb24>
   1b50c:	02d7f733          	remu	a4,a5,a3
   1b510:	fff90913          	addi	s2,s2,-1
   1b514:	02d7d7b3          	divu	a5,a5,a3
   1b518:	0307071b          	addiw	a4,a4,48
   1b51c:	00e90023          	sb	a4,0(s2)
   1b520:	fe0796e3          	bnez	a5,1b50c <_svfprintf_r+0x4f4>
   1b524:	d2dff06f          	j	1b250 <_svfprintf_r+0x238>
   1b528:	00060463          	beqz	a2,1b530 <_svfprintf_r+0x518>
   1b52c:	6980106f          	j	1cbc4 <_svfprintf_r+0x1bac>
   1b530:	000227b7          	lui	a5,0x22
   1b534:	ca078793          	addi	a5,a5,-864 # 21ca0 <zeroes.4123+0x690>
   1b538:	02f13c23          	sd	a5,56(sp)
   1b53c:	010b7793          	andi	a5,s6,16
   1b540:	e6079ce3          	bnez	a5,1b3b8 <_svfprintf_r+0x3a0>
   1b544:	040b7793          	andi	a5,s6,64
   1b548:	02813703          	ld	a4,40(sp)
   1b54c:	620784e3          	beqz	a5,1c374 <_svfprintf_r+0x135c>
   1b550:	00075783          	lhu	a5,0(a4)
   1b554:	00870713          	addi	a4,a4,8
   1b558:	02e13423          	sd	a4,40(sp)
   1b55c:	e6dff06f          	j	1b3c8 <_svfprintf_r+0x3b0>
   1b560:	02813703          	ld	a4,40(sp)
   1b564:	00100693          	li	a3,1
   1b568:	00d12423          	sw	a3,8(sp)
   1b56c:	00072783          	lw	a5,0(a4)
   1b570:	080107a3          	sb	zero,143(sp)
   1b574:	00000613          	li	a2,0
   1b578:	0cf10423          	sb	a5,200(sp)
   1b57c:	00870793          	addi	a5,a4,8
   1b580:	02f13423          	sd	a5,40(sp)
   1b584:	02d12023          	sw	a3,32(sp)
   1b588:	00000413          	li	s0,0
   1b58c:	04012623          	sw	zero,76(sp)
   1b590:	0c810913          	addi	s2,sp,200
   1b594:	002b7793          	andi	a5,s6,2
   1b598:	04f12023          	sw	a5,64(sp)
   1b59c:	00078863          	beqz	a5,1b5ac <_svfprintf_r+0x594>
   1b5a0:	00812783          	lw	a5,8(sp)
   1b5a4:	0027879b          	addiw	a5,a5,2
   1b5a8:	00f12423          	sw	a5,8(sp)
   1b5ac:	084b7793          	andi	a5,s6,132
   1b5b0:	04f12423          	sw	a5,72(sp)
   1b5b4:	5a079063          	bnez	a5,1bb54 <_svfprintf_r+0xb3c>
   1b5b8:	01812783          	lw	a5,24(sp)
   1b5bc:	00812703          	lw	a4,8(sp)
   1b5c0:	40e78cbb          	subw	s9,a5,a4
   1b5c4:	59905863          	blez	s9,1bb54 <_svfprintf_r+0xb3c>
   1b5c8:	01000793          	li	a5,16
   1b5cc:	0197c463          	blt	a5,s9,1b5d4 <_svfprintf_r+0x5bc>
   1b5d0:	1f80106f          	j	1c7c8 <_svfprintf_r+0x17b0>
   1b5d4:	01000813          	li	a6,16
   1b5d8:	0c013783          	ld	a5,192(sp)
   1b5dc:	0b812703          	lw	a4,184(sp)
   1b5e0:	05413823          	sd	s4,80(sp)
   1b5e4:	00700313          	li	t1,7
   1b5e8:	00080d93          	mv	s11,a6
   1b5ec:	00c0006f          	j	1b5f8 <_svfprintf_r+0x5e0>
   1b5f0:	ff0c8c9b          	addiw	s9,s9,-16
   1b5f4:	059dde63          	ble	s9,s11,1b650 <_svfprintf_r+0x638>
   1b5f8:	01078793          	addi	a5,a5,16
   1b5fc:	0017071b          	addiw	a4,a4,1
   1b600:	0148b023          	sd	s4,0(a7)
   1b604:	0108b423          	sd	a6,8(a7)
   1b608:	0cf13023          	sd	a5,192(sp)
   1b60c:	0ae12c23          	sw	a4,184(sp)
   1b610:	01088893          	addi	a7,a7,16
   1b614:	fce35ee3          	ble	a4,t1,1b5f0 <_svfprintf_r+0x5d8>
   1b618:	0b010613          	addi	a2,sp,176
   1b61c:	000b8593          	mv	a1,s7
   1b620:	000c0513          	mv	a0,s8
   1b624:	00613823          	sd	t1,16(sp)
   1b628:	01013023          	sd	a6,0(sp)
   1b62c:	2bd030ef          	jal	1f0e8 <__ssprint_r>
   1b630:	c80514e3          	bnez	a0,1b2b8 <_svfprintf_r+0x2a0>
   1b634:	ff0c8c9b          	addiw	s9,s9,-16
   1b638:	0c013783          	ld	a5,192(sp)
   1b63c:	0b812703          	lw	a4,184(sp)
   1b640:	000a8893          	mv	a7,s5
   1b644:	01013303          	ld	t1,16(sp)
   1b648:	00013803          	ld	a6,0(sp)
   1b64c:	fb9dc6e3          	blt	s11,s9,1b5f8 <_svfprintf_r+0x5e0>
   1b650:	05013603          	ld	a2,80(sp)
   1b654:	00fc87b3          	add	a5,s9,a5
   1b658:	0017071b          	addiw	a4,a4,1
   1b65c:	00c8b023          	sd	a2,0(a7)
   1b660:	0198b423          	sd	s9,8(a7)
   1b664:	0cf13023          	sd	a5,192(sp)
   1b668:	0ae12c23          	sw	a4,184(sp)
   1b66c:	00700693          	li	a3,7
   1b670:	14e6cce3          	blt	a3,a4,1bfc8 <_svfprintf_r+0xfb0>
   1b674:	08f14603          	lbu	a2,143(sp)
   1b678:	01088893          	addi	a7,a7,16
   1b67c:	02060a63          	beqz	a2,1b6b0 <_svfprintf_r+0x698>
   1b680:	0b812703          	lw	a4,184(sp)
   1b684:	08f10693          	addi	a3,sp,143
   1b688:	00d8b023          	sd	a3,0(a7)
   1b68c:	00178793          	addi	a5,a5,1
   1b690:	00100693          	li	a3,1
   1b694:	0017071b          	addiw	a4,a4,1
   1b698:	00d8b423          	sd	a3,8(a7)
   1b69c:	0cf13023          	sd	a5,192(sp)
   1b6a0:	0ae12c23          	sw	a4,184(sp)
   1b6a4:	00700693          	li	a3,7
   1b6a8:	01088893          	addi	a7,a7,16
   1b6ac:	7ee6c463          	blt	a3,a4,1be94 <_svfprintf_r+0xe7c>
   1b6b0:	04012703          	lw	a4,64(sp)
   1b6b4:	02070a63          	beqz	a4,1b6e8 <_svfprintf_r+0x6d0>
   1b6b8:	0b812703          	lw	a4,184(sp)
   1b6bc:	09010693          	addi	a3,sp,144
   1b6c0:	00d8b023          	sd	a3,0(a7)
   1b6c4:	00278793          	addi	a5,a5,2
   1b6c8:	00200693          	li	a3,2
   1b6cc:	0017071b          	addiw	a4,a4,1
   1b6d0:	00d8b423          	sd	a3,8(a7)
   1b6d4:	0cf13023          	sd	a5,192(sp)
   1b6d8:	0ae12c23          	sw	a4,184(sp)
   1b6dc:	00700693          	li	a3,7
   1b6e0:	01088893          	addi	a7,a7,16
   1b6e4:	7ce6c863          	blt	a3,a4,1beb4 <_svfprintf_r+0xe9c>
   1b6e8:	04812683          	lw	a3,72(sp)
   1b6ec:	08000713          	li	a4,128
   1b6f0:	66e68463          	beq	a3,a4,1bd58 <_svfprintf_r+0xd40>
   1b6f4:	02012703          	lw	a4,32(sp)
   1b6f8:	40e4043b          	subw	s0,s0,a4
   1b6fc:	0c805063          	blez	s0,1b7bc <_svfprintf_r+0x7a4>
   1b700:	01000713          	li	a4,16
   1b704:	488758e3          	ble	s0,a4,1c394 <_svfprintf_r+0x137c>
   1b708:	01000c93          	li	s9,16
   1b70c:	0b812703          	lw	a4,184(sp)
   1b710:	00913823          	sd	s1,16(sp)
   1b714:	00700813          	li	a6,7
   1b718:	000c8d93          	mv	s11,s9
   1b71c:	00c0006f          	j	1b728 <_svfprintf_r+0x710>
   1b720:	ff04041b          	addiw	s0,s0,-16
   1b724:	048dda63          	ble	s0,s11,1b778 <_svfprintf_r+0x760>
   1b728:	01078793          	addi	a5,a5,16
   1b72c:	0017071b          	addiw	a4,a4,1
   1b730:	0098b023          	sd	s1,0(a7)
   1b734:	0198b423          	sd	s9,8(a7)
   1b738:	0cf13023          	sd	a5,192(sp)
   1b73c:	0ae12c23          	sw	a4,184(sp)
   1b740:	01088893          	addi	a7,a7,16
   1b744:	fce85ee3          	ble	a4,a6,1b720 <_svfprintf_r+0x708>
   1b748:	0b010613          	addi	a2,sp,176
   1b74c:	000b8593          	mv	a1,s7
   1b750:	000c0513          	mv	a0,s8
   1b754:	01013023          	sd	a6,0(sp)
   1b758:	191030ef          	jal	1f0e8 <__ssprint_r>
   1b75c:	b4051ee3          	bnez	a0,1b2b8 <_svfprintf_r+0x2a0>
   1b760:	ff04041b          	addiw	s0,s0,-16
   1b764:	0c013783          	ld	a5,192(sp)
   1b768:	0b812703          	lw	a4,184(sp)
   1b76c:	000a8893          	mv	a7,s5
   1b770:	00013803          	ld	a6,0(sp)
   1b774:	fa8dcae3          	blt	s11,s0,1b728 <_svfprintf_r+0x710>
   1b778:	01013683          	ld	a3,16(sp)
   1b77c:	008787b3          	add	a5,a5,s0
   1b780:	0017071b          	addiw	a4,a4,1
   1b784:	00d8b023          	sd	a3,0(a7)
   1b788:	0088b423          	sd	s0,8(a7)
   1b78c:	0cf13023          	sd	a5,192(sp)
   1b790:	0ae12c23          	sw	a4,184(sp)
   1b794:	00700693          	li	a3,7
   1b798:	01088893          	addi	a7,a7,16
   1b79c:	02e6d063          	ble	a4,a3,1b7bc <_svfprintf_r+0x7a4>
   1b7a0:	0b010613          	addi	a2,sp,176
   1b7a4:	000b8593          	mv	a1,s7
   1b7a8:	000c0513          	mv	a0,s8
   1b7ac:	13d030ef          	jal	1f0e8 <__ssprint_r>
   1b7b0:	b00514e3          	bnez	a0,1b2b8 <_svfprintf_r+0x2a0>
   1b7b4:	0c013783          	ld	a5,192(sp)
   1b7b8:	000a8893          	mv	a7,s5
   1b7bc:	100b7713          	andi	a4,s6,256
   1b7c0:	48071463          	bnez	a4,1bc48 <_svfprintf_r+0xc30>
   1b7c4:	02012703          	lw	a4,32(sp)
   1b7c8:	0b812683          	lw	a3,184(sp)
   1b7cc:	0128b023          	sd	s2,0(a7)
   1b7d0:	00e787b3          	add	a5,a5,a4
   1b7d4:	0016869b          	addiw	a3,a3,1
   1b7d8:	00e8b423          	sd	a4,8(a7)
   1b7dc:	0cf13023          	sd	a5,192(sp)
   1b7e0:	0ad12c23          	sw	a3,184(sp)
   1b7e4:	00700713          	li	a4,7
   1b7e8:	44d74063          	blt	a4,a3,1bc28 <_svfprintf_r+0xc10>
   1b7ec:	01088893          	addi	a7,a7,16
   1b7f0:	004b7b13          	andi	s6,s6,4
   1b7f4:	0c0b0263          	beqz	s6,1b8b8 <_svfprintf_r+0x8a0>
   1b7f8:	01812703          	lw	a4,24(sp)
   1b7fc:	00812683          	lw	a3,8(sp)
   1b800:	40d7043b          	subw	s0,a4,a3
   1b804:	0a805a63          	blez	s0,1b8b8 <_svfprintf_r+0x8a0>
   1b808:	01000713          	li	a4,16
   1b80c:	00874463          	blt	a4,s0,1b814 <_svfprintf_r+0x7fc>
   1b810:	02c0106f          	j	1c83c <_svfprintf_r+0x1824>
   1b814:	01000913          	li	s2,16
   1b818:	0b812703          	lw	a4,184(sp)
   1b81c:	05413823          	sd	s4,80(sp)
   1b820:	00700b13          	li	s6,7
   1b824:	00090d13          	mv	s10,s2
   1b828:	00c0006f          	j	1b834 <_svfprintf_r+0x81c>
   1b82c:	ff04041b          	addiw	s0,s0,-16
   1b830:	048d5663          	ble	s0,s10,1b87c <_svfprintf_r+0x864>
   1b834:	01078793          	addi	a5,a5,16
   1b838:	0017071b          	addiw	a4,a4,1
   1b83c:	0148b023          	sd	s4,0(a7)
   1b840:	0128b423          	sd	s2,8(a7)
   1b844:	0cf13023          	sd	a5,192(sp)
   1b848:	0ae12c23          	sw	a4,184(sp)
   1b84c:	01088893          	addi	a7,a7,16
   1b850:	fceb5ee3          	ble	a4,s6,1b82c <_svfprintf_r+0x814>
   1b854:	0b010613          	addi	a2,sp,176
   1b858:	000b8593          	mv	a1,s7
   1b85c:	000c0513          	mv	a0,s8
   1b860:	089030ef          	jal	1f0e8 <__ssprint_r>
   1b864:	a4051ae3          	bnez	a0,1b2b8 <_svfprintf_r+0x2a0>
   1b868:	ff04041b          	addiw	s0,s0,-16
   1b86c:	0c013783          	ld	a5,192(sp)
   1b870:	0b812703          	lw	a4,184(sp)
   1b874:	000a8893          	mv	a7,s5
   1b878:	fa8d4ee3          	blt	s10,s0,1b834 <_svfprintf_r+0x81c>
   1b87c:	05013683          	ld	a3,80(sp)
   1b880:	008787b3          	add	a5,a5,s0
   1b884:	0017071b          	addiw	a4,a4,1
   1b888:	00d8b023          	sd	a3,0(a7)
   1b88c:	0088b423          	sd	s0,8(a7)
   1b890:	0cf13023          	sd	a5,192(sp)
   1b894:	0ae12c23          	sw	a4,184(sp)
   1b898:	00700693          	li	a3,7
   1b89c:	00e6de63          	ble	a4,a3,1b8b8 <_svfprintf_r+0x8a0>
   1b8a0:	0b010613          	addi	a2,sp,176
   1b8a4:	000b8593          	mv	a1,s7
   1b8a8:	000c0513          	mv	a0,s8
   1b8ac:	03d030ef          	jal	1f0e8 <__ssprint_r>
   1b8b0:	a00514e3          	bnez	a0,1b2b8 <_svfprintf_r+0x2a0>
   1b8b4:	0c013783          	ld	a5,192(sp)
   1b8b8:	01812c83          	lw	s9,24(sp)
   1b8bc:	00812703          	lw	a4,8(sp)
   1b8c0:	00ecd463          	ble	a4,s9,1b8c8 <_svfprintf_r+0x8b0>
   1b8c4:	00070c93          	mv	s9,a4
   1b8c8:	01c12703          	lw	a4,28(sp)
   1b8cc:	0197073b          	addw	a4,a4,s9
   1b8d0:	00e12e23          	sw	a4,28(sp)
   1b8d4:	5a079463          	bnez	a5,1be7c <_svfprintf_r+0xe64>
   1b8d8:	0009c783          	lbu	a5,0(s3)
   1b8dc:	0a012c23          	sw	zero,184(sp)
   1b8e0:	000a8893          	mv	a7,s5
   1b8e4:	800794e3          	bnez	a5,1b0ec <_svfprintf_r+0xd4>
   1b8e8:	00098413          	mv	s0,s3
   1b8ec:	865ff06f          	j	1b150 <_svfprintf_r+0x138>
   1b8f0:	00060463          	beqz	a2,1b8f8 <_svfprintf_r+0x8e0>
   1b8f4:	2f00106f          	j	1cbe4 <_svfprintf_r+0x1bcc>
   1b8f8:	010b7793          	andi	a5,s6,16
   1b8fc:	0e078e63          	beqz	a5,1b9f8 <_svfprintf_r+0x9e0>
   1b900:	02813703          	ld	a4,40(sp)
   1b904:	00073783          	ld	a5,0(a4)
   1b908:	00870713          	addi	a4,a4,8
   1b90c:	02e13423          	sd	a4,40(sp)
   1b910:	1007c263          	bltz	a5,1ba14 <_svfprintf_r+0x9fc>
   1b914:	08f14603          	lbu	a2,143(sp)
   1b918:	76044a63          	bltz	s0,1c08c <_svfprintf_r+0x1074>
   1b91c:	f7fb7b13          	andi	s6,s6,-129
   1b920:	bc079ee3          	bnez	a5,1b4fc <_svfprintf_r+0x4e4>
   1b924:	1a041ee3          	bnez	s0,1c2e0 <_svfprintf_r+0x12c8>
   1b928:	00000413          	li	s0,0
   1b92c:	02012023          	sw	zero,32(sp)
   1b930:	000a8913          	mv	s2,s5
   1b934:	925ff06f          	j	1b258 <_svfprintf_r+0x240>
   1b938:	040b6b13          	ori	s6,s6,64
   1b93c:	845ff06f          	j	1b180 <_svfprintf_r+0x168>
   1b940:	001b6b13          	ori	s6,s6,1
   1b944:	83dff06f          	j	1b180 <_svfprintf_r+0x168>
   1b948:	b80604e3          	beqz	a2,1b4d0 <_svfprintf_r+0x4b8>
   1b94c:	08b107a3          	sb	a1,143(sp)
   1b950:	b81ff06f          	j	1b4d0 <_svfprintf_r+0x4b8>
   1b954:	820596e3          	bnez	a1,1b180 <_svfprintf_r+0x168>
   1b958:	00100613          	li	a2,1
   1b95c:	02000593          	li	a1,32
   1b960:	821ff06f          	j	1b180 <_svfprintf_r+0x168>
   1b964:	00060463          	beqz	a2,1b96c <_svfprintf_r+0x954>
   1b968:	2540106f          	j	1cbbc <_svfprintf_r+0x1ba4>
   1b96c:	02813783          	ld	a5,40(sp)
   1b970:	00100913          	li	s2,1
   1b974:	0007b787          	fld	fa5,0(a5)
   1b978:	00878793          	addi	a5,a5,8
   1b97c:	01113023          	sd	a7,0(sp)
   1b980:	04f13c27          	fsd	fa5,88(sp)
   1b984:	05813c83          	ld	s9,88(sp)
   1b988:	02f13423          	sd	a5,40(sp)
   1b98c:	f20c8553          	fmv.d.x	fa0,s9
   1b990:	ce5fd0ef          	jal	19674 <__fpclassifyd>
   1b994:	00013883          	ld	a7,0(sp)
   1b998:	172512e3          	bne	a0,s2,1c2fc <_svfprintf_r+0x12e4>
   1b99c:	f20007d3          	fmv.d.x	fa5,zero
   1b9a0:	f20c8753          	fmv.d.x	fa4,s9
   1b9a4:	a2f717d3          	flt.d	a5,fa4,fa5
   1b9a8:	6a0794e3          	bnez	a5,1c850 <_svfprintf_r+0x1838>
   1b9ac:	08f14603          	lbu	a2,143(sp)
   1b9b0:	04700793          	li	a5,71
   1b9b4:	45a7dee3          	ble	s10,a5,1c610 <_svfprintf_r+0x15f8>
   1b9b8:	00022937          	lui	s2,0x22
   1b9bc:	c8890913          	addi	s2,s2,-888 # 21c88 <zeroes.4123+0x678>
   1b9c0:	00300793          	li	a5,3
   1b9c4:	00f12423          	sw	a5,8(sp)
   1b9c8:	f7fb7b13          	andi	s6,s6,-129
   1b9cc:	02f12023          	sw	a5,32(sp)
   1b9d0:	00000413          	li	s0,0
   1b9d4:	04012623          	sw	zero,76(sp)
   1b9d8:	899ff06f          	j	1b270 <_svfprintf_r+0x258>
   1b9dc:	008b6b13          	ori	s6,s6,8
   1b9e0:	fa0ff06f          	j	1b180 <_svfprintf_r+0x168>
   1b9e4:	00060463          	beqz	a2,1b9ec <_svfprintf_r+0x9d4>
   1b9e8:	21c0106f          	j	1cc04 <_svfprintf_r+0x1bec>
   1b9ec:	010b6b13          	ori	s6,s6,16
   1b9f0:	010b7793          	andi	a5,s6,16
   1b9f4:	f00796e3          	bnez	a5,1b900 <_svfprintf_r+0x8e8>
   1b9f8:	040b7793          	andi	a5,s6,64
   1b9fc:	02813703          	ld	a4,40(sp)
   1ba00:	160782e3          	beqz	a5,1c364 <_svfprintf_r+0x134c>
   1ba04:	00071783          	lh	a5,0(a4)
   1ba08:	00870713          	addi	a4,a4,8
   1ba0c:	02e13423          	sd	a4,40(sp)
   1ba10:	f007d2e3          	bgez	a5,1b914 <_svfprintf_r+0x8fc>
   1ba14:	02d00713          	li	a4,45
   1ba18:	08e107a3          	sb	a4,143(sp)
   1ba1c:	40f007b3          	neg	a5,a5
   1ba20:	5c0440e3          	bltz	s0,1c7e0 <_svfprintf_r+0x17c8>
   1ba24:	f7fb7b13          	andi	s6,s6,-129
   1ba28:	02d00613          	li	a2,45
   1ba2c:	ad1ff06f          	j	1b4fc <_svfprintf_r+0x4e4>
   1ba30:	02813783          	ld	a5,40(sp)
   1ba34:	080107a3          	sb	zero,143(sp)
   1ba38:	0007b903          	ld	s2,0(a5)
   1ba3c:	00878c93          	addi	s9,a5,8
   1ba40:	5c0902e3          	beqz	s2,1c804 <_svfprintf_r+0x17ec>
   1ba44:	01113023          	sd	a7,0(sp)
   1ba48:	54044ae3          	bltz	s0,1c79c <_svfprintf_r+0x1784>
   1ba4c:	00040613          	mv	a2,s0
   1ba50:	00000593          	li	a1,0
   1ba54:	00090513          	mv	a0,s2
   1ba58:	830fc0ef          	jal	17a88 <memchr>
   1ba5c:	00013883          	ld	a7,0(sp)
   1ba60:	660502e3          	beqz	a0,1c8c4 <_svfprintf_r+0x18ac>
   1ba64:	412507bb          	subw	a5,a0,s2
   1ba68:	02f12023          	sw	a5,32(sp)
   1ba6c:	00078d93          	mv	s11,a5
   1ba70:	5407c4e3          	bltz	a5,1c7b8 <_svfprintf_r+0x17a0>
   1ba74:	08f14603          	lbu	a2,143(sp)
   1ba78:	01b12423          	sw	s11,8(sp)
   1ba7c:	03913423          	sd	s9,40(sp)
   1ba80:	00000413          	li	s0,0
   1ba84:	04012623          	sw	zero,76(sp)
   1ba88:	fe8ff06f          	j	1b270 <_svfprintf_r+0x258>
   1ba8c:	00012c23          	sw	zero,24(sp)
   1ba90:	fd0d079b          	addiw	a5,s10,-48
   1ba94:	01812303          	lw	t1,24(sp)
   1ba98:	00198993          	addi	s3,s3,1
   1ba9c:	fff9cd03          	lbu	s10,-1(s3)
   1baa0:	0013181b          	slliw	a6,t1,0x1
   1baa4:	00331c9b          	slliw	s9,t1,0x3
   1baa8:	01980cbb          	addw	s9,a6,s9
   1baac:	019787bb          	addw	a5,a5,s9
   1bab0:	00f12c23          	sw	a5,24(sp)
   1bab4:	fd0d079b          	addiw	a5,s10,-48
   1bab8:	fcf6fee3          	bleu	a5,a3,1ba94 <_svfprintf_r+0xa7c>
   1babc:	eccff06f          	j	1b188 <_svfprintf_r+0x170>
   1bac0:	00022737          	lui	a4,0x22
   1bac4:	cb870713          	addi	a4,a4,-840 # 21cb8 <zeroes.4123+0x6a8>
   1bac8:	00000613          	li	a2,0
   1bacc:	02e13c23          	sd	a4,56(sp)
   1bad0:	07800d13          	li	s10,120
   1bad4:	f58ff06f          	j	1b22c <_svfprintf_r+0x214>
   1bad8:	00060463          	beqz	a2,1bae0 <_svfprintf_r+0xac8>
   1badc:	1100106f          	j	1cbec <_svfprintf_r+0x1bd4>
   1bae0:	fc0d0063          	beqz	s10,1b2a0 <_svfprintf_r+0x288>
   1bae4:	00100793          	li	a5,1
   1bae8:	00f12423          	sw	a5,8(sp)
   1baec:	0da10423          	sb	s10,200(sp)
   1baf0:	080107a3          	sb	zero,143(sp)
   1baf4:	00000613          	li	a2,0
   1baf8:	02f12023          	sw	a5,32(sp)
   1bafc:	00000413          	li	s0,0
   1bb00:	04012623          	sw	zero,76(sp)
   1bb04:	0c810913          	addi	s2,sp,200
   1bb08:	a8dff06f          	j	1b594 <_svfprintf_r+0x57c>
   1bb0c:	02e13423          	sd	a4,40(sp)
   1bb10:	00022737          	lui	a4,0x22
   1bb14:	cb870713          	addi	a4,a4,-840 # 21cb8 <zeroes.4123+0x6a8>
   1bb18:	00068b13          	mv	s6,a3
   1bb1c:	02e13c23          	sd	a4,56(sp)
   1bb20:	07800d13          	li	s10,120
   1bb24:	3c079063          	bnez	a5,1bee4 <_svfprintf_r+0xecc>
   1bb28:	00000613          	li	a2,0
   1bb2c:	00200713          	li	a4,2
   1bb30:	00100693          	li	a3,1
   1bb34:	00000793          	li	a5,0
   1bb38:	4ad71ee3          	bne	a4,a3,1c7f4 <_svfprintf_r+0x17dc>
   1bb3c:	0307879b          	addiw	a5,a5,48
   1bb40:	0ef107a3          	sb	a5,239(sp)
   1bb44:	07813783          	ld	a5,120(sp)
   1bb48:	0ef10913          	addi	s2,sp,239
   1bb4c:	02f12023          	sw	a5,32(sp)
   1bb50:	f08ff06f          	j	1b258 <_svfprintf_r+0x240>
   1bb54:	0c013783          	ld	a5,192(sp)
   1bb58:	b25ff06f          	j	1b67c <_svfprintf_r+0x664>
   1bb5c:	07012683          	lw	a3,112(sp)
   1bb60:	00100713          	li	a4,1
   1bb64:	00178793          	addi	a5,a5,1
   1bb68:	6ed75263          	ble	a3,a4,1c24c <_svfprintf_r+0x1234>
   1bb6c:	0b812703          	lw	a4,184(sp)
   1bb70:	00100693          	li	a3,1
   1bb74:	00d8b423          	sd	a3,8(a7)
   1bb78:	0017071b          	addiw	a4,a4,1
   1bb7c:	0128b023          	sd	s2,0(a7)
   1bb80:	0cf13023          	sd	a5,192(sp)
   1bb84:	0ae12c23          	sw	a4,184(sp)
   1bb88:	00700693          	li	a3,7
   1bb8c:	01088893          	addi	a7,a7,16
   1bb90:	6ee6c663          	blt	a3,a4,1c27c <_svfprintf_r+0x1264>
   1bb94:	06813683          	ld	a3,104(sp)
   1bb98:	06013603          	ld	a2,96(sp)
   1bb9c:	0017071b          	addiw	a4,a4,1
   1bba0:	00f687b3          	add	a5,a3,a5
   1bba4:	00d8b423          	sd	a3,8(a7)
   1bba8:	00c8b023          	sd	a2,0(a7)
   1bbac:	0cf13023          	sd	a5,192(sp)
   1bbb0:	0ae12c23          	sw	a4,184(sp)
   1bbb4:	00700693          	li	a3,7
   1bbb8:	01088893          	addi	a7,a7,16
   1bbbc:	6ee6ce63          	blt	a3,a4,1c2b8 <_svfprintf_r+0x12a0>
   1bbc0:	f20007d3          	fmv.d.x	fa5,zero
   1bbc4:	05813707          	fld	fa4,88(sp)
   1bbc8:	a2f726d3          	feq.d	a3,fa4,fa5
   1bbcc:	42069063          	bnez	a3,1bfec <_svfprintf_r+0xfd4>
   1bbd0:	07012683          	lw	a3,112(sp)
   1bbd4:	00190913          	addi	s2,s2,1
   1bbd8:	0017071b          	addiw	a4,a4,1
   1bbdc:	fff6869b          	addiw	a3,a3,-1
   1bbe0:	00d787b3          	add	a5,a5,a3
   1bbe4:	0128b023          	sd	s2,0(a7)
   1bbe8:	00d8b423          	sd	a3,8(a7)
   1bbec:	0cf13023          	sd	a5,192(sp)
   1bbf0:	0ae12c23          	sw	a4,184(sp)
   1bbf4:	00700693          	li	a3,7
   1bbf8:	26e6c063          	blt	a3,a4,1be58 <_svfprintf_r+0xe40>
   1bbfc:	01088893          	addi	a7,a7,16
   1bc00:	07412683          	lw	a3,116(sp)
   1bc04:	0a010613          	addi	a2,sp,160
   1bc08:	0017071b          	addiw	a4,a4,1
   1bc0c:	00f687b3          	add	a5,a3,a5
   1bc10:	00c8b023          	sd	a2,0(a7)
   1bc14:	00d8b423          	sd	a3,8(a7)
   1bc18:	0cf13023          	sd	a5,192(sp)
   1bc1c:	0ae12c23          	sw	a4,184(sp)
   1bc20:	00700693          	li	a3,7
   1bc24:	bce6d4e3          	ble	a4,a3,1b7ec <_svfprintf_r+0x7d4>
   1bc28:	0b010613          	addi	a2,sp,176
   1bc2c:	000b8593          	mv	a1,s7
   1bc30:	000c0513          	mv	a0,s8
   1bc34:	4b4030ef          	jal	1f0e8 <__ssprint_r>
   1bc38:	e8051063          	bnez	a0,1b2b8 <_svfprintf_r+0x2a0>
   1bc3c:	0c013783          	ld	a5,192(sp)
   1bc40:	000a8893          	mv	a7,s5
   1bc44:	badff06f          	j	1b7f0 <_svfprintf_r+0x7d8>
   1bc48:	06500713          	li	a4,101
   1bc4c:	f1a758e3          	ble	s10,a4,1bb5c <_svfprintf_r+0xb44>
   1bc50:	f20007d3          	fmv.d.x	fa5,zero
   1bc54:	05813707          	fld	fa4,88(sp)
   1bc58:	a2f72753          	feq.d	a4,fa4,fa5
   1bc5c:	28070c63          	beqz	a4,1bef4 <_svfprintf_r+0xedc>
   1bc60:	0b812703          	lw	a4,184(sp)
   1bc64:	000226b7          	lui	a3,0x22
   1bc68:	cd868693          	addi	a3,a3,-808 # 21cd8 <zeroes.4123+0x6c8>
   1bc6c:	00d8b023          	sd	a3,0(a7)
   1bc70:	00178793          	addi	a5,a5,1
   1bc74:	00100693          	li	a3,1
   1bc78:	0017071b          	addiw	a4,a4,1
   1bc7c:	00d8b423          	sd	a3,8(a7)
   1bc80:	0cf13023          	sd	a5,192(sp)
   1bc84:	0ae12c23          	sw	a4,184(sp)
   1bc88:	00700693          	li	a3,7
   1bc8c:	01088893          	addi	a7,a7,16
   1bc90:	70e6c863          	blt	a3,a4,1c3a0 <_svfprintf_r+0x1388>
   1bc94:	09812703          	lw	a4,152(sp)
   1bc98:	07012683          	lw	a3,112(sp)
   1bc9c:	00d74663          	blt	a4,a3,1bca8 <_svfprintf_r+0xc90>
   1bca0:	001b7713          	andi	a4,s6,1
   1bca4:	b40706e3          	beqz	a4,1b7f0 <_svfprintf_r+0x7d8>
   1bca8:	06013703          	ld	a4,96(sp)
   1bcac:	06813683          	ld	a3,104(sp)
   1bcb0:	01088893          	addi	a7,a7,16
   1bcb4:	fee8b823          	sd	a4,-16(a7)
   1bcb8:	0b812703          	lw	a4,184(sp)
   1bcbc:	00d787b3          	add	a5,a5,a3
   1bcc0:	fed8bc23          	sd	a3,-8(a7)
   1bcc4:	0017071b          	addiw	a4,a4,1
   1bcc8:	0cf13023          	sd	a5,192(sp)
   1bccc:	0ae12c23          	sw	a4,184(sp)
   1bcd0:	00700693          	li	a3,7
   1bcd4:	7ee6c663          	blt	a3,a4,1c4c0 <_svfprintf_r+0x14a8>
   1bcd8:	07012703          	lw	a4,112(sp)
   1bcdc:	fff7041b          	addiw	s0,a4,-1
   1bce0:	b08058e3          	blez	s0,1b7f0 <_svfprintf_r+0x7d8>
   1bce4:	01000713          	li	a4,16
   1bce8:	3a875863          	ble	s0,a4,1c098 <_svfprintf_r+0x1080>
   1bcec:	01000913          	li	s2,16
   1bcf0:	0b812703          	lw	a4,184(sp)
   1bcf4:	00913823          	sd	s1,16(sp)
   1bcf8:	00700d13          	li	s10,7
   1bcfc:	00090693          	mv	a3,s2
   1bd00:	00c0006f          	j	1bd0c <_svfprintf_r+0xcf4>
   1bd04:	ff04041b          	addiw	s0,s0,-16
   1bd08:	3886dc63          	ble	s0,a3,1c0a0 <_svfprintf_r+0x1088>
   1bd0c:	01078793          	addi	a5,a5,16
   1bd10:	0017071b          	addiw	a4,a4,1
   1bd14:	0098b023          	sd	s1,0(a7)
   1bd18:	0128b423          	sd	s2,8(a7)
   1bd1c:	0cf13023          	sd	a5,192(sp)
   1bd20:	0ae12c23          	sw	a4,184(sp)
   1bd24:	01088893          	addi	a7,a7,16
   1bd28:	fced5ee3          	ble	a4,s10,1bd04 <_svfprintf_r+0xcec>
   1bd2c:	0b010613          	addi	a2,sp,176
   1bd30:	000b8593          	mv	a1,s7
   1bd34:	000c0513          	mv	a0,s8
   1bd38:	00d13023          	sd	a3,0(sp)
   1bd3c:	3ac030ef          	jal	1f0e8 <__ssprint_r>
   1bd40:	d6051c63          	bnez	a0,1b2b8 <_svfprintf_r+0x2a0>
   1bd44:	0c013783          	ld	a5,192(sp)
   1bd48:	0b812703          	lw	a4,184(sp)
   1bd4c:	000a8893          	mv	a7,s5
   1bd50:	00013683          	ld	a3,0(sp)
   1bd54:	fb1ff06f          	j	1bd04 <_svfprintf_r+0xcec>
   1bd58:	01812703          	lw	a4,24(sp)
   1bd5c:	00812683          	lw	a3,8(sp)
   1bd60:	40d70cbb          	subw	s9,a4,a3
   1bd64:	999058e3          	blez	s9,1b6f4 <_svfprintf_r+0x6dc>
   1bd68:	01000713          	li	a4,16
   1bd6c:	359756e3          	ble	s9,a4,1c8b8 <_svfprintf_r+0x18a0>
   1bd70:	01000813          	li	a6,16
   1bd74:	0b812703          	lw	a4,184(sp)
   1bd78:	00913823          	sd	s1,16(sp)
   1bd7c:	00700313          	li	t1,7
   1bd80:	00080d93          	mv	s11,a6
   1bd84:	00c0006f          	j	1bd90 <_svfprintf_r+0xd78>
   1bd88:	ff0c8c9b          	addiw	s9,s9,-16
   1bd8c:	059dde63          	ble	s9,s11,1bde8 <_svfprintf_r+0xdd0>
   1bd90:	01078793          	addi	a5,a5,16
   1bd94:	0017071b          	addiw	a4,a4,1
   1bd98:	0098b023          	sd	s1,0(a7)
   1bd9c:	0108b423          	sd	a6,8(a7)
   1bda0:	0cf13023          	sd	a5,192(sp)
   1bda4:	0ae12c23          	sw	a4,184(sp)
   1bda8:	01088893          	addi	a7,a7,16
   1bdac:	fce35ee3          	ble	a4,t1,1bd88 <_svfprintf_r+0xd70>
   1bdb0:	0b010613          	addi	a2,sp,176
   1bdb4:	000b8593          	mv	a1,s7
   1bdb8:	000c0513          	mv	a0,s8
   1bdbc:	04613023          	sd	t1,64(sp)
   1bdc0:	01013023          	sd	a6,0(sp)
   1bdc4:	324030ef          	jal	1f0e8 <__ssprint_r>
   1bdc8:	ce051863          	bnez	a0,1b2b8 <_svfprintf_r+0x2a0>
   1bdcc:	ff0c8c9b          	addiw	s9,s9,-16
   1bdd0:	0c013783          	ld	a5,192(sp)
   1bdd4:	0b812703          	lw	a4,184(sp)
   1bdd8:	000a8893          	mv	a7,s5
   1bddc:	04013303          	ld	t1,64(sp)
   1bde0:	00013803          	ld	a6,0(sp)
   1bde4:	fb9dc6e3          	blt	s11,s9,1bd90 <_svfprintf_r+0xd78>
   1bde8:	01013603          	ld	a2,16(sp)
   1bdec:	019787b3          	add	a5,a5,s9
   1bdf0:	0017071b          	addiw	a4,a4,1
   1bdf4:	00c8b023          	sd	a2,0(a7)
   1bdf8:	0198b423          	sd	s9,8(a7)
   1bdfc:	0cf13023          	sd	a5,192(sp)
   1be00:	0ae12c23          	sw	a4,184(sp)
   1be04:	00700693          	li	a3,7
   1be08:	01088893          	addi	a7,a7,16
   1be0c:	8ee6d4e3          	ble	a4,a3,1b6f4 <_svfprintf_r+0x6dc>
   1be10:	0b010613          	addi	a2,sp,176
   1be14:	000b8593          	mv	a1,s7
   1be18:	000c0513          	mv	a0,s8
   1be1c:	2cc030ef          	jal	1f0e8 <__ssprint_r>
   1be20:	c8051c63          	bnez	a0,1b2b8 <_svfprintf_r+0x2a0>
   1be24:	0c013783          	ld	a5,192(sp)
   1be28:	000a8893          	mv	a7,s5
   1be2c:	8c9ff06f          	j	1b6f4 <_svfprintf_r+0x6dc>
   1be30:	00913823          	sd	s1,16(sp)
   1be34:	01013683          	ld	a3,16(sp)
   1be38:	008787b3          	add	a5,a5,s0
   1be3c:	0017071b          	addiw	a4,a4,1
   1be40:	00d8b023          	sd	a3,0(a7)
   1be44:	0088b423          	sd	s0,8(a7)
   1be48:	0cf13023          	sd	a5,192(sp)
   1be4c:	0ae12c23          	sw	a4,184(sp)
   1be50:	00700693          	li	a3,7
   1be54:	dae6d4e3          	ble	a4,a3,1bbfc <_svfprintf_r+0xbe4>
   1be58:	0b010613          	addi	a2,sp,176
   1be5c:	000b8593          	mv	a1,s7
   1be60:	000c0513          	mv	a0,s8
   1be64:	284030ef          	jal	1f0e8 <__ssprint_r>
   1be68:	c4051863          	bnez	a0,1b2b8 <_svfprintf_r+0x2a0>
   1be6c:	0c013783          	ld	a5,192(sp)
   1be70:	0b812703          	lw	a4,184(sp)
   1be74:	000a8893          	mv	a7,s5
   1be78:	d89ff06f          	j	1bc00 <_svfprintf_r+0xbe8>
   1be7c:	0b010613          	addi	a2,sp,176
   1be80:	000b8593          	mv	a1,s7
   1be84:	000c0513          	mv	a0,s8
   1be88:	260030ef          	jal	1f0e8 <__ssprint_r>
   1be8c:	a40506e3          	beqz	a0,1b8d8 <_svfprintf_r+0x8c0>
   1be90:	c28ff06f          	j	1b2b8 <_svfprintf_r+0x2a0>
   1be94:	0b010613          	addi	a2,sp,176
   1be98:	000b8593          	mv	a1,s7
   1be9c:	000c0513          	mv	a0,s8
   1bea0:	248030ef          	jal	1f0e8 <__ssprint_r>
   1bea4:	c0051a63          	bnez	a0,1b2b8 <_svfprintf_r+0x2a0>
   1bea8:	0c013783          	ld	a5,192(sp)
   1beac:	000a8893          	mv	a7,s5
   1beb0:	801ff06f          	j	1b6b0 <_svfprintf_r+0x698>
   1beb4:	0b010613          	addi	a2,sp,176
   1beb8:	000b8593          	mv	a1,s7
   1bebc:	000c0513          	mv	a0,s8
   1bec0:	228030ef          	jal	1f0e8 <__ssprint_r>
   1bec4:	be051a63          	bnez	a0,1b2b8 <_svfprintf_r+0x2a0>
   1bec8:	0c013783          	ld	a5,192(sp)
   1becc:	000a8893          	mv	a7,s5
   1bed0:	819ff06f          	j	1b6e8 <_svfprintf_r+0x6d0>
   1bed4:	080107a3          	sb	zero,143(sp)
   1bed8:	c40446e3          	bltz	s0,1bb24 <_svfprintf_r+0xb0c>
   1bedc:	f7fb7b13          	andi	s6,s6,-129
   1bee0:	b4078063          	beqz	a5,1b220 <_svfprintf_r+0x208>
   1bee4:	00000613          	li	a2,0
   1bee8:	b44ff06f          	j	1b22c <_svfprintf_r+0x214>
   1beec:	00000613          	li	a2,0
   1bef0:	c68ff06f          	j	1b358 <_svfprintf_r+0x340>
   1bef4:	09812403          	lw	s0,152(sp)
   1bef8:	4c805663          	blez	s0,1c3c4 <_svfprintf_r+0x13ac>
   1befc:	04c12703          	lw	a4,76(sp)
   1bf00:	07012683          	lw	a3,112(sp)
   1bf04:	00070413          	mv	s0,a4
   1bf08:	00e6d463          	ble	a4,a3,1bf10 <_svfprintf_r+0xef8>
   1bf0c:	00068413          	mv	s0,a3
   1bf10:	02805663          	blez	s0,1bf3c <_svfprintf_r+0xf24>
   1bf14:	0b812703          	lw	a4,184(sp)
   1bf18:	008787b3          	add	a5,a5,s0
   1bf1c:	0128b023          	sd	s2,0(a7)
   1bf20:	0017071b          	addiw	a4,a4,1
   1bf24:	0088b423          	sd	s0,8(a7)
   1bf28:	0cf13023          	sd	a5,192(sp)
   1bf2c:	0ae12c23          	sw	a4,184(sp)
   1bf30:	00700693          	li	a3,7
   1bf34:	01088893          	addi	a7,a7,16
   1bf38:	6ee6c263          	blt	a3,a4,1c61c <_svfprintf_r+0x1604>
   1bf3c:	08044ee3          	bltz	s0,1c7d8 <_svfprintf_r+0x17c0>
   1bf40:	04c12703          	lw	a4,76(sp)
   1bf44:	4087043b          	subw	s0,a4,s0
   1bf48:	1c805663          	blez	s0,1c114 <_svfprintf_r+0x10fc>
   1bf4c:	01000713          	li	a4,16
   1bf50:	16875c63          	ble	s0,a4,1c0c8 <_svfprintf_r+0x10b0>
   1bf54:	01000d13          	li	s10,16
   1bf58:	0b812703          	lw	a4,184(sp)
   1bf5c:	00913823          	sd	s1,16(sp)
   1bf60:	00700693          	li	a3,7
   1bf64:	000d0813          	mv	a6,s10
   1bf68:	00c0006f          	j	1bf74 <_svfprintf_r+0xf5c>
   1bf6c:	ff04041b          	addiw	s0,s0,-16
   1bf70:	16885063          	ble	s0,a6,1c0d0 <_svfprintf_r+0x10b8>
   1bf74:	01078793          	addi	a5,a5,16
   1bf78:	0017071b          	addiw	a4,a4,1
   1bf7c:	0098b023          	sd	s1,0(a7)
   1bf80:	01a8b423          	sd	s10,8(a7)
   1bf84:	0cf13023          	sd	a5,192(sp)
   1bf88:	0ae12c23          	sw	a4,184(sp)
   1bf8c:	01088893          	addi	a7,a7,16
   1bf90:	fce6dee3          	ble	a4,a3,1bf6c <_svfprintf_r+0xf54>
   1bf94:	0b010613          	addi	a2,sp,176
   1bf98:	000b8593          	mv	a1,s7
   1bf9c:	000c0513          	mv	a0,s8
   1bfa0:	03013023          	sd	a6,32(sp)
   1bfa4:	00d13023          	sd	a3,0(sp)
   1bfa8:	140030ef          	jal	1f0e8 <__ssprint_r>
   1bfac:	b0051663          	bnez	a0,1b2b8 <_svfprintf_r+0x2a0>
   1bfb0:	0c013783          	ld	a5,192(sp)
   1bfb4:	0b812703          	lw	a4,184(sp)
   1bfb8:	000a8893          	mv	a7,s5
   1bfbc:	02013803          	ld	a6,32(sp)
   1bfc0:	00013683          	ld	a3,0(sp)
   1bfc4:	fa9ff06f          	j	1bf6c <_svfprintf_r+0xf54>
   1bfc8:	0b010613          	addi	a2,sp,176
   1bfcc:	000b8593          	mv	a1,s7
   1bfd0:	000c0513          	mv	a0,s8
   1bfd4:	114030ef          	jal	1f0e8 <__ssprint_r>
   1bfd8:	ae051063          	bnez	a0,1b2b8 <_svfprintf_r+0x2a0>
   1bfdc:	08f14603          	lbu	a2,143(sp)
   1bfe0:	0c013783          	ld	a5,192(sp)
   1bfe4:	000a8893          	mv	a7,s5
   1bfe8:	e94ff06f          	j	1b67c <_svfprintf_r+0x664>
   1bfec:	07012683          	lw	a3,112(sp)
   1bff0:	fff6841b          	addiw	s0,a3,-1
   1bff4:	c08056e3          	blez	s0,1bc00 <_svfprintf_r+0xbe8>
   1bff8:	01000693          	li	a3,16
   1bffc:	e286dae3          	ble	s0,a3,1be30 <_svfprintf_r+0xe18>
   1c000:	01000913          	li	s2,16
   1c004:	00913823          	sd	s1,16(sp)
   1c008:	00700d13          	li	s10,7
   1c00c:	00090693          	mv	a3,s2
   1c010:	00c0006f          	j	1c01c <_svfprintf_r+0x1004>
   1c014:	ff04041b          	addiw	s0,s0,-16
   1c018:	e086dee3          	ble	s0,a3,1be34 <_svfprintf_r+0xe1c>
   1c01c:	01078793          	addi	a5,a5,16
   1c020:	0017071b          	addiw	a4,a4,1
   1c024:	0098b023          	sd	s1,0(a7)
   1c028:	0128b423          	sd	s2,8(a7)
   1c02c:	0cf13023          	sd	a5,192(sp)
   1c030:	0ae12c23          	sw	a4,184(sp)
   1c034:	01088893          	addi	a7,a7,16
   1c038:	fced5ee3          	ble	a4,s10,1c014 <_svfprintf_r+0xffc>
   1c03c:	0b010613          	addi	a2,sp,176
   1c040:	000b8593          	mv	a1,s7
   1c044:	000c0513          	mv	a0,s8
   1c048:	00d13023          	sd	a3,0(sp)
   1c04c:	09c030ef          	jal	1f0e8 <__ssprint_r>
   1c050:	a6051463          	bnez	a0,1b2b8 <_svfprintf_r+0x2a0>
   1c054:	0c013783          	ld	a5,192(sp)
   1c058:	0b812703          	lw	a4,184(sp)
   1c05c:	000a8893          	mv	a7,s5
   1c060:	00013683          	ld	a3,0(sp)
   1c064:	fb1ff06f          	j	1c014 <_svfprintf_r+0xffc>
   1c068:	040b7793          	andi	a5,s6,64
   1c06c:	080107a3          	sb	zero,143(sp)
   1c070:	1e078c63          	beqz	a5,1c268 <_svfprintf_r+0x1250>
   1c074:	02813783          	ld	a5,40(sp)
   1c078:	00878713          	addi	a4,a5,8
   1c07c:	0007d783          	lhu	a5,0(a5)
   1c080:	c6045663          	bgez	s0,1b4ec <_svfprintf_r+0x4d4>
   1c084:	02e13423          	sd	a4,40(sp)
   1c088:	00000613          	li	a2,0
   1c08c:	00100713          	li	a4,1
   1c090:	aa0780e3          	beqz	a5,1bb30 <_svfprintf_r+0xb18>
   1c094:	c68ff06f          	j	1b4fc <_svfprintf_r+0x4e4>
   1c098:	0b812703          	lw	a4,184(sp)
   1c09c:	00913823          	sd	s1,16(sp)
   1c0a0:	01013683          	ld	a3,16(sp)
   1c0a4:	008787b3          	add	a5,a5,s0
   1c0a8:	0088b423          	sd	s0,8(a7)
   1c0ac:	00d8b023          	sd	a3,0(a7)
   1c0b0:	0017071b          	addiw	a4,a4,1
   1c0b4:	0cf13023          	sd	a5,192(sp)
   1c0b8:	0ae12c23          	sw	a4,184(sp)
   1c0bc:	00700693          	li	a3,7
   1c0c0:	f2e6d663          	ble	a4,a3,1b7ec <_svfprintf_r+0x7d4>
   1c0c4:	b65ff06f          	j	1bc28 <_svfprintf_r+0xc10>
   1c0c8:	0b812703          	lw	a4,184(sp)
   1c0cc:	00913823          	sd	s1,16(sp)
   1c0d0:	01013683          	ld	a3,16(sp)
   1c0d4:	008787b3          	add	a5,a5,s0
   1c0d8:	0017071b          	addiw	a4,a4,1
   1c0dc:	00d8b023          	sd	a3,0(a7)
   1c0e0:	0088b423          	sd	s0,8(a7)
   1c0e4:	0cf13023          	sd	a5,192(sp)
   1c0e8:	0ae12c23          	sw	a4,184(sp)
   1c0ec:	00700693          	li	a3,7
   1c0f0:	01088893          	addi	a7,a7,16
   1c0f4:	02e6d063          	ble	a4,a3,1c114 <_svfprintf_r+0x10fc>
   1c0f8:	0b010613          	addi	a2,sp,176
   1c0fc:	000b8593          	mv	a1,s7
   1c100:	000c0513          	mv	a0,s8
   1c104:	7e5020ef          	jal	1f0e8 <__ssprint_r>
   1c108:	9a051863          	bnez	a0,1b2b8 <_svfprintf_r+0x2a0>
   1c10c:	0c013783          	ld	a5,192(sp)
   1c110:	000a8893          	mv	a7,s5
   1c114:	04c12d03          	lw	s10,76(sp)
   1c118:	09812703          	lw	a4,152(sp)
   1c11c:	07012683          	lw	a3,112(sp)
   1c120:	01a90d33          	add	s10,s2,s10
   1c124:	0cd74a63          	blt	a4,a3,1c1f8 <_svfprintf_r+0x11e0>
   1c128:	001b7693          	andi	a3,s6,1
   1c12c:	0c069663          	bnez	a3,1c1f8 <_svfprintf_r+0x11e0>
   1c130:	07012683          	lw	a3,112(sp)
   1c134:	00d90433          	add	s0,s2,a3
   1c138:	41a40433          	sub	s0,s0,s10
   1c13c:	40e6873b          	subw	a4,a3,a4
   1c140:	0004041b          	sext.w	s0,s0
   1c144:	00875463          	ble	s0,a4,1c14c <_svfprintf_r+0x1134>
   1c148:	00070413          	mv	s0,a4
   1c14c:	02805663          	blez	s0,1c178 <_svfprintf_r+0x1160>
   1c150:	0b812683          	lw	a3,184(sp)
   1c154:	008787b3          	add	a5,a5,s0
   1c158:	01a8b023          	sd	s10,0(a7)
   1c15c:	0016869b          	addiw	a3,a3,1
   1c160:	0088b423          	sd	s0,8(a7)
   1c164:	0cf13023          	sd	a5,192(sp)
   1c168:	0ad12c23          	sw	a3,184(sp)
   1c16c:	00700613          	li	a2,7
   1c170:	01088893          	addi	a7,a7,16
   1c174:	4ed64863          	blt	a2,a3,1c664 <_svfprintf_r+0x164c>
   1c178:	6c044863          	bltz	s0,1c848 <_svfprintf_r+0x1830>
   1c17c:	4087043b          	subw	s0,a4,s0
   1c180:	e6805863          	blez	s0,1b7f0 <_svfprintf_r+0x7d8>
   1c184:	01000713          	li	a4,16
   1c188:	f08758e3          	ble	s0,a4,1c098 <_svfprintf_r+0x1080>
   1c18c:	01000913          	li	s2,16
   1c190:	0b812703          	lw	a4,184(sp)
   1c194:	00913823          	sd	s1,16(sp)
   1c198:	00700d13          	li	s10,7
   1c19c:	00090693          	mv	a3,s2
   1c1a0:	00c0006f          	j	1c1ac <_svfprintf_r+0x1194>
   1c1a4:	ff04041b          	addiw	s0,s0,-16
   1c1a8:	ee86dce3          	ble	s0,a3,1c0a0 <_svfprintf_r+0x1088>
   1c1ac:	01078793          	addi	a5,a5,16
   1c1b0:	0017071b          	addiw	a4,a4,1
   1c1b4:	0098b023          	sd	s1,0(a7)
   1c1b8:	0128b423          	sd	s2,8(a7)
   1c1bc:	0cf13023          	sd	a5,192(sp)
   1c1c0:	0ae12c23          	sw	a4,184(sp)
   1c1c4:	01088893          	addi	a7,a7,16
   1c1c8:	fced5ee3          	ble	a4,s10,1c1a4 <_svfprintf_r+0x118c>
   1c1cc:	0b010613          	addi	a2,sp,176
   1c1d0:	000b8593          	mv	a1,s7
   1c1d4:	000c0513          	mv	a0,s8
   1c1d8:	00d13023          	sd	a3,0(sp)
   1c1dc:	70d020ef          	jal	1f0e8 <__ssprint_r>
   1c1e0:	8c051c63          	bnez	a0,1b2b8 <_svfprintf_r+0x2a0>
   1c1e4:	0c013783          	ld	a5,192(sp)
   1c1e8:	0b812703          	lw	a4,184(sp)
   1c1ec:	000a8893          	mv	a7,s5
   1c1f0:	00013683          	ld	a3,0(sp)
   1c1f4:	fb1ff06f          	j	1c1a4 <_svfprintf_r+0x118c>
   1c1f8:	06013683          	ld	a3,96(sp)
   1c1fc:	06813603          	ld	a2,104(sp)
   1c200:	01088893          	addi	a7,a7,16
   1c204:	fed8b823          	sd	a3,-16(a7)
   1c208:	0b812683          	lw	a3,184(sp)
   1c20c:	00c787b3          	add	a5,a5,a2
   1c210:	fec8bc23          	sd	a2,-8(a7)
   1c214:	0016869b          	addiw	a3,a3,1
   1c218:	0cf13023          	sd	a5,192(sp)
   1c21c:	0ad12c23          	sw	a3,184(sp)
   1c220:	00700613          	li	a2,7
   1c224:	f0d656e3          	ble	a3,a2,1c130 <_svfprintf_r+0x1118>
   1c228:	0b010613          	addi	a2,sp,176
   1c22c:	000b8593          	mv	a1,s7
   1c230:	000c0513          	mv	a0,s8
   1c234:	6b5020ef          	jal	1f0e8 <__ssprint_r>
   1c238:	88051063          	bnez	a0,1b2b8 <_svfprintf_r+0x2a0>
   1c23c:	09812703          	lw	a4,152(sp)
   1c240:	0c013783          	ld	a5,192(sp)
   1c244:	000a8893          	mv	a7,s5
   1c248:	ee9ff06f          	j	1c130 <_svfprintf_r+0x1118>
   1c24c:	00eb7733          	and	a4,s6,a4
   1c250:	90071ee3          	bnez	a4,1bb6c <_svfprintf_r+0xb54>
   1c254:	0b812703          	lw	a4,184(sp)
   1c258:	0128b023          	sd	s2,0(a7)
   1c25c:	00100693          	li	a3,1
   1c260:	0017071b          	addiw	a4,a4,1
   1c264:	985ff06f          	j	1bbe8 <_svfprintf_r+0xbd0>
   1c268:	02813783          	ld	a5,40(sp)
   1c26c:	00878713          	addi	a4,a5,8
   1c270:	0007e783          	lwu	a5,0(a5)
   1c274:	a6045c63          	bgez	s0,1b4ec <_svfprintf_r+0x4d4>
   1c278:	e0dff06f          	j	1c084 <_svfprintf_r+0x106c>
   1c27c:	0b010613          	addi	a2,sp,176
   1c280:	000b8593          	mv	a1,s7
   1c284:	000c0513          	mv	a0,s8
   1c288:	661020ef          	jal	1f0e8 <__ssprint_r>
   1c28c:	00050463          	beqz	a0,1c294 <_svfprintf_r+0x127c>
   1c290:	828ff06f          	j	1b2b8 <_svfprintf_r+0x2a0>
   1c294:	0c013783          	ld	a5,192(sp)
   1c298:	0b812703          	lw	a4,184(sp)
   1c29c:	000a8893          	mv	a7,s5
   1c2a0:	8f5ff06f          	j	1bb94 <_svfprintf_r+0xb7c>
   1c2a4:	02813783          	ld	a5,40(sp)
   1c2a8:	00878713          	addi	a4,a5,8
   1c2ac:	0007e783          	lwu	a5,0(a5)
   1c2b0:	88045663          	bgez	s0,1b33c <_svfprintf_r+0x324>
   1c2b4:	9fcff06f          	j	1b4b0 <_svfprintf_r+0x498>
   1c2b8:	0b010613          	addi	a2,sp,176
   1c2bc:	000b8593          	mv	a1,s7
   1c2c0:	000c0513          	mv	a0,s8
   1c2c4:	625020ef          	jal	1f0e8 <__ssprint_r>
   1c2c8:	00050463          	beqz	a0,1c2d0 <_svfprintf_r+0x12b8>
   1c2cc:	fedfe06f          	j	1b2b8 <_svfprintf_r+0x2a0>
   1c2d0:	0c013783          	ld	a5,192(sp)
   1c2d4:	0b812703          	lw	a4,184(sp)
   1c2d8:	000a8893          	mv	a7,s5
   1c2dc:	8e5ff06f          	j	1bbc0 <_svfprintf_r+0xba8>
   1c2e0:	00000793          	li	a5,0
   1c2e4:	0307879b          	addiw	a5,a5,48
   1c2e8:	0ef107a3          	sb	a5,239(sp)
   1c2ec:	07813783          	ld	a5,120(sp)
   1c2f0:	0ef10913          	addi	s2,sp,239
   1c2f4:	02f12023          	sw	a5,32(sp)
   1c2f8:	f61fe06f          	j	1b258 <_svfprintf_r+0x240>
   1c2fc:	05813507          	fld	fa0,88(sp)
   1c300:	01113023          	sd	a7,0(sp)
   1c304:	b70fd0ef          	jal	19674 <__fpclassifyd>
   1c308:	00013883          	ld	a7,0(sp)
   1c30c:	1c051c63          	bnez	a0,1c4e4 <_svfprintf_r+0x14cc>
   1c310:	04700793          	li	a5,71
   1c314:	39a7d063          	ble	s10,a5,1c694 <_svfprintf_r+0x167c>
   1c318:	00022937          	lui	s2,0x22
   1c31c:	c9890913          	addi	s2,s2,-872 # 21c98 <zeroes.4123+0x688>
   1c320:	00300793          	li	a5,3
   1c324:	00f12423          	sw	a5,8(sp)
   1c328:	f7fb7b13          	andi	s6,s6,-129
   1c32c:	08f14603          	lbu	a2,143(sp)
   1c330:	02f12023          	sw	a5,32(sp)
   1c334:	00000413          	li	s0,0
   1c338:	04012623          	sw	zero,76(sp)
   1c33c:	f35fe06f          	j	1b270 <_svfprintf_r+0x258>
   1c340:	02813703          	ld	a4,40(sp)
   1c344:	040b7b13          	andi	s6,s6,64
   1c348:	00073783          	ld	a5,0(a4)
   1c34c:	00870713          	addi	a4,a4,8
   1c350:	02e13423          	sd	a4,40(sp)
   1c354:	420b0e63          	beqz	s6,1c790 <_svfprintf_r+0x1778>
   1c358:	01c15703          	lhu	a4,28(sp)
   1c35c:	00e79023          	sh	a4,0(a5)
   1c360:	d85fe06f          	j	1b0e4 <_svfprintf_r+0xcc>
   1c364:	00072783          	lw	a5,0(a4)
   1c368:	00870713          	addi	a4,a4,8
   1c36c:	02e13423          	sd	a4,40(sp)
   1c370:	da0ff06f          	j	1b910 <_svfprintf_r+0x8f8>
   1c374:	00076783          	lwu	a5,0(a4)
   1c378:	00870713          	addi	a4,a4,8
   1c37c:	02e13423          	sd	a4,40(sp)
   1c380:	848ff06f          	j	1b3c8 <_svfprintf_r+0x3b0>
   1c384:	080107a3          	sb	zero,143(sp)
   1c388:	fa044063          	bltz	s0,1bb28 <_svfprintf_r+0xb10>
   1c38c:	f7fb7b13          	andi	s6,s6,-129
   1c390:	e91fe06f          	j	1b220 <_svfprintf_r+0x208>
   1c394:	0b812703          	lw	a4,184(sp)
   1c398:	00913823          	sd	s1,16(sp)
   1c39c:	bdcff06f          	j	1b778 <_svfprintf_r+0x760>
   1c3a0:	0b010613          	addi	a2,sp,176
   1c3a4:	000b8593          	mv	a1,s7
   1c3a8:	000c0513          	mv	a0,s8
   1c3ac:	53d020ef          	jal	1f0e8 <__ssprint_r>
   1c3b0:	00050463          	beqz	a0,1c3b8 <_svfprintf_r+0x13a0>
   1c3b4:	f05fe06f          	j	1b2b8 <_svfprintf_r+0x2a0>
   1c3b8:	0c013783          	ld	a5,192(sp)
   1c3bc:	000a8893          	mv	a7,s5
   1c3c0:	8d5ff06f          	j	1bc94 <_svfprintf_r+0xc7c>
   1c3c4:	0b812703          	lw	a4,184(sp)
   1c3c8:	000226b7          	lui	a3,0x22
   1c3cc:	cd868693          	addi	a3,a3,-808 # 21cd8 <zeroes.4123+0x6c8>
   1c3d0:	00d8b023          	sd	a3,0(a7)
   1c3d4:	00178793          	addi	a5,a5,1
   1c3d8:	00100693          	li	a3,1
   1c3dc:	0017071b          	addiw	a4,a4,1
   1c3e0:	00d8b423          	sd	a3,8(a7)
   1c3e4:	0cf13023          	sd	a5,192(sp)
   1c3e8:	0ae12c23          	sw	a4,184(sp)
   1c3ec:	00700693          	li	a3,7
   1c3f0:	01088893          	addi	a7,a7,16
   1c3f4:	2ae6c663          	blt	a3,a4,1c6a0 <_svfprintf_r+0x1688>
   1c3f8:	00041a63          	bnez	s0,1c40c <_svfprintf_r+0x13f4>
   1c3fc:	07012703          	lw	a4,112(sp)
   1c400:	00071663          	bnez	a4,1c40c <_svfprintf_r+0x13f4>
   1c404:	001b7713          	andi	a4,s6,1
   1c408:	be070463          	beqz	a4,1b7f0 <_svfprintf_r+0x7d8>
   1c40c:	06013703          	ld	a4,96(sp)
   1c410:	06813683          	ld	a3,104(sp)
   1c414:	01088893          	addi	a7,a7,16
   1c418:	fee8b823          	sd	a4,-16(a7)
   1c41c:	0b812703          	lw	a4,184(sp)
   1c420:	00f687b3          	add	a5,a3,a5
   1c424:	fed8bc23          	sd	a3,-8(a7)
   1c428:	0017071b          	addiw	a4,a4,1
   1c42c:	0cf13023          	sd	a5,192(sp)
   1c430:	0ae12c23          	sw	a4,184(sp)
   1c434:	00700693          	li	a3,7
   1c438:	30e6cc63          	blt	a3,a4,1c750 <_svfprintf_r+0x1738>
   1c43c:	4080043b          	negw	s0,s0
   1c440:	2e805e63          	blez	s0,1c73c <_svfprintf_r+0x1724>
   1c444:	01000693          	li	a3,16
   1c448:	2a86d263          	ble	s0,a3,1c6ec <_svfprintf_r+0x16d4>
   1c44c:	01000d13          	li	s10,16
   1c450:	00913823          	sd	s1,16(sp)
   1c454:	00700813          	li	a6,7
   1c458:	000d0693          	mv	a3,s10
   1c45c:	00c0006f          	j	1c468 <_svfprintf_r+0x1450>
   1c460:	ff04041b          	addiw	s0,s0,-16
   1c464:	2886d663          	ble	s0,a3,1c6f0 <_svfprintf_r+0x16d8>
   1c468:	01078793          	addi	a5,a5,16
   1c46c:	0017071b          	addiw	a4,a4,1
   1c470:	0098b023          	sd	s1,0(a7)
   1c474:	01a8b423          	sd	s10,8(a7)
   1c478:	0cf13023          	sd	a5,192(sp)
   1c47c:	0ae12c23          	sw	a4,184(sp)
   1c480:	01088893          	addi	a7,a7,16
   1c484:	fce85ee3          	ble	a4,a6,1c460 <_svfprintf_r+0x1448>
   1c488:	0b010613          	addi	a2,sp,176
   1c48c:	000b8593          	mv	a1,s7
   1c490:	000c0513          	mv	a0,s8
   1c494:	02d13023          	sd	a3,32(sp)
   1c498:	01013023          	sd	a6,0(sp)
   1c49c:	44d020ef          	jal	1f0e8 <__ssprint_r>
   1c4a0:	00050463          	beqz	a0,1c4a8 <_svfprintf_r+0x1490>
   1c4a4:	e15fe06f          	j	1b2b8 <_svfprintf_r+0x2a0>
   1c4a8:	0c013783          	ld	a5,192(sp)
   1c4ac:	0b812703          	lw	a4,184(sp)
   1c4b0:	000a8893          	mv	a7,s5
   1c4b4:	02013683          	ld	a3,32(sp)
   1c4b8:	00013803          	ld	a6,0(sp)
   1c4bc:	fa5ff06f          	j	1c460 <_svfprintf_r+0x1448>
   1c4c0:	0b010613          	addi	a2,sp,176
   1c4c4:	000b8593          	mv	a1,s7
   1c4c8:	000c0513          	mv	a0,s8
   1c4cc:	41d020ef          	jal	1f0e8 <__ssprint_r>
   1c4d0:	00050463          	beqz	a0,1c4d8 <_svfprintf_r+0x14c0>
   1c4d4:	de5fe06f          	j	1b2b8 <_svfprintf_r+0x2a0>
   1c4d8:	0c013783          	ld	a5,192(sp)
   1c4dc:	000a8893          	mv	a7,s5
   1c4e0:	ff8ff06f          	j	1bcd8 <_svfprintf_r+0xcc0>
   1c4e4:	fff00793          	li	a5,-1
   1c4e8:	fdfd7d93          	andi	s11,s10,-33
   1c4ec:	28f40863          	beq	s0,a5,1c77c <_svfprintf_r+0x1764>
   1c4f0:	04700793          	li	a5,71
   1c4f4:	44fd8e63          	beq	s11,a5,1c950 <_svfprintf_r+0x1938>
   1c4f8:	05813703          	ld	a4,88(sp)
   1c4fc:	100b6693          	ori	a3,s6,256
   1c500:	00d12023          	sw	a3,0(sp)
   1c504:	42075793          	srai	a5,a4,0x20
   1c508:	f2070453          	fmv.d.x	fs0,a4
   1c50c:	00000c93          	li	s9,0
   1c510:	4407c663          	bltz	a5,1c95c <_svfprintf_r+0x1944>
   1c514:	06600793          	li	a5,102
   1c518:	48fd0863          	beq	s10,a5,1c9a8 <_svfprintf_r+0x1990>
   1c51c:	04600793          	li	a5,70
   1c520:	4cfd0c63          	beq	s10,a5,1c9f8 <_svfprintf_r+0x19e0>
   1c524:	fbbd859b          	addiw	a1,s11,-69
   1c528:	0015b593          	seqz	a1,a1
   1c52c:	228405d3          	fmv.d	fa1,fs0
   1c530:	00b405bb          	addw	a1,s0,a1
   1c534:	09c10793          	addi	a5,sp,156
   1c538:	00058693          	mv	a3,a1
   1c53c:	0a810813          	addi	a6,sp,168
   1c540:	09810713          	addi	a4,sp,152
   1c544:	00200613          	li	a2,2
   1c548:	000c0513          	mv	a0,s8
   1c54c:	01113823          	sd	a7,16(sp)
   1c550:	00b13423          	sd	a1,8(sp)
   1c554:	c29f80ef          	jal	1517c <_dtoa_r>
   1c558:	06700793          	li	a5,103
   1c55c:	00050913          	mv	s2,a0
   1c560:	00813583          	ld	a1,8(sp)
   1c564:	01013883          	ld	a7,16(sp)
   1c568:	2efd0c63          	beq	s10,a5,1c860 <_svfprintf_r+0x1848>
   1c56c:	04700793          	li	a5,71
   1c570:	00b50733          	add	a4,a0,a1
   1c574:	60fd0663          	beq	s10,a5,1cb80 <_svfprintf_r+0x1b68>
   1c578:	f20007d3          	fmv.d.x	fa5,zero
   1c57c:	00070793          	mv	a5,a4
   1c580:	a2f426d3          	feq.d	a3,fs0,fa5
   1c584:	02069263          	bnez	a3,1c5a8 <_svfprintf_r+0x1590>
   1c588:	0a813783          	ld	a5,168(sp)
   1c58c:	00e7fe63          	bleu	a4,a5,1c5a8 <_svfprintf_r+0x1590>
   1c590:	03000613          	li	a2,48
   1c594:	00178693          	addi	a3,a5,1
   1c598:	0ad13423          	sd	a3,168(sp)
   1c59c:	00c78023          	sb	a2,0(a5)
   1c5a0:	0a813783          	ld	a5,168(sp)
   1c5a4:	fee7e8e3          	bltu	a5,a4,1c594 <_svfprintf_r+0x157c>
   1c5a8:	412787b3          	sub	a5,a5,s2
   1c5ac:	06f12823          	sw	a5,112(sp)
   1c5b0:	04700793          	li	a5,71
   1c5b4:	2efd8663          	beq	s11,a5,1c8a0 <_svfprintf_r+0x1888>
   1c5b8:	06500793          	li	a5,101
   1c5bc:	5da7de63          	ble	s10,a5,1cb98 <_svfprintf_r+0x1b80>
   1c5c0:	06600793          	li	a5,102
   1c5c4:	46fd0a63          	beq	s10,a5,1ca38 <_svfprintf_r+0x1a20>
   1c5c8:	09812783          	lw	a5,152(sp)
   1c5cc:	04f12623          	sw	a5,76(sp)
   1c5d0:	04c12703          	lw	a4,76(sp)
   1c5d4:	07012683          	lw	a3,112(sp)
   1c5d8:	00070793          	mv	a5,a4
   1c5dc:	38d74663          	blt	a4,a3,1c968 <_svfprintf_r+0x1950>
   1c5e0:	001b7b13          	andi	s6,s6,1
   1c5e4:	3a0b1463          	bnez	s6,1c98c <_svfprintf_r+0x1974>
   1c5e8:	60074a63          	bltz	a4,1cbfc <_svfprintf_r+0x1be4>
   1c5ec:	04c12703          	lw	a4,76(sp)
   1c5f0:	06700d13          	li	s10,103
   1c5f4:	02e12023          	sw	a4,32(sp)
   1c5f8:	280c9663          	bnez	s9,1c884 <_svfprintf_r+0x186c>
   1c5fc:	08f14603          	lbu	a2,143(sp)
   1c600:	00f12423          	sw	a5,8(sp)
   1c604:	00012b03          	lw	s6,0(sp)
   1c608:	00000413          	li	s0,0
   1c60c:	c65fe06f          	j	1b270 <_svfprintf_r+0x258>
   1c610:	00022937          	lui	s2,0x22
   1c614:	c8090913          	addi	s2,s2,-896 # 21c80 <zeroes.4123+0x670>
   1c618:	ba8ff06f          	j	1b9c0 <_svfprintf_r+0x9a8>
   1c61c:	0b010613          	addi	a2,sp,176
   1c620:	000b8593          	mv	a1,s7
   1c624:	000c0513          	mv	a0,s8
   1c628:	2c1020ef          	jal	1f0e8 <__ssprint_r>
   1c62c:	00050463          	beqz	a0,1c634 <_svfprintf_r+0x161c>
   1c630:	c89fe06f          	j	1b2b8 <_svfprintf_r+0x2a0>
   1c634:	0c013783          	ld	a5,192(sp)
   1c638:	000a8893          	mv	a7,s5
   1c63c:	901ff06f          	j	1bf3c <_svfprintf_r+0xf24>
   1c640:	04000593          	li	a1,64
   1c644:	000c0513          	mv	a0,s8
   1c648:	ec4f40ef          	jal	10d0c <_malloc_r>
   1c64c:	00abb023          	sd	a0,0(s7)
   1c650:	00abbc23          	sd	a0,24(s7)
   1c654:	58050063          	beqz	a0,1cbd4 <_svfprintf_r+0x1bbc>
   1c658:	04000793          	li	a5,64
   1c65c:	02fba023          	sw	a5,32(s7)
   1c660:	a35fe06f          	j	1b094 <_svfprintf_r+0x7c>
   1c664:	0b010613          	addi	a2,sp,176
   1c668:	000b8593          	mv	a1,s7
   1c66c:	000c0513          	mv	a0,s8
   1c670:	279020ef          	jal	1f0e8 <__ssprint_r>
   1c674:	00050463          	beqz	a0,1c67c <_svfprintf_r+0x1664>
   1c678:	c41fe06f          	j	1b2b8 <_svfprintf_r+0x2a0>
   1c67c:	09812703          	lw	a4,152(sp)
   1c680:	07012683          	lw	a3,112(sp)
   1c684:	0c013783          	ld	a5,192(sp)
   1c688:	000a8893          	mv	a7,s5
   1c68c:	40e6873b          	subw	a4,a3,a4
   1c690:	ae9ff06f          	j	1c178 <_svfprintf_r+0x1160>
   1c694:	00022937          	lui	s2,0x22
   1c698:	c9090913          	addi	s2,s2,-880 # 21c90 <zeroes.4123+0x680>
   1c69c:	c85ff06f          	j	1c320 <_svfprintf_r+0x1308>
   1c6a0:	0b010613          	addi	a2,sp,176
   1c6a4:	000b8593          	mv	a1,s7
   1c6a8:	000c0513          	mv	a0,s8
   1c6ac:	23d020ef          	jal	1f0e8 <__ssprint_r>
   1c6b0:	00050463          	beqz	a0,1c6b8 <_svfprintf_r+0x16a0>
   1c6b4:	c05fe06f          	j	1b2b8 <_svfprintf_r+0x2a0>
   1c6b8:	09812403          	lw	s0,152(sp)
   1c6bc:	0c013783          	ld	a5,192(sp)
   1c6c0:	000a8893          	mv	a7,s5
   1c6c4:	d40414e3          	bnez	s0,1c40c <_svfprintf_r+0x13f4>
   1c6c8:	d35ff06f          	j	1c3fc <_svfprintf_r+0x13e4>
   1c6cc:	001b7793          	andi	a5,s6,1
   1c6d0:	0a078a63          	beqz	a5,1c784 <_svfprintf_r+0x176c>
   1c6d4:	03000793          	li	a5,48
   1c6d8:	0ef107a3          	sb	a5,239(sp)
   1c6dc:	07813783          	ld	a5,120(sp)
   1c6e0:	0ef10913          	addi	s2,sp,239
   1c6e4:	02f12023          	sw	a5,32(sp)
   1c6e8:	b71fe06f          	j	1b258 <_svfprintf_r+0x240>
   1c6ec:	00913823          	sd	s1,16(sp)
   1c6f0:	01013683          	ld	a3,16(sp)
   1c6f4:	008787b3          	add	a5,a5,s0
   1c6f8:	0017071b          	addiw	a4,a4,1
   1c6fc:	00d8b023          	sd	a3,0(a7)
   1c700:	0088b423          	sd	s0,8(a7)
   1c704:	0cf13023          	sd	a5,192(sp)
   1c708:	0ae12c23          	sw	a4,184(sp)
   1c70c:	00700693          	li	a3,7
   1c710:	01088893          	addi	a7,a7,16
   1c714:	02e6d463          	ble	a4,a3,1c73c <_svfprintf_r+0x1724>
   1c718:	0b010613          	addi	a2,sp,176
   1c71c:	000b8593          	mv	a1,s7
   1c720:	000c0513          	mv	a0,s8
   1c724:	1c5020ef          	jal	1f0e8 <__ssprint_r>
   1c728:	00050463          	beqz	a0,1c730 <_svfprintf_r+0x1718>
   1c72c:	b8dfe06f          	j	1b2b8 <_svfprintf_r+0x2a0>
   1c730:	0c013783          	ld	a5,192(sp)
   1c734:	0b812703          	lw	a4,184(sp)
   1c738:	000a8893          	mv	a7,s5
   1c73c:	07012683          	lw	a3,112(sp)
   1c740:	0017071b          	addiw	a4,a4,1
   1c744:	0128b023          	sd	s2,0(a7)
   1c748:	00f687b3          	add	a5,a3,a5
   1c74c:	cc8ff06f          	j	1bc14 <_svfprintf_r+0xbfc>
   1c750:	0b010613          	addi	a2,sp,176
   1c754:	000b8593          	mv	a1,s7
   1c758:	000c0513          	mv	a0,s8
   1c75c:	18d020ef          	jal	1f0e8 <__ssprint_r>
   1c760:	00050463          	beqz	a0,1c768 <_svfprintf_r+0x1750>
   1c764:	b55fe06f          	j	1b2b8 <_svfprintf_r+0x2a0>
   1c768:	09812403          	lw	s0,152(sp)
   1c76c:	0c013783          	ld	a5,192(sp)
   1c770:	0b812703          	lw	a4,184(sp)
   1c774:	000a8893          	mv	a7,s5
   1c778:	cc5ff06f          	j	1c43c <_svfprintf_r+0x1424>
   1c77c:	00600413          	li	s0,6
   1c780:	d79ff06f          	j	1c4f8 <_svfprintf_r+0x14e0>
   1c784:	02012023          	sw	zero,32(sp)
   1c788:	000a8913          	mv	s2,s5
   1c78c:	acdfe06f          	j	1b258 <_svfprintf_r+0x240>
   1c790:	01c12703          	lw	a4,28(sp)
   1c794:	00e7a023          	sw	a4,0(a5)
   1c798:	94dfe06f          	j	1b0e4 <_svfprintf_r+0xcc>
   1c79c:	00090513          	mv	a0,s2
   1c7a0:	a90f50ef          	jal	11a30 <strlen>
   1c7a4:	0005079b          	sext.w	a5,a0
   1c7a8:	02f12023          	sw	a5,32(sp)
   1c7ac:	00078d93          	mv	s11,a5
   1c7b0:	00013883          	ld	a7,0(sp)
   1c7b4:	ac07d063          	bgez	a5,1ba74 <_svfprintf_r+0xa5c>
   1c7b8:	00000d93          	li	s11,0
   1c7bc:	ab8ff06f          	j	1ba74 <_svfprintf_r+0xa5c>
   1c7c0:	fff00513          	li	a0,-1
   1c7c4:	b09fe06f          	j	1b2cc <_svfprintf_r+0x2b4>
   1c7c8:	0c013783          	ld	a5,192(sp)
   1c7cc:	0b812703          	lw	a4,184(sp)
   1c7d0:	05413823          	sd	s4,80(sp)
   1c7d4:	e7dfe06f          	j	1b650 <_svfprintf_r+0x638>
   1c7d8:	00000413          	li	s0,0
   1c7dc:	f64ff06f          	j	1bf40 <_svfprintf_r+0xf28>
   1c7e0:	02d00613          	li	a2,45
   1c7e4:	00100713          	li	a4,1
   1c7e8:	00100693          	li	a3,1
   1c7ec:	00d71463          	bne	a4,a3,1c7f4 <_svfprintf_r+0x17dc>
   1c7f0:	d0dfe06f          	j	1b4fc <_svfprintf_r+0x4e4>
   1c7f4:	00200693          	li	a3,2
   1c7f8:	00d70463          	beq	a4,a3,1c800 <_svfprintf_r+0x17e8>
   1c7fc:	b5dfe06f          	j	1b358 <_svfprintf_r+0x340>
   1c800:	a2dfe06f          	j	1b22c <_svfprintf_r+0x214>
   1c804:	00600713          	li	a4,6
   1c808:	00877463          	bleu	s0,a4,1c810 <_svfprintf_r+0x17f8>
   1c80c:	00070413          	mv	s0,a4
   1c810:	02812023          	sw	s0,32(sp)
   1c814:	00040d93          	mv	s11,s0
   1c818:	2c044463          	bltz	s0,1cae0 <_svfprintf_r+0x1ac8>
   1c81c:	00022937          	lui	s2,0x22
   1c820:	01b12423          	sw	s11,8(sp)
   1c824:	03913423          	sd	s9,40(sp)
   1c828:	00000613          	li	a2,0
   1c82c:	00000413          	li	s0,0
   1c830:	04012623          	sw	zero,76(sp)
   1c834:	cd090913          	addi	s2,s2,-816 # 21cd0 <zeroes.4123+0x6c0>
   1c838:	d5dfe06f          	j	1b594 <_svfprintf_r+0x57c>
   1c83c:	0b812703          	lw	a4,184(sp)
   1c840:	05413823          	sd	s4,80(sp)
   1c844:	838ff06f          	j	1b87c <_svfprintf_r+0x864>
   1c848:	00000413          	li	s0,0
   1c84c:	931ff06f          	j	1c17c <_svfprintf_r+0x1164>
   1c850:	02d00793          	li	a5,45
   1c854:	08f107a3          	sb	a5,143(sp)
   1c858:	02d00613          	li	a2,45
   1c85c:	954ff06f          	j	1b9b0 <_svfprintf_r+0x998>
   1c860:	001b7793          	andi	a5,s6,1
   1c864:	00b50733          	add	a4,a0,a1
   1c868:	d00798e3          	bnez	a5,1c578 <_svfprintf_r+0x1560>
   1c86c:	0a813783          	ld	a5,168(sp)
   1c870:	d39ff06f          	j	1c5a8 <_svfprintf_r+0x1590>
   1c874:	00070b13          	mv	s6,a4
   1c878:	00000613          	li	a2,0
   1c87c:	00200713          	li	a4,2
   1c880:	f69ff06f          	j	1c7e8 <_svfprintf_r+0x17d0>
   1c884:	02d00713          	li	a4,45
   1c888:	08e107a3          	sb	a4,143(sp)
   1c88c:	00f12423          	sw	a5,8(sp)
   1c890:	00012b03          	lw	s6,0(sp)
   1c894:	02d00613          	li	a2,45
   1c898:	00000413          	li	s0,0
   1c89c:	9d9fe06f          	j	1b274 <_svfprintf_r+0x25c>
   1c8a0:	09812783          	lw	a5,152(sp)
   1c8a4:	ffd00713          	li	a4,-3
   1c8a8:	02e7cc63          	blt	a5,a4,1c8e0 <_svfprintf_r+0x18c8>
   1c8ac:	02f44a63          	blt	s0,a5,1c8e0 <_svfprintf_r+0x18c8>
   1c8b0:	04f12623          	sw	a5,76(sp)
   1c8b4:	d1dff06f          	j	1c5d0 <_svfprintf_r+0x15b8>
   1c8b8:	0b812703          	lw	a4,184(sp)
   1c8bc:	00913823          	sd	s1,16(sp)
   1c8c0:	d28ff06f          	j	1bde8 <_svfprintf_r+0xdd0>
   1c8c4:	00812423          	sw	s0,8(sp)
   1c8c8:	02812023          	sw	s0,32(sp)
   1c8cc:	08f14603          	lbu	a2,143(sp)
   1c8d0:	03913423          	sd	s9,40(sp)
   1c8d4:	00000413          	li	s0,0
   1c8d8:	04012623          	sw	zero,76(sp)
   1c8dc:	995fe06f          	j	1b270 <_svfprintf_r+0x258>
   1c8e0:	ffed0d1b          	addiw	s10,s10,-2
   1c8e4:	fff7879b          	addiw	a5,a5,-1
   1c8e8:	08f12c23          	sw	a5,152(sp)
   1c8ec:	0ba10023          	sb	s10,160(sp)
   1c8f0:	2607c263          	bltz	a5,1cb54 <_svfprintf_r+0x1b3c>
   1c8f4:	02b00713          	li	a4,43
   1c8f8:	0ae100a3          	sb	a4,161(sp)
   1c8fc:	00900613          	li	a2,9
   1c900:	14f64c63          	blt	a2,a5,1ca58 <_svfprintf_r+0x1a40>
   1c904:	0307879b          	addiw	a5,a5,48
   1c908:	03000713          	li	a4,48
   1c90c:	0af101a3          	sb	a5,163(sp)
   1c910:	0ae10123          	sb	a4,162(sp)
   1c914:	0a410793          	addi	a5,sp,164
   1c918:	0a010713          	addi	a4,sp,160
   1c91c:	40e787bb          	subw	a5,a5,a4
   1c920:	07012703          	lw	a4,112(sp)
   1c924:	06f12a23          	sw	a5,116(sp)
   1c928:	00e787bb          	addw	a5,a5,a4
   1c92c:	02f12023          	sw	a5,32(sp)
   1c930:	00100793          	li	a5,1
   1c934:	22e7d863          	ble	a4,a5,1cb64 <_svfprintf_r+0x1b4c>
   1c938:	02012783          	lw	a5,32(sp)
   1c93c:	0017879b          	addiw	a5,a5,1
   1c940:	02f12023          	sw	a5,32(sp)
   1c944:	2207ca63          	bltz	a5,1cb78 <_svfprintf_r+0x1b60>
   1c948:	04012623          	sw	zero,76(sp)
   1c94c:	cadff06f          	j	1c5f8 <_svfprintf_r+0x15e0>
   1c950:	ba0414e3          	bnez	s0,1c4f8 <_svfprintf_r+0x14e0>
   1c954:	00090413          	mv	s0,s2
   1c958:	ba1ff06f          	j	1c4f8 <_svfprintf_r+0x14e0>
   1c95c:	22841453          	fneg.d	fs0,fs0
   1c960:	02d00c93          	li	s9,45
   1c964:	bb1ff06f          	j	1c514 <_svfprintf_r+0x14fc>
   1c968:	04c12703          	lw	a4,76(sp)
   1c96c:	00100793          	li	a5,1
   1c970:	1ae05c63          	blez	a4,1cb28 <_svfprintf_r+0x1b10>
   1c974:	07012703          	lw	a4,112(sp)
   1c978:	00e787bb          	addw	a5,a5,a4
   1c97c:	02f12023          	sw	a5,32(sp)
   1c980:	0007ce63          	bltz	a5,1c99c <_svfprintf_r+0x1984>
   1c984:	06700d13          	li	s10,103
   1c988:	c71ff06f          	j	1c5f8 <_svfprintf_r+0x15e0>
   1c98c:	04c12783          	lw	a5,76(sp)
   1c990:	0017879b          	addiw	a5,a5,1
   1c994:	02f12023          	sw	a5,32(sp)
   1c998:	fe07d6e3          	bgez	a5,1c984 <_svfprintf_r+0x196c>
   1c99c:	00000793          	li	a5,0
   1c9a0:	06700d13          	li	s10,103
   1c9a4:	c55ff06f          	j	1c5f8 <_svfprintf_r+0x15e0>
   1c9a8:	228405d3          	fmv.d	fa1,fs0
   1c9ac:	09810713          	addi	a4,sp,152
   1c9b0:	0a810813          	addi	a6,sp,168
   1c9b4:	09c10793          	addi	a5,sp,156
   1c9b8:	00040693          	mv	a3,s0
   1c9bc:	00300613          	li	a2,3
   1c9c0:	000c0513          	mv	a0,s8
   1c9c4:	01113423          	sd	a7,8(sp)
   1c9c8:	fb4f80ef          	jal	1517c <_dtoa_r>
   1c9cc:	00813883          	ld	a7,8(sp)
   1c9d0:	00040713          	mv	a4,s0
   1c9d4:	00050913          	mv	s2,a0
   1c9d8:	00e50733          	add	a4,a0,a4
   1c9dc:	00040593          	mv	a1,s0
   1c9e0:	00094683          	lbu	a3,0(s2)
   1c9e4:	03000793          	li	a5,48
   1c9e8:	0cf68c63          	beq	a3,a5,1cac0 <_svfprintf_r+0x1aa8>
   1c9ec:	09812583          	lw	a1,152(sp)
   1c9f0:	00b70733          	add	a4,a4,a1
   1c9f4:	b85ff06f          	j	1c578 <_svfprintf_r+0x1560>
   1c9f8:	228405d3          	fmv.d	fa1,fs0
   1c9fc:	0a810813          	addi	a6,sp,168
   1ca00:	09c10793          	addi	a5,sp,156
   1ca04:	09810713          	addi	a4,sp,152
   1ca08:	00040693          	mv	a3,s0
   1ca0c:	00300613          	li	a2,3
   1ca10:	000c0513          	mv	a0,s8
   1ca14:	01113423          	sd	a7,8(sp)
   1ca18:	f64f80ef          	jal	1517c <_dtoa_r>
   1ca1c:	00813883          	ld	a7,8(sp)
   1ca20:	00050913          	mv	s2,a0
   1ca24:	00040593          	mv	a1,s0
   1ca28:	04600793          	li	a5,70
   1ca2c:	00b90733          	add	a4,s2,a1
   1ca30:	fafd08e3          	beq	s10,a5,1c9e0 <_svfprintf_r+0x19c8>
   1ca34:	b45ff06f          	j	1c578 <_svfprintf_r+0x1560>
   1ca38:	09812783          	lw	a5,152(sp)
   1ca3c:	04f12623          	sw	a5,76(sp)
   1ca40:	0cf05263          	blez	a5,1cb04 <_svfprintf_r+0x1aec>
   1ca44:	0a041263          	bnez	s0,1cae8 <_svfprintf_r+0x1ad0>
   1ca48:	001b7b13          	andi	s6,s6,1
   1ca4c:	080b1e63          	bnez	s6,1cae8 <_svfprintf_r+0x1ad0>
   1ca50:	02f12023          	sw	a5,32(sp)
   1ca54:	ba5ff06f          	j	1c5f8 <_svfprintf_r+0x15e0>
   1ca58:	0af10593          	addi	a1,sp,175
   1ca5c:	00058713          	mv	a4,a1
   1ca60:	00a00513          	li	a0,10
   1ca64:	02a7e6bb          	remw	a3,a5,a0
   1ca68:	fff70713          	addi	a4,a4,-1
   1ca6c:	02a7c7bb          	divw	a5,a5,a0
   1ca70:	0306869b          	addiw	a3,a3,48
   1ca74:	00d70023          	sb	a3,0(a4)
   1ca78:	fef646e3          	blt	a2,a5,1ca64 <_svfprintf_r+0x1a4c>
   1ca7c:	0307879b          	addiw	a5,a5,48
   1ca80:	0ff7f793          	andi	a5,a5,255
   1ca84:	fff70693          	addi	a3,a4,-1
   1ca88:	fef70fa3          	sb	a5,-1(a4)
   1ca8c:	16b6f463          	bleu	a1,a3,1cbf4 <_svfprintf_r+0x1bdc>
   1ca90:	0a210613          	addi	a2,sp,162
   1ca94:	0080006f          	j	1ca9c <_svfprintf_r+0x1a84>
   1ca98:	0006c783          	lbu	a5,0(a3)
   1ca9c:	00160613          	addi	a2,a2,1
   1caa0:	00168693          	addi	a3,a3,1
   1caa4:	fef60fa3          	sb	a5,-1(a2)
   1caa8:	feb698e3          	bne	a3,a1,1ca98 <_svfprintf_r+0x1a80>
   1caac:	0b010793          	addi	a5,sp,176
   1cab0:	40e787b3          	sub	a5,a5,a4
   1cab4:	0a210713          	addi	a4,sp,162
   1cab8:	00f707b3          	add	a5,a4,a5
   1cabc:	e5dff06f          	j	1c918 <_svfprintf_r+0x1900>
   1cac0:	f20007d3          	fmv.d.x	fa5,zero
   1cac4:	a2f427d3          	feq.d	a5,fs0,fa5
   1cac8:	f20792e3          	bnez	a5,1c9ec <_svfprintf_r+0x19d4>
   1cacc:	00100793          	li	a5,1
   1cad0:	40b785bb          	subw	a1,a5,a1
   1cad4:	08b12c23          	sw	a1,152(sp)
   1cad8:	00b70733          	add	a4,a4,a1
   1cadc:	a9dff06f          	j	1c578 <_svfprintf_r+0x1560>
   1cae0:	00000d93          	li	s11,0
   1cae4:	d39ff06f          	j	1c81c <_svfprintf_r+0x1804>
   1cae8:	04c12783          	lw	a5,76(sp)
   1caec:	0014041b          	addiw	s0,s0,1
   1caf0:	008787bb          	addw	a5,a5,s0
   1caf4:	02f12023          	sw	a5,32(sp)
   1caf8:	b007d0e3          	bgez	a5,1c5f8 <_svfprintf_r+0x15e0>
   1cafc:	00000793          	li	a5,0
   1cb00:	af9ff06f          	j	1c5f8 <_svfprintf_r+0x15e0>
   1cb04:	00041a63          	bnez	s0,1cb18 <_svfprintf_r+0x1b00>
   1cb08:	00100793          	li	a5,1
   1cb0c:	00fb7b33          	and	s6,s6,a5
   1cb10:	02f12023          	sw	a5,32(sp)
   1cb14:	ae0b02e3          	beqz	s6,1c5f8 <_svfprintf_r+0x15e0>
   1cb18:	0024079b          	addiw	a5,s0,2
   1cb1c:	02f12023          	sw	a5,32(sp)
   1cb20:	ac07dce3          	bgez	a5,1c5f8 <_svfprintf_r+0x15e0>
   1cb24:	fd9ff06f          	j	1cafc <_svfprintf_r+0x1ae4>
   1cb28:	00200793          	li	a5,2
   1cb2c:	40e787bb          	subw	a5,a5,a4
   1cb30:	e45ff06f          	j	1c974 <_svfprintf_r+0x195c>
   1cb34:	02813783          	ld	a5,40(sp)
   1cb38:	0007a403          	lw	s0,0(a5)
   1cb3c:	00878793          	addi	a5,a5,8
   1cb40:	02f13423          	sd	a5,40(sp)
   1cb44:	00044463          	bltz	s0,1cb4c <_svfprintf_r+0x1b34>
   1cb48:	e38fe06f          	j	1b180 <_svfprintf_r+0x168>
   1cb4c:	fff00413          	li	s0,-1
   1cb50:	e30fe06f          	j	1b180 <_svfprintf_r+0x168>
   1cb54:	02d00713          	li	a4,45
   1cb58:	40f007bb          	negw	a5,a5
   1cb5c:	0ae100a3          	sb	a4,161(sp)
   1cb60:	d9dff06f          	j	1c8fc <_svfprintf_r+0x18e4>
   1cb64:	00fb7b33          	and	s6,s6,a5
   1cb68:	dc0b18e3          	bnez	s6,1c938 <_svfprintf_r+0x1920>
   1cb6c:	02012703          	lw	a4,32(sp)
   1cb70:	00070793          	mv	a5,a4
   1cb74:	dc075ae3          	bgez	a4,1c948 <_svfprintf_r+0x1930>
   1cb78:	00000793          	li	a5,0
   1cb7c:	dcdff06f          	j	1c948 <_svfprintf_r+0x1930>
   1cb80:	001b7793          	andi	a5,s6,1
   1cb84:	ea0792e3          	bnez	a5,1ca28 <_svfprintf_r+0x1a10>
   1cb88:	0a813783          	ld	a5,168(sp)
   1cb8c:	412787b3          	sub	a5,a5,s2
   1cb90:	06f12823          	sw	a5,112(sp)
   1cb94:	d1ad86e3          	beq	s11,s10,1c8a0 <_svfprintf_r+0x1888>
   1cb98:	09812783          	lw	a5,152(sp)
   1cb9c:	d49ff06f          	j	1c8e4 <_svfprintf_r+0x18cc>
   1cba0:	08b107a3          	sb	a1,143(sp)
   1cba4:	869fe06f          	j	1b40c <_svfprintf_r+0x3f4>
   1cba8:	08b107a3          	sb	a1,143(sp)
   1cbac:	010b6b13          	ori	s6,s6,16
   1cbb0:	8ddfe06f          	j	1b48c <_svfprintf_r+0x474>
   1cbb4:	08b107a3          	sb	a1,143(sp)
   1cbb8:	f68fe06f          	j	1b320 <_svfprintf_r+0x308>
   1cbbc:	08b107a3          	sb	a1,143(sp)
   1cbc0:	dadfe06f          	j	1b96c <_svfprintf_r+0x954>
   1cbc4:	08b107a3          	sb	a1,143(sp)
   1cbc8:	969fe06f          	j	1b530 <_svfprintf_r+0x518>
   1cbcc:	08b107a3          	sb	a1,143(sp)
   1cbd0:	8fdfe06f          	j	1b4cc <_svfprintf_r+0x4b4>
   1cbd4:	00c00793          	li	a5,12
   1cbd8:	00fc2023          	sw	a5,0(s8)
   1cbdc:	fff00513          	li	a0,-1
   1cbe0:	eecfe06f          	j	1b2cc <_svfprintf_r+0x2b4>
   1cbe4:	08b107a3          	sb	a1,143(sp)
   1cbe8:	d11fe06f          	j	1b8f8 <_svfprintf_r+0x8e0>
   1cbec:	08b107a3          	sb	a1,143(sp)
   1cbf0:	ef1fe06f          	j	1bae0 <_svfprintf_r+0xac8>
   1cbf4:	0a210793          	addi	a5,sp,162
   1cbf8:	d21ff06f          	j	1c918 <_svfprintf_r+0x1900>
   1cbfc:	00000793          	li	a5,0
   1cc00:	9edff06f          	j	1c5ec <_svfprintf_r+0x15d4>
   1cc04:	08b107a3          	sb	a1,143(sp)
   1cc08:	010b6b13          	ori	s6,s6,16
   1cc0c:	de5fe06f          	j	1b9f0 <_svfprintf_r+0x9d8>
   1cc10:	08b107a3          	sb	a1,143(sp)
   1cc14:	f90fe06f          	j	1b3a4 <_svfprintf_r+0x38c>

000000000001cc18 <__submore>:
   1cc18:	fd010113          	addi	sp,sp,-48
   1cc1c:	02813023          	sd	s0,32(sp)
   1cc20:	00058413          	mv	s0,a1
   1cc24:	0585b583          	ld	a1,88(a1)
   1cc28:	02113423          	sd	ra,40(sp)
   1cc2c:	00913c23          	sd	s1,24(sp)
   1cc30:	01213823          	sd	s2,16(sp)
   1cc34:	01313423          	sd	s3,8(sp)
   1cc38:	01413023          	sd	s4,0(sp)
   1cc3c:	07440793          	addi	a5,s0,116
   1cc40:	06f58063          	beq	a1,a5,1cca0 <__submore+0x88>
   1cc44:	06042983          	lw	s3,96(s0)
   1cc48:	00199a1b          	slliw	s4,s3,0x1
   1cc4c:	000a0613          	mv	a2,s4
   1cc50:	980fc0ef          	jal	18dd0 <_realloc_r>
   1cc54:	00050493          	mv	s1,a0
   1cc58:	0a050463          	beqz	a0,1cd00 <__submore+0xe8>
   1cc5c:	01350933          	add	s2,a0,s3
   1cc60:	00050593          	mv	a1,a0
   1cc64:	00098613          	mv	a2,s3
   1cc68:	00090513          	mv	a0,s2
   1cc6c:	811f40ef          	jal	1147c <memcpy>
   1cc70:	00000513          	li	a0,0
   1cc74:	01243023          	sd	s2,0(s0)
   1cc78:	04943c23          	sd	s1,88(s0)
   1cc7c:	07442023          	sw	s4,96(s0)
   1cc80:	02813083          	ld	ra,40(sp)
   1cc84:	02013403          	ld	s0,32(sp)
   1cc88:	01813483          	ld	s1,24(sp)
   1cc8c:	01013903          	ld	s2,16(sp)
   1cc90:	00813983          	ld	s3,8(sp)
   1cc94:	00013a03          	ld	s4,0(sp)
   1cc98:	03010113          	addi	sp,sp,48
   1cc9c:	00008067          	ret
   1cca0:	40000593          	li	a1,1024
   1cca4:	868f40ef          	jal	10d0c <_malloc_r>
   1cca8:	00050793          	mv	a5,a0
   1ccac:	04050a63          	beqz	a0,1cd00 <__submore+0xe8>
   1ccb0:	07644703          	lbu	a4,118(s0)
   1ccb4:	40000693          	li	a3,1024
   1ccb8:	04a43c23          	sd	a0,88(s0)
   1ccbc:	06d42023          	sw	a3,96(s0)
   1ccc0:	3ee50fa3          	sb	a4,1023(a0)
   1ccc4:	07544683          	lbu	a3,117(s0)
   1ccc8:	3fd50713          	addi	a4,a0,1021
   1cccc:	00000513          	li	a0,0
   1ccd0:	3ed78f23          	sb	a3,1022(a5)
   1ccd4:	07444683          	lbu	a3,116(s0)
   1ccd8:	3ed78ea3          	sb	a3,1021(a5)
   1ccdc:	02813083          	ld	ra,40(sp)
   1cce0:	00e43023          	sd	a4,0(s0)
   1cce4:	01813483          	ld	s1,24(sp)
   1cce8:	02013403          	ld	s0,32(sp)
   1ccec:	01013903          	ld	s2,16(sp)
   1ccf0:	00813983          	ld	s3,8(sp)
   1ccf4:	00013a03          	ld	s4,0(sp)
   1ccf8:	03010113          	addi	sp,sp,48
   1ccfc:	00008067          	ret
   1cd00:	fff00513          	li	a0,-1
   1cd04:	f7dff06f          	j	1cc80 <__submore+0x68>

000000000001cd08 <_ungetc_r>:
   1cd08:	fff00793          	li	a5,-1
   1cd0c:	1cf58063          	beq	a1,a5,1cecc <_ungetc_r+0x1c4>
   1cd10:	fd010113          	addi	sp,sp,-48
   1cd14:	02813023          	sd	s0,32(sp)
   1cd18:	00913c23          	sd	s1,24(sp)
   1cd1c:	01313423          	sd	s3,8(sp)
   1cd20:	02113423          	sd	ra,40(sp)
   1cd24:	01213823          	sd	s2,16(sp)
   1cd28:	00050493          	mv	s1,a0
   1cd2c:	00060413          	mv	s0,a2
   1cd30:	00058993          	mv	s3,a1
   1cd34:	00050663          	beqz	a0,1cd40 <_ungetc_r+0x38>
   1cd38:	05052783          	lw	a5,80(a0)
   1cd3c:	0c078c63          	beqz	a5,1ce14 <_ungetc_r+0x10c>
   1cd40:	01041783          	lh	a5,16(s0)
   1cd44:	03279713          	slli	a4,a5,0x32
   1cd48:	02074463          	bltz	a4,1cd70 <_ungetc_r+0x68>
   1cd4c:	0ac42683          	lw	a3,172(s0)
   1cd50:	00002737          	lui	a4,0x2
   1cd54:	00e7e7b3          	or	a5,a5,a4
   1cd58:	ffffe737          	lui	a4,0xffffe
   1cd5c:	fff7071b          	addiw	a4,a4,-1
   1cd60:	00e6f733          	and	a4,a3,a4
   1cd64:	0107979b          	slliw	a5,a5,0x10
   1cd68:	4107d79b          	sraiw	a5,a5,0x10
   1cd6c:	0ae42623          	sw	a4,172(s0)
   1cd70:	fdf7f793          	andi	a5,a5,-33
   1cd74:	0107979b          	slliw	a5,a5,0x10
   1cd78:	4107d79b          	sraiw	a5,a5,0x10
   1cd7c:	03079713          	slli	a4,a5,0x30
   1cd80:	03075713          	srli	a4,a4,0x30
   1cd84:	00f41823          	sh	a5,16(s0)
   1cd88:	00477693          	andi	a3,a4,4
   1cd8c:	00069e63          	bnez	a3,1cda8 <_ungetc_r+0xa0>
   1cd90:	01077693          	andi	a3,a4,16
   1cd94:	06068c63          	beqz	a3,1ce0c <_ungetc_r+0x104>
   1cd98:	00877713          	andi	a4,a4,8
   1cd9c:	0e071463          	bnez	a4,1ce84 <_ungetc_r+0x17c>
   1cda0:	0047e793          	ori	a5,a5,4
   1cda4:	00f41823          	sh	a5,16(s0)
   1cda8:	05843783          	ld	a5,88(s0)
   1cdac:	0ff9f913          	andi	s2,s3,255
   1cdb0:	06078663          	beqz	a5,1ce1c <_ungetc_r+0x114>
   1cdb4:	00842703          	lw	a4,8(s0)
   1cdb8:	06042783          	lw	a5,96(s0)
   1cdbc:	04f75063          	ble	a5,a4,1cdfc <_ungetc_r+0xf4>
   1cdc0:	00043783          	ld	a5,0(s0)
   1cdc4:	00090513          	mv	a0,s2
   1cdc8:	fff78713          	addi	a4,a5,-1
   1cdcc:	00e43023          	sd	a4,0(s0)
   1cdd0:	ff378fa3          	sb	s3,-1(a5)
   1cdd4:	00842783          	lw	a5,8(s0)
   1cdd8:	0017879b          	addiw	a5,a5,1
   1cddc:	00f42423          	sw	a5,8(s0)
   1cde0:	02813083          	ld	ra,40(sp)
   1cde4:	02013403          	ld	s0,32(sp)
   1cde8:	01813483          	ld	s1,24(sp)
   1cdec:	01013903          	ld	s2,16(sp)
   1cdf0:	00813983          	ld	s3,8(sp)
   1cdf4:	03010113          	addi	sp,sp,48
   1cdf8:	00008067          	ret
   1cdfc:	00040593          	mv	a1,s0
   1ce00:	00048513          	mv	a0,s1
   1ce04:	e15ff0ef          	jal	1cc18 <__submore>
   1ce08:	fa050ce3          	beqz	a0,1cdc0 <_ungetc_r+0xb8>
   1ce0c:	fff00513          	li	a0,-1
   1ce10:	fd1ff06f          	j	1cde0 <_ungetc_r+0xd8>
   1ce14:	a7df90ef          	jal	16890 <__sinit>
   1ce18:	f29ff06f          	j	1cd40 <_ungetc_r+0x38>
   1ce1c:	01843703          	ld	a4,24(s0)
   1ce20:	00043783          	ld	a5,0(s0)
   1ce24:	00070863          	beqz	a4,1ce34 <_ungetc_r+0x12c>
   1ce28:	00f77663          	bleu	a5,a4,1ce34 <_ungetc_r+0x12c>
   1ce2c:	fff7c703          	lbu	a4,-1(a5)
   1ce30:	08e90063          	beq	s2,a4,1ceb0 <_ungetc_r+0x1a8>
   1ce34:	07340b23          	sb	s3,118(s0)
   1ce38:	00842603          	lw	a2,8(s0)
   1ce3c:	02813083          	ld	ra,40(sp)
   1ce40:	06f43423          	sd	a5,104(s0)
   1ce44:	00300793          	li	a5,3
   1ce48:	07440693          	addi	a3,s0,116
   1ce4c:	07640713          	addi	a4,s0,118
   1ce50:	06f42023          	sw	a5,96(s0)
   1ce54:	00100793          	li	a5,1
   1ce58:	00090513          	mv	a0,s2
   1ce5c:	06c42823          	sw	a2,112(s0)
   1ce60:	04d43c23          	sd	a3,88(s0)
   1ce64:	00e43023          	sd	a4,0(s0)
   1ce68:	00f42423          	sw	a5,8(s0)
   1ce6c:	01813483          	ld	s1,24(sp)
   1ce70:	02013403          	ld	s0,32(sp)
   1ce74:	01013903          	ld	s2,16(sp)
   1ce78:	00813983          	ld	s3,8(sp)
   1ce7c:	03010113          	addi	sp,sp,48
   1ce80:	00008067          	ret
   1ce84:	00040593          	mv	a1,s0
   1ce88:	00048513          	mv	a0,s1
   1ce8c:	e58f90ef          	jal	164e4 <_fflush_r>
   1ce90:	f6051ee3          	bnez	a0,1ce0c <_ungetc_r+0x104>
   1ce94:	01045783          	lhu	a5,16(s0)
   1ce98:	00042623          	sw	zero,12(s0)
   1ce9c:	02042423          	sw	zero,40(s0)
   1cea0:	ff77f793          	andi	a5,a5,-9
   1cea4:	0107979b          	slliw	a5,a5,0x10
   1cea8:	4107d79b          	sraiw	a5,a5,0x10
   1ceac:	ef5ff06f          	j	1cda0 <_ungetc_r+0x98>
   1ceb0:	00842703          	lw	a4,8(s0)
   1ceb4:	fff78793          	addi	a5,a5,-1
   1ceb8:	00f43023          	sd	a5,0(s0)
   1cebc:	0017079b          	addiw	a5,a4,1
   1cec0:	00f42423          	sw	a5,8(s0)
   1cec4:	00090513          	mv	a0,s2
   1cec8:	f19ff06f          	j	1cde0 <_ungetc_r+0xd8>
   1cecc:	fff00513          	li	a0,-1
   1ced0:	00008067          	ret

000000000001ced4 <ungetc>:
   1ced4:	00058613          	mv	a2,a1
   1ced8:	00050593          	mv	a1,a0
   1cedc:	8101b503          	ld	a0,-2032(gp) # 243e0 <_impure_ptr>
   1cee0:	e29ff06f          	j	1cd08 <_ungetc_r>

000000000001cee4 <__sprint_r.part.0>:
   1cee4:	0ac5a783          	lw	a5,172(a1)
   1cee8:	fb010113          	addi	sp,sp,-80
   1ceec:	01613823          	sd	s6,16(sp)
   1cef0:	04113423          	sd	ra,72(sp)
   1cef4:	04813023          	sd	s0,64(sp)
   1cef8:	02913c23          	sd	s1,56(sp)
   1cefc:	03213823          	sd	s2,48(sp)
   1cf00:	03313423          	sd	s3,40(sp)
   1cf04:	03413023          	sd	s4,32(sp)
   1cf08:	01513c23          	sd	s5,24(sp)
   1cf0c:	01713423          	sd	s7,8(sp)
   1cf10:	03279713          	slli	a4,a5,0x32
   1cf14:	00060b13          	mv	s6,a2
   1cf18:	0a075863          	bgez	a4,1cfc8 <__sprint_r.part.0+0xe4>
   1cf1c:	01063783          	ld	a5,16(a2)
   1cf20:	00058a13          	mv	s4,a1
   1cf24:	00050a93          	mv	s5,a0
   1cf28:	00063b83          	ld	s7,0(a2)
   1cf2c:	fff00993          	li	s3,-1
   1cf30:	08078863          	beqz	a5,1cfc0 <__sprint_r.part.0+0xdc>
   1cf34:	008bb903          	ld	s2,8(s7)
   1cf38:	000bb483          	ld	s1,0(s7)
   1cf3c:	00000413          	li	s0,0
   1cf40:	00295913          	srli	s2,s2,0x2
   1cf44:	0009091b          	sext.w	s2,s2
   1cf48:	01204863          	bgtz	s2,1cf58 <__sprint_r.part.0+0x74>
   1cf4c:	0600006f          	j	1cfac <__sprint_r.part.0+0xc8>
   1cf50:	00448493          	addi	s1,s1,4
   1cf54:	04890a63          	beq	s2,s0,1cfa8 <__sprint_r.part.0+0xc4>
   1cf58:	0004a583          	lw	a1,0(s1)
   1cf5c:	000a0613          	mv	a2,s4
   1cf60:	000a8513          	mv	a0,s5
   1cf64:	524010ef          	jal	1e488 <_fputwc_r>
   1cf68:	0014041b          	addiw	s0,s0,1
   1cf6c:	ff3512e3          	bne	a0,s3,1cf50 <__sprint_r.part.0+0x6c>
   1cf70:	00098513          	mv	a0,s3
   1cf74:	04813083          	ld	ra,72(sp)
   1cf78:	000b3823          	sd	zero,16(s6)
   1cf7c:	000b2423          	sw	zero,8(s6)
   1cf80:	04013403          	ld	s0,64(sp)
   1cf84:	03813483          	ld	s1,56(sp)
   1cf88:	03013903          	ld	s2,48(sp)
   1cf8c:	02813983          	ld	s3,40(sp)
   1cf90:	02013a03          	ld	s4,32(sp)
   1cf94:	01813a83          	ld	s5,24(sp)
   1cf98:	01013b03          	ld	s6,16(sp)
   1cf9c:	00813b83          	ld	s7,8(sp)
   1cfa0:	05010113          	addi	sp,sp,80
   1cfa4:	00008067          	ret
   1cfa8:	010b3783          	ld	a5,16(s6)
   1cfac:	00291913          	slli	s2,s2,0x2
   1cfb0:	412787b3          	sub	a5,a5,s2
   1cfb4:	00fb3823          	sd	a5,16(s6)
   1cfb8:	010b8b93          	addi	s7,s7,16
   1cfbc:	f6079ce3          	bnez	a5,1cf34 <__sprint_r.part.0+0x50>
   1cfc0:	00000513          	li	a0,0
   1cfc4:	fb1ff06f          	j	1cf74 <__sprint_r.part.0+0x90>
   1cfc8:	f9df90ef          	jal	16f64 <__sfvwrite_r>
   1cfcc:	fa9ff06f          	j	1cf74 <__sprint_r.part.0+0x90>

000000000001cfd0 <__sprint_r>:
   1cfd0:	01063703          	ld	a4,16(a2)
   1cfd4:	00070463          	beqz	a4,1cfdc <__sprint_r+0xc>
   1cfd8:	f0dff06f          	j	1cee4 <__sprint_r.part.0>
   1cfdc:	00062423          	sw	zero,8(a2)
   1cfe0:	00000513          	li	a0,0
   1cfe4:	00008067          	ret

000000000001cfe8 <_vfiprintf_r>:
   1cfe8:	e6010113          	addi	sp,sp,-416
   1cfec:	17513423          	sd	s5,360(sp)
   1cff0:	17613023          	sd	s6,352(sp)
   1cff4:	15a13023          	sd	s10,320(sp)
   1cff8:	18113c23          	sd	ra,408(sp)
   1cffc:	18813823          	sd	s0,400(sp)
   1d000:	18913423          	sd	s1,392(sp)
   1d004:	19213023          	sd	s2,384(sp)
   1d008:	17313c23          	sd	s3,376(sp)
   1d00c:	17413823          	sd	s4,368(sp)
   1d010:	15713c23          	sd	s7,344(sp)
   1d014:	15813823          	sd	s8,336(sp)
   1d018:	15913423          	sd	s9,328(sp)
   1d01c:	13b13c23          	sd	s11,312(sp)
   1d020:	00d13423          	sd	a3,8(sp)
   1d024:	00050a93          	mv	s5,a0
   1d028:	00058d13          	mv	s10,a1
   1d02c:	00060b13          	mv	s6,a2
   1d030:	00050663          	beqz	a0,1d03c <_vfiprintf_r+0x54>
   1d034:	05052783          	lw	a5,80(a0)
   1d038:	1e078c63          	beqz	a5,1d230 <_vfiprintf_r+0x248>
   1d03c:	010d1683          	lh	a3,16(s10)
   1d040:	03069793          	slli	a5,a3,0x30
   1d044:	0307d793          	srli	a5,a5,0x30
   1d048:	03279713          	slli	a4,a5,0x32
   1d04c:	02074a63          	bltz	a4,1d080 <_vfiprintf_r+0x98>
   1d050:	000027b7          	lui	a5,0x2
   1d054:	0acd2603          	lw	a2,172(s10)
   1d058:	00f6e7b3          	or	a5,a3,a5
   1d05c:	0107979b          	slliw	a5,a5,0x10
   1d060:	ffffe737          	lui	a4,0xffffe
   1d064:	4107d79b          	sraiw	a5,a5,0x10
   1d068:	fff7071b          	addiw	a4,a4,-1
   1d06c:	00e67733          	and	a4,a2,a4
   1d070:	00fd1823          	sh	a5,16(s10)
   1d074:	03079793          	slli	a5,a5,0x30
   1d078:	0aed2623          	sw	a4,172(s10)
   1d07c:	0307d793          	srli	a5,a5,0x30
   1d080:	0087f713          	andi	a4,a5,8
   1d084:	12070a63          	beqz	a4,1d1b8 <_vfiprintf_r+0x1d0>
   1d088:	018d3703          	ld	a4,24(s10)
   1d08c:	12070663          	beqz	a4,1d1b8 <_vfiprintf_r+0x1d0>
   1d090:	01a7f793          	andi	a5,a5,26
   1d094:	00a00713          	li	a4,10
   1d098:	14e78063          	beq	a5,a4,1d1d8 <_vfiprintf_r+0x1f0>
   1d09c:	0b010c93          	addi	s9,sp,176
   1d0a0:	00021c37          	lui	s8,0x21
   1d0a4:	0af10793          	addi	a5,sp,175
   1d0a8:	210c0713          	addi	a4,s8,528 # 21210 <zeroes.4179+0x10>
   1d0ac:	40fc87b3          	sub	a5,s9,a5
   1d0b0:	000218b7          	lui	a7,0x21
   1d0b4:	07913823          	sd	s9,112(sp)
   1d0b8:	08013023          	sd	zero,128(sp)
   1d0bc:	06012c23          	sw	zero,120(sp)
   1d0c0:	000c8413          	mv	s0,s9
   1d0c4:	00013c23          	sd	zero,24(sp)
   1d0c8:	04012c23          	sw	zero,88(sp)
   1d0cc:	00e13823          	sd	a4,16(sp)
   1d0d0:	37888c13          	addi	s8,a7,888 # 21378 <blanks.4136>
   1d0d4:	04f12e23          	sw	a5,92(sp)
   1d0d8:	000b4783          	lbu	a5,0(s6)
   1d0dc:	4e078ee3          	beqz	a5,1ddd8 <_vfiprintf_r+0xdf0>
   1d0e0:	02500713          	li	a4,37
   1d0e4:	000b0493          	mv	s1,s6
   1d0e8:	00e79663          	bne	a5,a4,1d0f4 <_vfiprintf_r+0x10c>
   1d0ec:	0580006f          	j	1d144 <_vfiprintf_r+0x15c>
   1d0f0:	00e78863          	beq	a5,a4,1d100 <_vfiprintf_r+0x118>
   1d0f4:	00148493          	addi	s1,s1,1
   1d0f8:	0004c783          	lbu	a5,0(s1)
   1d0fc:	fe079ae3          	bnez	a5,1d0f0 <_vfiprintf_r+0x108>
   1d100:	4164893b          	subw	s2,s1,s6
   1d104:	04090063          	beqz	s2,1d144 <_vfiprintf_r+0x15c>
   1d108:	08013703          	ld	a4,128(sp)
   1d10c:	07812783          	lw	a5,120(sp)
   1d110:	00090613          	mv	a2,s2
   1d114:	00e60733          	add	a4,a2,a4
   1d118:	0017879b          	addiw	a5,a5,1
   1d11c:	00c43423          	sd	a2,8(s0)
   1d120:	01643023          	sd	s6,0(s0)
   1d124:	08e13023          	sd	a4,128(sp)
   1d128:	06f12c23          	sw	a5,120(sp)
   1d12c:	00700613          	li	a2,7
   1d130:	01040413          	addi	s0,s0,16
   1d134:	06f64463          	blt	a2,a5,1d19c <_vfiprintf_r+0x1b4>
   1d138:	05812783          	lw	a5,88(sp)
   1d13c:	012787bb          	addw	a5,a5,s2
   1d140:	04f12c23          	sw	a5,88(sp)
   1d144:	0004c783          	lbu	a5,0(s1)
   1d148:	580786e3          	beqz	a5,1ded4 <_vfiprintf_r+0xeec>
   1d14c:	00148813          	addi	a6,s1,1
   1d150:	060103a3          	sb	zero,103(sp)
   1d154:	00000513          	li	a0,0
   1d158:	00000e93          	li	t4,0
   1d15c:	fff00493          	li	s1,-1
   1d160:	00000913          	li	s2,0
   1d164:	00000313          	li	t1,0
   1d168:	05800613          	li	a2,88
   1d16c:	00900593          	li	a1,9
   1d170:	02a00f13          	li	t5,42
   1d174:	00084703          	lbu	a4,0(a6)
   1d178:	00180b13          	addi	s6,a6,1
   1d17c:	fe07079b          	addiw	a5,a4,-32
   1d180:	66f66263          	bltu	a2,a5,1d7e4 <_vfiprintf_r+0x7fc>
   1d184:	01013683          	ld	a3,16(sp)
   1d188:	02079793          	slli	a5,a5,0x20
   1d18c:	01e7d793          	srli	a5,a5,0x1e
   1d190:	00d787b3          	add	a5,a5,a3
   1d194:	0007a783          	lw	a5,0(a5) # 2000 <_ftext-0xe000>
   1d198:	00078067          	jr	a5
   1d19c:	2e071ee3          	bnez	a4,1dc98 <_vfiprintf_r+0xcb0>
   1d1a0:	06012c23          	sw	zero,120(sp)
   1d1a4:	000c8413          	mv	s0,s9
   1d1a8:	f91ff06f          	j	1d138 <_vfiprintf_r+0x150>
   1d1ac:	01036313          	ori	t1,t1,16
   1d1b0:	000b0813          	mv	a6,s6
   1d1b4:	fc1ff06f          	j	1d174 <_vfiprintf_r+0x18c>
   1d1b8:	000d0593          	mv	a1,s10
   1d1bc:	000a8513          	mv	a0,s5
   1d1c0:	9cdf70ef          	jal	14b8c <__swsetup_r>
   1d1c4:	4e0512e3          	bnez	a0,1dea8 <_vfiprintf_r+0xec0>
   1d1c8:	010d5783          	lhu	a5,16(s10)
   1d1cc:	00a00713          	li	a4,10
   1d1d0:	01a7f793          	andi	a5,a5,26
   1d1d4:	ece794e3          	bne	a5,a4,1d09c <_vfiprintf_r+0xb4>
   1d1d8:	012d1783          	lh	a5,18(s10)
   1d1dc:	ec07c0e3          	bltz	a5,1d09c <_vfiprintf_r+0xb4>
   1d1e0:	00813683          	ld	a3,8(sp)
   1d1e4:	000b0613          	mv	a2,s6
   1d1e8:	000d0593          	mv	a1,s10
   1d1ec:	000a8513          	mv	a0,s5
   1d1f0:	6a9000ef          	jal	1e098 <__sbprintf>
   1d1f4:	19813083          	ld	ra,408(sp)
   1d1f8:	19013403          	ld	s0,400(sp)
   1d1fc:	18813483          	ld	s1,392(sp)
   1d200:	18013903          	ld	s2,384(sp)
   1d204:	17813983          	ld	s3,376(sp)
   1d208:	17013a03          	ld	s4,368(sp)
   1d20c:	16813a83          	ld	s5,360(sp)
   1d210:	16013b03          	ld	s6,352(sp)
   1d214:	15813b83          	ld	s7,344(sp)
   1d218:	15013c03          	ld	s8,336(sp)
   1d21c:	14813c83          	ld	s9,328(sp)
   1d220:	14013d03          	ld	s10,320(sp)
   1d224:	13813d83          	ld	s11,312(sp)
   1d228:	1a010113          	addi	sp,sp,416
   1d22c:	00008067          	ret
   1d230:	e60f90ef          	jal	16890 <__sinit>
   1d234:	e09ff06f          	j	1d03c <_vfiprintf_r+0x54>
   1d238:	00813783          	ld	a5,8(sp)
   1d23c:	0007a903          	lw	s2,0(a5)
   1d240:	00878793          	addi	a5,a5,8
   1d244:	00f13423          	sd	a5,8(sp)
   1d248:	f60954e3          	bgez	s2,1d1b0 <_vfiprintf_r+0x1c8>
   1d24c:	4120093b          	negw	s2,s2
   1d250:	00436313          	ori	t1,t1,4
   1d254:	000b0813          	mv	a6,s6
   1d258:	f1dff06f          	j	1d174 <_vfiprintf_r+0x18c>
   1d25c:	03000793          	li	a5,48
   1d260:	06f10423          	sb	a5,104(sp)
   1d264:	07800793          	li	a5,120
   1d268:	06f104a3          	sb	a5,105(sp)
   1d26c:	00813783          	ld	a5,8(sp)
   1d270:	060103a3          	sb	zero,103(sp)
   1d274:	00236613          	ori	a2,t1,2
   1d278:	00878713          	addi	a4,a5,8
   1d27c:	0007b783          	ld	a5,0(a5)
   1d280:	2e04cce3          	bltz	s1,1dd78 <_vfiprintf_r+0xd90>
   1d284:	f7f37313          	andi	t1,t1,-129
   1d288:	00e13423          	sd	a4,8(sp)
   1d28c:	00236313          	ori	t1,t1,2
   1d290:	32079ae3          	bnez	a5,1ddc4 <_vfiprintf_r+0xddc>
   1d294:	000227b7          	lui	a5,0x22
   1d298:	cb878793          	addi	a5,a5,-840 # 21cb8 <zeroes.4123+0x6a8>
   1d29c:	00f13c23          	sd	a5,24(sp)
   1d2a0:	00000593          	li	a1,0
   1d2a4:	200498e3          	bnez	s1,1dcb4 <_vfiprintf_r+0xccc>
   1d2a8:	00000493          	li	s1,0
   1d2ac:	00000a13          	li	s4,0
   1d2b0:	000c8b93          	mv	s7,s9
   1d2b4:	00048993          	mv	s3,s1
   1d2b8:	0144d463          	ble	s4,s1,1d2c0 <_vfiprintf_r+0x2d8>
   1d2bc:	000a0993          	mv	s3,s4
   1d2c0:	00b035b3          	snez	a1,a1
   1d2c4:	00b989bb          	addw	s3,s3,a1
   1d2c8:	00237393          	andi	t2,t1,2
   1d2cc:	00038463          	beqz	t2,1d2d4 <_vfiprintf_r+0x2ec>
   1d2d0:	0029899b          	addiw	s3,s3,2
   1d2d4:	08437293          	andi	t0,t1,132
   1d2d8:	58029463          	bnez	t0,1d860 <_vfiprintf_r+0x878>
   1d2dc:	41390dbb          	subw	s11,s2,s3
   1d2e0:	59b05063          	blez	s11,1d860 <_vfiprintf_r+0x878>
   1d2e4:	01000793          	li	a5,16
   1d2e8:	45b7dee3          	ble	s11,a5,1df44 <_vfiprintf_r+0xf5c>
   1d2ec:	01000e93          	li	t4,16
   1d2f0:	08013783          	ld	a5,128(sp)
   1d2f4:	07812503          	lw	a0,120(sp)
   1d2f8:	05813823          	sd	s8,80(sp)
   1d2fc:	00700f13          	li	t5,7
   1d300:	000e8f93          	mv	t6,t4
   1d304:	0180006f          	j	1d31c <_vfiprintf_r+0x334>
   1d308:	0025061b          	addiw	a2,a0,2
   1d30c:	01040413          	addi	s0,s0,16
   1d310:	00058513          	mv	a0,a1
   1d314:	ff0d8d9b          	addiw	s11,s11,-16
   1d318:	03bfdc63          	ble	s11,t6,1d350 <_vfiprintf_r+0x368>
   1d31c:	01078793          	addi	a5,a5,16
   1d320:	0015059b          	addiw	a1,a0,1
   1d324:	01843023          	sd	s8,0(s0)
   1d328:	01d43423          	sd	t4,8(s0)
   1d32c:	08f13023          	sd	a5,128(sp)
   1d330:	06b12c23          	sw	a1,120(sp)
   1d334:	fcbf5ae3          	ble	a1,t5,1d308 <_vfiprintf_r+0x320>
   1d338:	4c079863          	bnez	a5,1d808 <_vfiprintf_r+0x820>
   1d33c:	ff0d8d9b          	addiw	s11,s11,-16
   1d340:	00000513          	li	a0,0
   1d344:	00100613          	li	a2,1
   1d348:	000c8413          	mv	s0,s9
   1d34c:	fdbfc8e3          	blt	t6,s11,1d31c <_vfiprintf_r+0x334>
   1d350:	05013703          	ld	a4,80(sp)
   1d354:	00fd87b3          	add	a5,s11,a5
   1d358:	01b43423          	sd	s11,8(s0)
   1d35c:	00e43023          	sd	a4,0(s0)
   1d360:	08f13023          	sd	a5,128(sp)
   1d364:	06c12c23          	sw	a2,120(sp)
   1d368:	00700593          	li	a1,7
   1d36c:	7ac5cc63          	blt	a1,a2,1db24 <_vfiprintf_r+0xb3c>
   1d370:	06714503          	lbu	a0,103(sp)
   1d374:	01040413          	addi	s0,s0,16
   1d378:	0016059b          	addiw	a1,a2,1
   1d37c:	4e051c63          	bnez	a0,1d874 <_vfiprintf_r+0x88c>
   1d380:	52038663          	beqz	t2,1d8ac <_vfiprintf_r+0x8c4>
   1d384:	06810613          	addi	a2,sp,104
   1d388:	00278793          	addi	a5,a5,2
   1d38c:	00c43023          	sd	a2,0(s0)
   1d390:	00200613          	li	a2,2
   1d394:	00c43423          	sd	a2,8(s0)
   1d398:	08f13023          	sd	a5,128(sp)
   1d39c:	06b12c23          	sw	a1,120(sp)
   1d3a0:	00700613          	li	a2,7
   1d3a4:	7cb65863          	ble	a1,a2,1db74 <_vfiprintf_r+0xb8c>
   1d3a8:	10079ae3          	bnez	a5,1dcbc <_vfiprintf_r+0xcd4>
   1d3ac:	08000513          	li	a0,128
   1d3b0:	00100593          	li	a1,1
   1d3b4:	00000613          	li	a2,0
   1d3b8:	000c8413          	mv	s0,s9
   1d3bc:	4ea29c63          	bne	t0,a0,1d8b4 <_vfiprintf_r+0x8cc>
   1d3c0:	41390ebb          	subw	t4,s2,s3
   1d3c4:	4fd05863          	blez	t4,1d8b4 <_vfiprintf_r+0x8cc>
   1d3c8:	01000513          	li	a0,16
   1d3cc:	3fd55ce3          	ble	t4,a0,1dfc4 <_vfiprintf_r+0xfdc>
   1d3d0:	01000f13          	li	t5,16
   1d3d4:	00021737          	lui	a4,0x21
   1d3d8:	38870d93          	addi	s11,a4,904 # 21388 <zeroes.4137>
   1d3dc:	00700f93          	li	t6,7
   1d3e0:	000f0293          	mv	t0,t5
   1d3e4:	0180006f          	j	1d3fc <_vfiprintf_r+0x414>
   1d3e8:	0026051b          	addiw	a0,a2,2
   1d3ec:	01040413          	addi	s0,s0,16
   1d3f0:	00058613          	mv	a2,a1
   1d3f4:	ff0e8e9b          	addiw	t4,t4,-16
   1d3f8:	03d2dc63          	ble	t4,t0,1d430 <_vfiprintf_r+0x448>
   1d3fc:	01078793          	addi	a5,a5,16
   1d400:	0016059b          	addiw	a1,a2,1
   1d404:	01b43023          	sd	s11,0(s0)
   1d408:	01e43423          	sd	t5,8(s0)
   1d40c:	08f13023          	sd	a5,128(sp)
   1d410:	06b12c23          	sw	a1,120(sp)
   1d414:	fcbfdae3          	ble	a1,t6,1d3e8 <_vfiprintf_r+0x400>
   1d418:	6a079e63          	bnez	a5,1dad4 <_vfiprintf_r+0xaec>
   1d41c:	ff0e8e9b          	addiw	t4,t4,-16
   1d420:	00100513          	li	a0,1
   1d424:	00000613          	li	a2,0
   1d428:	000c8413          	mv	s0,s9
   1d42c:	fdd2c8e3          	blt	t0,t4,1d3fc <_vfiprintf_r+0x414>
   1d430:	01d787b3          	add	a5,a5,t4
   1d434:	01b43023          	sd	s11,0(s0)
   1d438:	01d43423          	sd	t4,8(s0)
   1d43c:	08f13023          	sd	a5,128(sp)
   1d440:	06a12c23          	sw	a0,120(sp)
   1d444:	00700613          	li	a2,7
   1d448:	0ea646e3          	blt	a2,a0,1dd34 <_vfiprintf_r+0xd4c>
   1d44c:	414484bb          	subw	s1,s1,s4
   1d450:	01040413          	addi	s0,s0,16
   1d454:	0015059b          	addiw	a1,a0,1
   1d458:	00050613          	mv	a2,a0
   1d45c:	46904063          	bgtz	s1,1d8bc <_vfiprintf_r+0x8d4>
   1d460:	00fa07b3          	add	a5,s4,a5
   1d464:	01743023          	sd	s7,0(s0)
   1d468:	01443423          	sd	s4,8(s0)
   1d46c:	08f13023          	sd	a5,128(sp)
   1d470:	06b12c23          	sw	a1,120(sp)
   1d474:	00700713          	li	a4,7
   1d478:	4eb75a63          	ble	a1,a4,1d96c <_vfiprintf_r+0x984>
   1d47c:	7a079463          	bnez	a5,1dc24 <_vfiprintf_r+0xc3c>
   1d480:	06012c23          	sw	zero,120(sp)
   1d484:	00437313          	andi	t1,t1,4
   1d488:	00030663          	beqz	t1,1d494 <_vfiprintf_r+0x4ac>
   1d48c:	413904bb          	subw	s1,s2,s3
   1d490:	229040e3          	bgtz	s1,1deb0 <_vfiprintf_r+0xec8>
   1d494:	01395463          	ble	s3,s2,1d49c <_vfiprintf_r+0x4b4>
   1d498:	00098913          	mv	s2,s3
   1d49c:	05812783          	lw	a5,88(sp)
   1d4a0:	012787bb          	addw	a5,a5,s2
   1d4a4:	04f12c23          	sw	a5,88(sp)
   1d4a8:	06012c23          	sw	zero,120(sp)
   1d4ac:	000c8413          	mv	s0,s9
   1d4b0:	c29ff06f          	j	1d0d8 <_vfiprintf_r+0xf0>
   1d4b4:	00100513          	li	a0,1
   1d4b8:	02b00e93          	li	t4,43
   1d4bc:	000b0813          	mv	a6,s6
   1d4c0:	cb5ff06f          	j	1d174 <_vfiprintf_r+0x18c>
   1d4c4:	08036313          	ori	t1,t1,128
   1d4c8:	000b0813          	mv	a6,s6
   1d4cc:	ca9ff06f          	j	1d174 <_vfiprintf_r+0x18c>
   1d4d0:	00000913          	li	s2,0
   1d4d4:	fd07079b          	addiw	a5,a4,-48
   1d4d8:	001b0b13          	addi	s6,s6,1
   1d4dc:	fffb4703          	lbu	a4,-1(s6)
   1d4e0:	00191f9b          	slliw	t6,s2,0x1
   1d4e4:	0039191b          	slliw	s2,s2,0x3
   1d4e8:	012f893b          	addw	s2,t6,s2
   1d4ec:	0127893b          	addw	s2,a5,s2
   1d4f0:	fd07079b          	addiw	a5,a4,-48
   1d4f4:	fef5f2e3          	bleu	a5,a1,1d4d8 <_vfiprintf_r+0x4f0>
   1d4f8:	c85ff06f          	j	1d17c <_vfiprintf_r+0x194>
   1d4fc:	360518e3          	bnez	a0,1e06c <_vfiprintf_r+0x1084>
   1d500:	01036313          	ori	t1,t1,16
   1d504:	01037793          	andi	a5,t1,16
   1d508:	74078263          	beqz	a5,1dc4c <_vfiprintf_r+0xc64>
   1d50c:	00813703          	ld	a4,8(sp)
   1d510:	00073783          	ld	a5,0(a4)
   1d514:	00870713          	addi	a4,a4,8
   1d518:	00e13423          	sd	a4,8(sp)
   1d51c:	0e07c6e3          	bltz	a5,1de08 <_vfiprintf_r+0xe20>
   1d520:	06714583          	lbu	a1,103(sp)
   1d524:	6e04c063          	bltz	s1,1dc04 <_vfiprintf_r+0xc1c>
   1d528:	f7f37313          	andi	t1,t1,-129
   1d52c:	10078c63          	beqz	a5,1d644 <_vfiprintf_r+0x65c>
   1d530:	00900613          	li	a2,9
   1d534:	000c8b93          	mv	s7,s9
   1d538:	00a00513          	li	a0,10
   1d53c:	10f67863          	bleu	a5,a2,1d64c <_vfiprintf_r+0x664>
   1d540:	02a7f633          	remu	a2,a5,a0
   1d544:	fffb8b93          	addi	s7,s7,-1
   1d548:	02a7d7b3          	divu	a5,a5,a0
   1d54c:	0306061b          	addiw	a2,a2,48
   1d550:	00cb8023          	sb	a2,0(s7)
   1d554:	fe0796e3          	bnez	a5,1d540 <_vfiprintf_r+0x558>
   1d558:	417c8a3b          	subw	s4,s9,s7
   1d55c:	d59ff06f          	j	1d2b4 <_vfiprintf_r+0x2cc>
   1d560:	300512e3          	bnez	a0,1e064 <_vfiprintf_r+0x107c>
   1d564:	01036313          	ori	t1,t1,16
   1d568:	01037793          	andi	a5,t1,16
   1d56c:	6e078e63          	beqz	a5,1dc68 <_vfiprintf_r+0xc80>
   1d570:	00813783          	ld	a5,8(sp)
   1d574:	060103a3          	sb	zero,103(sp)
   1d578:	00878713          	addi	a4,a5,8
   1d57c:	0007b783          	ld	a5,0(a5)
   1d580:	7004c263          	bltz	s1,1dc84 <_vfiprintf_r+0xc9c>
   1d584:	00e13423          	sd	a4,8(sp)
   1d588:	f7f37313          	andi	t1,t1,-129
   1d58c:	70079263          	bnez	a5,1dc90 <_vfiprintf_r+0xca8>
   1d590:	00000593          	li	a1,0
   1d594:	00000793          	li	a5,0
   1d598:	2a0482e3          	beqz	s1,1e03c <_vfiprintf_r+0x1054>
   1d59c:	000c8b93          	mv	s7,s9
   1d5a0:	0077f613          	andi	a2,a5,7
   1d5a4:	fffb8b93          	addi	s7,s7,-1
   1d5a8:	0306061b          	addiw	a2,a2,48
   1d5ac:	00cb8023          	sb	a2,0(s7)
   1d5b0:	0037d793          	srli	a5,a5,0x3
   1d5b4:	fe0796e3          	bnez	a5,1d5a0 <_vfiprintf_r+0x5b8>
   1d5b8:	00137793          	andi	a5,t1,1
   1d5bc:	f8078ee3          	beqz	a5,1d558 <_vfiprintf_r+0x570>
   1d5c0:	03000793          	li	a5,48
   1d5c4:	f8f60ae3          	beq	a2,a5,1d558 <_vfiprintf_r+0x570>
   1d5c8:	fffb8613          	addi	a2,s7,-1
   1d5cc:	40cc8a33          	sub	s4,s9,a2
   1d5d0:	fefb8fa3          	sb	a5,-1(s7)
   1d5d4:	000a0a1b          	sext.w	s4,s4
   1d5d8:	00060b93          	mv	s7,a2
   1d5dc:	cd9ff06f          	j	1d2b4 <_vfiprintf_r+0x2cc>
   1d5e0:	28051ee3          	bnez	a0,1e07c <_vfiprintf_r+0x1094>
   1d5e4:	01037793          	andi	a5,t1,16
   1d5e8:	040786e3          	beqz	a5,1de34 <_vfiprintf_r+0xe4c>
   1d5ec:	00813683          	ld	a3,8(sp)
   1d5f0:	05812703          	lw	a4,88(sp)
   1d5f4:	0006b783          	ld	a5,0(a3)
   1d5f8:	00868693          	addi	a3,a3,8
   1d5fc:	00d13423          	sd	a3,8(sp)
   1d600:	00e7b023          	sd	a4,0(a5)
   1d604:	ad5ff06f          	j	1d0d8 <_vfiprintf_r+0xf0>
   1d608:	260516e3          	bnez	a0,1e074 <_vfiprintf_r+0x108c>
   1d60c:	01036313          	ori	t1,t1,16
   1d610:	01037793          	andi	a5,t1,16
   1d614:	5c079a63          	bnez	a5,1dbe8 <_vfiprintf_r+0xc00>
   1d618:	04037793          	andi	a5,t1,64
   1d61c:	060103a3          	sb	zero,103(sp)
   1d620:	7c078063          	beqz	a5,1dde0 <_vfiprintf_r+0xdf8>
   1d624:	00813783          	ld	a5,8(sp)
   1d628:	00878713          	addi	a4,a5,8
   1d62c:	0007d783          	lhu	a5,0(a5)
   1d630:	5c04c663          	bltz	s1,1dbfc <_vfiprintf_r+0xc14>
   1d634:	00e13423          	sd	a4,8(sp)
   1d638:	f7f37313          	andi	t1,t1,-129
   1d63c:	00000593          	li	a1,0
   1d640:	ee0798e3          	bnez	a5,1d530 <_vfiprintf_r+0x548>
   1d644:	c60482e3          	beqz	s1,1d2a8 <_vfiprintf_r+0x2c0>
   1d648:	00000793          	li	a5,0
   1d64c:	0307879b          	addiw	a5,a5,48
   1d650:	0af107a3          	sb	a5,175(sp)
   1d654:	05c12a03          	lw	s4,92(sp)
   1d658:	0af10b93          	addi	s7,sp,175
   1d65c:	c59ff06f          	j	1d2b4 <_vfiprintf_r+0x2cc>
   1d660:	b40e98e3          	bnez	t4,1d1b0 <_vfiprintf_r+0x1c8>
   1d664:	00100513          	li	a0,1
   1d668:	02000e93          	li	t4,32
   1d66c:	000b0813          	mv	a6,s6
   1d670:	b05ff06f          	j	1d174 <_vfiprintf_r+0x18c>
   1d674:	00136313          	ori	t1,t1,1
   1d678:	000b0813          	mv	a6,s6
   1d67c:	af9ff06f          	j	1d174 <_vfiprintf_r+0x18c>
   1d680:	00813783          	ld	a5,8(sp)
   1d684:	060103a3          	sb	zero,103(sp)
   1d688:	0007bb83          	ld	s7,0(a5)
   1d68c:	00878d93          	addi	s11,a5,8
   1d690:	0e0b84e3          	beqz	s7,1df78 <_vfiprintf_r+0xf90>
   1d694:	0404cee3          	bltz	s1,1def0 <_vfiprintf_r+0xf08>
   1d698:	00048613          	mv	a2,s1
   1d69c:	00000593          	li	a1,0
   1d6a0:	000b8513          	mv	a0,s7
   1d6a4:	00613423          	sd	t1,8(sp)
   1d6a8:	be0fa0ef          	jal	17a88 <memchr>
   1d6ac:	00813303          	ld	t1,8(sp)
   1d6b0:	120502e3          	beqz	a0,1dfd4 <_vfiprintf_r+0xfec>
   1d6b4:	41750a3b          	subw	s4,a0,s7
   1d6b8:	06714583          	lbu	a1,103(sp)
   1d6bc:	01b13423          	sd	s11,8(sp)
   1d6c0:	00000493          	li	s1,0
   1d6c4:	bf1ff06f          	j	1d2b4 <_vfiprintf_r+0x2cc>
   1d6c8:	f40504e3          	beqz	a0,1d610 <_vfiprintf_r+0x628>
   1d6cc:	07d103a3          	sb	t4,103(sp)
   1d6d0:	f41ff06f          	j	1d610 <_vfiprintf_r+0x628>
   1d6d4:	00813703          	ld	a4,8(sp)
   1d6d8:	00100993          	li	s3,1
   1d6dc:	060103a3          	sb	zero,103(sp)
   1d6e0:	00072783          	lw	a5,0(a4)
   1d6e4:	00098a13          	mv	s4,s3
   1d6e8:	08810b93          	addi	s7,sp,136
   1d6ec:	08f10423          	sb	a5,136(sp)
   1d6f0:	00870793          	addi	a5,a4,8
   1d6f4:	00f13423          	sd	a5,8(sp)
   1d6f8:	00000493          	li	s1,0
   1d6fc:	bcdff06f          	j	1d2c8 <_vfiprintf_r+0x2e0>
   1d700:	e00502e3          	beqz	a0,1d504 <_vfiprintf_r+0x51c>
   1d704:	07d103a3          	sb	t4,103(sp)
   1d708:	dfdff06f          	j	1d504 <_vfiprintf_r+0x51c>
   1d70c:	120510e3          	bnez	a0,1e02c <_vfiprintf_r+0x1044>
   1d710:	000227b7          	lui	a5,0x22
   1d714:	ca078793          	addi	a5,a5,-864 # 21ca0 <zeroes.4123+0x690>
   1d718:	00f13c23          	sd	a5,24(sp)
   1d71c:	01037793          	andi	a5,t1,16
   1d720:	06078063          	beqz	a5,1d780 <_vfiprintf_r+0x798>
   1d724:	00813683          	ld	a3,8(sp)
   1d728:	0006b783          	ld	a5,0(a3)
   1d72c:	00868693          	addi	a3,a3,8
   1d730:	00d13423          	sd	a3,8(sp)
   1d734:	00137613          	andi	a2,t1,1
   1d738:	46060863          	beqz	a2,1dba8 <_vfiprintf_r+0xbc0>
   1d73c:	66079063          	bnez	a5,1dd9c <_vfiprintf_r+0xdb4>
   1d740:	060103a3          	sb	zero,103(sp)
   1d744:	6404c663          	bltz	s1,1dd90 <_vfiprintf_r+0xda8>
   1d748:	f7f37313          	andi	t1,t1,-129
   1d74c:	b55ff06f          	j	1d2a0 <_vfiprintf_r+0x2b8>
   1d750:	e0050ce3          	beqz	a0,1d568 <_vfiprintf_r+0x580>
   1d754:	07d103a3          	sb	t4,103(sp)
   1d758:	e11ff06f          	j	1d568 <_vfiprintf_r+0x580>
   1d75c:	04036313          	ori	t1,t1,64
   1d760:	000b0813          	mv	a6,s6
   1d764:	a11ff06f          	j	1d174 <_vfiprintf_r+0x18c>
   1d768:	0a051ee3          	bnez	a0,1e024 <_vfiprintf_r+0x103c>
   1d76c:	000227b7          	lui	a5,0x22
   1d770:	cb878793          	addi	a5,a5,-840 # 21cb8 <zeroes.4123+0x6a8>
   1d774:	00f13c23          	sd	a5,24(sp)
   1d778:	01037793          	andi	a5,t1,16
   1d77c:	fa0794e3          	bnez	a5,1d724 <_vfiprintf_r+0x73c>
   1d780:	04037793          	andi	a5,t1,64
   1d784:	00813683          	ld	a3,8(sp)
   1d788:	68078e63          	beqz	a5,1de24 <_vfiprintf_r+0xe3c>
   1d78c:	0006d783          	lhu	a5,0(a3)
   1d790:	00868693          	addi	a3,a3,8
   1d794:	00d13423          	sd	a3,8(sp)
   1d798:	f9dff06f          	j	1d734 <_vfiprintf_r+0x74c>
   1d79c:	000b4703          	lbu	a4,0(s6)
   1d7a0:	001b0813          	addi	a6,s6,1
   1d7a4:	05e70ee3          	beq	a4,t5,1e000 <_vfiprintf_r+0x1018>
   1d7a8:	fd07079b          	addiw	a5,a4,-48
   1d7ac:	00000493          	li	s1,0
   1d7b0:	00080b13          	mv	s6,a6
   1d7b4:	9cf5e4e3          	bltu	a1,a5,1d17c <_vfiprintf_r+0x194>
   1d7b8:	001b0b13          	addi	s6,s6,1
   1d7bc:	fffb4703          	lbu	a4,-1(s6)
   1d7c0:	00149f9b          	slliw	t6,s1,0x1
   1d7c4:	0034949b          	slliw	s1,s1,0x3
   1d7c8:	009f84bb          	addw	s1,t6,s1
   1d7cc:	00f484bb          	addw	s1,s1,a5
   1d7d0:	fd07079b          	addiw	a5,a4,-48
   1d7d4:	fef5f2e3          	bleu	a5,a1,1d7b8 <_vfiprintf_r+0x7d0>
   1d7d8:	9a04d2e3          	bgez	s1,1d17c <_vfiprintf_r+0x194>
   1d7dc:	fff00493          	li	s1,-1
   1d7e0:	99dff06f          	j	1d17c <_vfiprintf_r+0x194>
   1d7e4:	040518e3          	bnez	a0,1e034 <_vfiprintf_r+0x104c>
   1d7e8:	6e070663          	beqz	a4,1ded4 <_vfiprintf_r+0xeec>
   1d7ec:	00100993          	li	s3,1
   1d7f0:	08e10423          	sb	a4,136(sp)
   1d7f4:	060103a3          	sb	zero,103(sp)
   1d7f8:	00098a13          	mv	s4,s3
   1d7fc:	08810b93          	addi	s7,sp,136
   1d800:	00000493          	li	s1,0
   1d804:	ac5ff06f          	j	1d2c8 <_vfiprintf_r+0x2e0>
   1d808:	07010613          	addi	a2,sp,112
   1d80c:	000d0593          	mv	a1,s10
   1d810:	000a8513          	mv	a0,s5
   1d814:	05f13423          	sd	t6,72(sp)
   1d818:	05e13023          	sd	t5,64(sp)
   1d81c:	03d13c23          	sd	t4,56(sp)
   1d820:	02513823          	sd	t0,48(sp)
   1d824:	02713423          	sd	t2,40(sp)
   1d828:	02613023          	sd	t1,32(sp)
   1d82c:	eb8ff0ef          	jal	1cee4 <__sprint_r.part.0>
   1d830:	22051063          	bnez	a0,1da50 <_vfiprintf_r+0xa68>
   1d834:	07812503          	lw	a0,120(sp)
   1d838:	08013783          	ld	a5,128(sp)
   1d83c:	000c8413          	mv	s0,s9
   1d840:	0015061b          	addiw	a2,a0,1
   1d844:	04813f83          	ld	t6,72(sp)
   1d848:	04013f03          	ld	t5,64(sp)
   1d84c:	03813e83          	ld	t4,56(sp)
   1d850:	03013283          	ld	t0,48(sp)
   1d854:	02813383          	ld	t2,40(sp)
   1d858:	02013303          	ld	t1,32(sp)
   1d85c:	ab9ff06f          	j	1d314 <_vfiprintf_r+0x32c>
   1d860:	07812603          	lw	a2,120(sp)
   1d864:	08013783          	ld	a5,128(sp)
   1d868:	0016059b          	addiw	a1,a2,1
   1d86c:	06714503          	lbu	a0,103(sp)
   1d870:	b00508e3          	beqz	a0,1d380 <_vfiprintf_r+0x398>
   1d874:	00100513          	li	a0,1
   1d878:	06710613          	addi	a2,sp,103
   1d87c:	00a787b3          	add	a5,a5,a0
   1d880:	00c43023          	sd	a2,0(s0)
   1d884:	00a43423          	sd	a0,8(s0)
   1d888:	08f13023          	sd	a5,128(sp)
   1d88c:	06b12c23          	sw	a1,120(sp)
   1d890:	00700613          	li	a2,7
   1d894:	2ab65a63          	ble	a1,a2,1db48 <_vfiprintf_r+0xb60>
   1d898:	44079e63          	bnez	a5,1dcf4 <_vfiprintf_r+0xd0c>
   1d89c:	2c039063          	bnez	t2,1db5c <_vfiprintf_r+0xb74>
   1d8a0:	00000613          	li	a2,0
   1d8a4:	00050593          	mv	a1,a0
   1d8a8:	000c8413          	mv	s0,s9
   1d8ac:	08000513          	li	a0,128
   1d8b0:	b0a288e3          	beq	t0,a0,1d3c0 <_vfiprintf_r+0x3d8>
   1d8b4:	414484bb          	subw	s1,s1,s4
   1d8b8:	ba9054e3          	blez	s1,1d460 <_vfiprintf_r+0x478>
   1d8bc:	00021737          	lui	a4,0x21
   1d8c0:	01000513          	li	a0,16
   1d8c4:	38870d93          	addi	s11,a4,904 # 21388 <zeroes.4137>
   1d8c8:	06955263          	ble	s1,a0,1d92c <_vfiprintf_r+0x944>
   1d8cc:	01000e93          	li	t4,16
   1d8d0:	00021737          	lui	a4,0x21
   1d8d4:	38870d93          	addi	s11,a4,904 # 21388 <zeroes.4137>
   1d8d8:	00700f13          	li	t5,7
   1d8dc:	000e8f93          	mv	t6,t4
   1d8e0:	0180006f          	j	1d8f8 <_vfiprintf_r+0x910>
   1d8e4:	0026059b          	addiw	a1,a2,2
   1d8e8:	01040413          	addi	s0,s0,16
   1d8ec:	00050613          	mv	a2,a0
   1d8f0:	ff04849b          	addiw	s1,s1,-16
   1d8f4:	029fdc63          	ble	s1,t6,1d92c <_vfiprintf_r+0x944>
   1d8f8:	01078793          	addi	a5,a5,16
   1d8fc:	0016051b          	addiw	a0,a2,1
   1d900:	01b43023          	sd	s11,0(s0)
   1d904:	01d43423          	sd	t4,8(s0)
   1d908:	08f13023          	sd	a5,128(sp)
   1d90c:	06a12c23          	sw	a0,120(sp)
   1d910:	fcaf5ae3          	ble	a0,t5,1d8e4 <_vfiprintf_r+0x8fc>
   1d914:	14079863          	bnez	a5,1da64 <_vfiprintf_r+0xa7c>
   1d918:	ff04849b          	addiw	s1,s1,-16
   1d91c:	00100593          	li	a1,1
   1d920:	00000613          	li	a2,0
   1d924:	000c8413          	mv	s0,s9
   1d928:	fc9fc8e3          	blt	t6,s1,1d8f8 <_vfiprintf_r+0x910>
   1d92c:	009787b3          	add	a5,a5,s1
   1d930:	01b43023          	sd	s11,0(s0)
   1d934:	00943423          	sd	s1,8(s0)
   1d938:	08f13023          	sd	a5,128(sp)
   1d93c:	06b12c23          	sw	a1,120(sp)
   1d940:	00700613          	li	a2,7
   1d944:	24b64063          	blt	a2,a1,1db84 <_vfiprintf_r+0xb9c>
   1d948:	01040413          	addi	s0,s0,16
   1d94c:	0015859b          	addiw	a1,a1,1
   1d950:	00fa07b3          	add	a5,s4,a5
   1d954:	01743023          	sd	s7,0(s0)
   1d958:	01443423          	sd	s4,8(s0)
   1d95c:	08f13023          	sd	a5,128(sp)
   1d960:	06b12c23          	sw	a1,120(sp)
   1d964:	00700713          	li	a4,7
   1d968:	b0b74ae3          	blt	a4,a1,1d47c <_vfiprintf_r+0x494>
   1d96c:	01040413          	addi	s0,s0,16
   1d970:	00437313          	andi	t1,t1,4
   1d974:	0a030863          	beqz	t1,1da24 <_vfiprintf_r+0xa3c>
   1d978:	413904bb          	subw	s1,s2,s3
   1d97c:	0a905463          	blez	s1,1da24 <_vfiprintf_r+0xa3c>
   1d980:	01000713          	li	a4,16
   1d984:	62975863          	ble	s1,a4,1dfb4 <_vfiprintf_r+0xfcc>
   1d988:	01000a13          	li	s4,16
   1d98c:	07812603          	lw	a2,120(sp)
   1d990:	05813823          	sd	s8,80(sp)
   1d994:	00700d93          	li	s11,7
   1d998:	000a0b93          	mv	s7,s4
   1d99c:	0180006f          	j	1d9b4 <_vfiprintf_r+0x9cc>
   1d9a0:	0026059b          	addiw	a1,a2,2
   1d9a4:	01040413          	addi	s0,s0,16
   1d9a8:	00070613          	mv	a2,a4
   1d9ac:	ff04849b          	addiw	s1,s1,-16
   1d9b0:	029bdc63          	ble	s1,s7,1d9e8 <_vfiprintf_r+0xa00>
   1d9b4:	01078793          	addi	a5,a5,16
   1d9b8:	0016071b          	addiw	a4,a2,1
   1d9bc:	01843023          	sd	s8,0(s0)
   1d9c0:	01443423          	sd	s4,8(s0)
   1d9c4:	08f13023          	sd	a5,128(sp)
   1d9c8:	06e12c23          	sw	a4,120(sp)
   1d9cc:	fceddae3          	ble	a4,s11,1d9a0 <_vfiprintf_r+0x9b8>
   1d9d0:	0c079e63          	bnez	a5,1daac <_vfiprintf_r+0xac4>
   1d9d4:	ff04849b          	addiw	s1,s1,-16
   1d9d8:	00100593          	li	a1,1
   1d9dc:	00000613          	li	a2,0
   1d9e0:	000c8413          	mv	s0,s9
   1d9e4:	fc9bc8e3          	blt	s7,s1,1d9b4 <_vfiprintf_r+0x9cc>
   1d9e8:	05013703          	ld	a4,80(sp)
   1d9ec:	009787b3          	add	a5,a5,s1
   1d9f0:	00943423          	sd	s1,8(s0)
   1d9f4:	00e43023          	sd	a4,0(s0)
   1d9f8:	08f13023          	sd	a5,128(sp)
   1d9fc:	06b12c23          	sw	a1,120(sp)
   1da00:	00700713          	li	a4,7
   1da04:	02b75063          	ble	a1,a4,1da24 <_vfiprintf_r+0xa3c>
   1da08:	a80786e3          	beqz	a5,1d494 <_vfiprintf_r+0x4ac>
   1da0c:	07010613          	addi	a2,sp,112
   1da10:	000d0593          	mv	a1,s10
   1da14:	000a8513          	mv	a0,s5
   1da18:	cccff0ef          	jal	1cee4 <__sprint_r.part.0>
   1da1c:	02051a63          	bnez	a0,1da50 <_vfiprintf_r+0xa68>
   1da20:	08013783          	ld	a5,128(sp)
   1da24:	01395463          	ble	s3,s2,1da2c <_vfiprintf_r+0xa44>
   1da28:	00098913          	mv	s2,s3
   1da2c:	05812703          	lw	a4,88(sp)
   1da30:	0127073b          	addw	a4,a4,s2
   1da34:	04e12c23          	sw	a4,88(sp)
   1da38:	a60788e3          	beqz	a5,1d4a8 <_vfiprintf_r+0x4c0>
   1da3c:	07010613          	addi	a2,sp,112
   1da40:	000d0593          	mv	a1,s10
   1da44:	000a8513          	mv	a0,s5
   1da48:	c9cff0ef          	jal	1cee4 <__sprint_r.part.0>
   1da4c:	a4050ee3          	beqz	a0,1d4a8 <_vfiprintf_r+0x4c0>
   1da50:	010d5783          	lhu	a5,16(s10)
   1da54:	0407f793          	andi	a5,a5,64
   1da58:	44079863          	bnez	a5,1dea8 <_vfiprintf_r+0xec0>
   1da5c:	05812503          	lw	a0,88(sp)
   1da60:	f94ff06f          	j	1d1f4 <_vfiprintf_r+0x20c>
   1da64:	07010613          	addi	a2,sp,112
   1da68:	000d0593          	mv	a1,s10
   1da6c:	000a8513          	mv	a0,s5
   1da70:	03f13c23          	sd	t6,56(sp)
   1da74:	03e13823          	sd	t5,48(sp)
   1da78:	03d13423          	sd	t4,40(sp)
   1da7c:	02613023          	sd	t1,32(sp)
   1da80:	c64ff0ef          	jal	1cee4 <__sprint_r.part.0>
   1da84:	fc0516e3          	bnez	a0,1da50 <_vfiprintf_r+0xa68>
   1da88:	07812603          	lw	a2,120(sp)
   1da8c:	08013783          	ld	a5,128(sp)
   1da90:	000c8413          	mv	s0,s9
   1da94:	0016059b          	addiw	a1,a2,1
   1da98:	03813f83          	ld	t6,56(sp)
   1da9c:	03013f03          	ld	t5,48(sp)
   1daa0:	02813e83          	ld	t4,40(sp)
   1daa4:	02013303          	ld	t1,32(sp)
   1daa8:	e49ff06f          	j	1d8f0 <_vfiprintf_r+0x908>
   1daac:	07010613          	addi	a2,sp,112
   1dab0:	000d0593          	mv	a1,s10
   1dab4:	000a8513          	mv	a0,s5
   1dab8:	c2cff0ef          	jal	1cee4 <__sprint_r.part.0>
   1dabc:	f8051ae3          	bnez	a0,1da50 <_vfiprintf_r+0xa68>
   1dac0:	07812603          	lw	a2,120(sp)
   1dac4:	08013783          	ld	a5,128(sp)
   1dac8:	000c8413          	mv	s0,s9
   1dacc:	0016059b          	addiw	a1,a2,1
   1dad0:	eddff06f          	j	1d9ac <_vfiprintf_r+0x9c4>
   1dad4:	07010613          	addi	a2,sp,112
   1dad8:	000d0593          	mv	a1,s10
   1dadc:	000a8513          	mv	a0,s5
   1dae0:	04513023          	sd	t0,64(sp)
   1dae4:	03f13c23          	sd	t6,56(sp)
   1dae8:	03e13823          	sd	t5,48(sp)
   1daec:	03d13423          	sd	t4,40(sp)
   1daf0:	02613023          	sd	t1,32(sp)
   1daf4:	bf0ff0ef          	jal	1cee4 <__sprint_r.part.0>
   1daf8:	f4051ce3          	bnez	a0,1da50 <_vfiprintf_r+0xa68>
   1dafc:	07812603          	lw	a2,120(sp)
   1db00:	08013783          	ld	a5,128(sp)
   1db04:	000c8413          	mv	s0,s9
   1db08:	0016051b          	addiw	a0,a2,1
   1db0c:	04013283          	ld	t0,64(sp)
   1db10:	03813f83          	ld	t6,56(sp)
   1db14:	03013f03          	ld	t5,48(sp)
   1db18:	02813e83          	ld	t4,40(sp)
   1db1c:	02013303          	ld	t1,32(sp)
   1db20:	8d5ff06f          	j	1d3f4 <_vfiprintf_r+0x40c>
   1db24:	34079263          	bnez	a5,1de68 <_vfiprintf_r+0xe80>
   1db28:	06714603          	lbu	a2,103(sp)
   1db2c:	02060663          	beqz	a2,1db58 <_vfiprintf_r+0xb70>
   1db30:	00100793          	li	a5,1
   1db34:	06710613          	addi	a2,sp,103
   1db38:	0ac13823          	sd	a2,176(sp)
   1db3c:	0af13c23          	sd	a5,184(sp)
   1db40:	00078593          	mv	a1,a5
   1db44:	000c8413          	mv	s0,s9
   1db48:	00058613          	mv	a2,a1
   1db4c:	01040413          	addi	s0,s0,16
   1db50:	0015859b          	addiw	a1,a1,1
   1db54:	82dff06f          	j	1d380 <_vfiprintf_r+0x398>
   1db58:	36038063          	beqz	t2,1deb8 <_vfiprintf_r+0xed0>
   1db5c:	00200793          	li	a5,2
   1db60:	06810613          	addi	a2,sp,104
   1db64:	0ac13823          	sd	a2,176(sp)
   1db68:	0af13c23          	sd	a5,184(sp)
   1db6c:	00100593          	li	a1,1
   1db70:	000c8413          	mv	s0,s9
   1db74:	00058613          	mv	a2,a1
   1db78:	01040413          	addi	s0,s0,16
   1db7c:	0015859b          	addiw	a1,a1,1
   1db80:	d2dff06f          	j	1d8ac <_vfiprintf_r+0x8c4>
   1db84:	1c079263          	bnez	a5,1dd48 <_vfiprintf_r+0xd60>
   1db88:	00100713          	li	a4,1
   1db8c:	000a0793          	mv	a5,s4
   1db90:	0b713823          	sd	s7,176(sp)
   1db94:	0b413c23          	sd	s4,184(sp)
   1db98:	09413023          	sd	s4,128(sp)
   1db9c:	06e12c23          	sw	a4,120(sp)
   1dba0:	000c8413          	mv	s0,s9
   1dba4:	dc9ff06f          	j	1d96c <_vfiprintf_r+0x984>
   1dba8:	060103a3          	sb	zero,103(sp)
   1dbac:	1e04c063          	bltz	s1,1dd8c <_vfiprintf_r+0xda4>
   1dbb0:	f7f37313          	andi	t1,t1,-129
   1dbb4:	ee078663          	beqz	a5,1d2a0 <_vfiprintf_r+0x2b8>
   1dbb8:	00000593          	li	a1,0
   1dbbc:	000c8b93          	mv	s7,s9
   1dbc0:	01813703          	ld	a4,24(sp)
   1dbc4:	00f7f613          	andi	a2,a5,15
   1dbc8:	fffb8b93          	addi	s7,s7,-1
   1dbcc:	00c70633          	add	a2,a4,a2
   1dbd0:	00064603          	lbu	a2,0(a2)
   1dbd4:	0047d793          	srli	a5,a5,0x4
   1dbd8:	00cb8023          	sb	a2,0(s7)
   1dbdc:	fe0792e3          	bnez	a5,1dbc0 <_vfiprintf_r+0xbd8>
   1dbe0:	417c8a3b          	subw	s4,s9,s7
   1dbe4:	ed0ff06f          	j	1d2b4 <_vfiprintf_r+0x2cc>
   1dbe8:	00813783          	ld	a5,8(sp)
   1dbec:	060103a3          	sb	zero,103(sp)
   1dbf0:	00878713          	addi	a4,a5,8
   1dbf4:	0007b783          	ld	a5,0(a5)
   1dbf8:	a204dee3          	bgez	s1,1d634 <_vfiprintf_r+0x64c>
   1dbfc:	00e13423          	sd	a4,8(sp)
   1dc00:	00000593          	li	a1,0
   1dc04:	920796e3          	bnez	a5,1d530 <_vfiprintf_r+0x548>
   1dc08:	00100793          	li	a5,1
   1dc0c:	00100713          	li	a4,1
   1dc10:	a2e78ce3          	beq	a5,a4,1d648 <_vfiprintf_r+0x660>
   1dc14:	00200713          	li	a4,2
   1dc18:	08e78e63          	beq	a5,a4,1dcb4 <_vfiprintf_r+0xccc>
   1dc1c:	00000793          	li	a5,0
   1dc20:	97dff06f          	j	1d59c <_vfiprintf_r+0x5b4>
   1dc24:	07010613          	addi	a2,sp,112
   1dc28:	000d0593          	mv	a1,s10
   1dc2c:	000a8513          	mv	a0,s5
   1dc30:	02613023          	sd	t1,32(sp)
   1dc34:	ab0ff0ef          	jal	1cee4 <__sprint_r.part.0>
   1dc38:	e0051ce3          	bnez	a0,1da50 <_vfiprintf_r+0xa68>
   1dc3c:	08013783          	ld	a5,128(sp)
   1dc40:	000c8413          	mv	s0,s9
   1dc44:	02013303          	ld	t1,32(sp)
   1dc48:	d29ff06f          	j	1d970 <_vfiprintf_r+0x988>
   1dc4c:	04037793          	andi	a5,t1,64
   1dc50:	00813703          	ld	a4,8(sp)
   1dc54:	20078263          	beqz	a5,1de58 <_vfiprintf_r+0xe70>
   1dc58:	00071783          	lh	a5,0(a4)
   1dc5c:	00870713          	addi	a4,a4,8
   1dc60:	00e13423          	sd	a4,8(sp)
   1dc64:	8b9ff06f          	j	1d51c <_vfiprintf_r+0x534>
   1dc68:	04037793          	andi	a5,t1,64
   1dc6c:	060103a3          	sb	zero,103(sp)
   1dc70:	18078263          	beqz	a5,1ddf4 <_vfiprintf_r+0xe0c>
   1dc74:	00813783          	ld	a5,8(sp)
   1dc78:	00878713          	addi	a4,a5,8
   1dc7c:	0007d783          	lhu	a5,0(a5)
   1dc80:	9004d2e3          	bgez	s1,1d584 <_vfiprintf_r+0x59c>
   1dc84:	00e13423          	sd	a4,8(sp)
   1dc88:	00000593          	li	a1,0
   1dc8c:	f80780e3          	beqz	a5,1dc0c <_vfiprintf_r+0xc24>
   1dc90:	00000593          	li	a1,0
   1dc94:	909ff06f          	j	1d59c <_vfiprintf_r+0x5b4>
   1dc98:	07010613          	addi	a2,sp,112
   1dc9c:	000d0593          	mv	a1,s10
   1dca0:	000a8513          	mv	a0,s5
   1dca4:	a40ff0ef          	jal	1cee4 <__sprint_r.part.0>
   1dca8:	da0514e3          	bnez	a0,1da50 <_vfiprintf_r+0xa68>
   1dcac:	000c8413          	mv	s0,s9
   1dcb0:	c88ff06f          	j	1d138 <_vfiprintf_r+0x150>
   1dcb4:	00000793          	li	a5,0
   1dcb8:	f05ff06f          	j	1dbbc <_vfiprintf_r+0xbd4>
   1dcbc:	07010613          	addi	a2,sp,112
   1dcc0:	000d0593          	mv	a1,s10
   1dcc4:	000a8513          	mv	a0,s5
   1dcc8:	02513423          	sd	t0,40(sp)
   1dccc:	02613023          	sd	t1,32(sp)
   1dcd0:	a14ff0ef          	jal	1cee4 <__sprint_r.part.0>
   1dcd4:	d6051ee3          	bnez	a0,1da50 <_vfiprintf_r+0xa68>
   1dcd8:	07812603          	lw	a2,120(sp)
   1dcdc:	08013783          	ld	a5,128(sp)
   1dce0:	000c8413          	mv	s0,s9
   1dce4:	0016059b          	addiw	a1,a2,1
   1dce8:	02813283          	ld	t0,40(sp)
   1dcec:	02013303          	ld	t1,32(sp)
   1dcf0:	bbdff06f          	j	1d8ac <_vfiprintf_r+0x8c4>
   1dcf4:	07010613          	addi	a2,sp,112
   1dcf8:	000d0593          	mv	a1,s10
   1dcfc:	000a8513          	mv	a0,s5
   1dd00:	02513823          	sd	t0,48(sp)
   1dd04:	02713423          	sd	t2,40(sp)
   1dd08:	02613023          	sd	t1,32(sp)
   1dd0c:	9d8ff0ef          	jal	1cee4 <__sprint_r.part.0>
   1dd10:	d40510e3          	bnez	a0,1da50 <_vfiprintf_r+0xa68>
   1dd14:	07812603          	lw	a2,120(sp)
   1dd18:	08013783          	ld	a5,128(sp)
   1dd1c:	000c8413          	mv	s0,s9
   1dd20:	0016059b          	addiw	a1,a2,1
   1dd24:	03013283          	ld	t0,48(sp)
   1dd28:	02813383          	ld	t2,40(sp)
   1dd2c:	02013303          	ld	t1,32(sp)
   1dd30:	e50ff06f          	j	1d380 <_vfiprintf_r+0x398>
   1dd34:	1e079063          	bnez	a5,1df14 <_vfiprintf_r+0xf2c>
   1dd38:	00100593          	li	a1,1
   1dd3c:	00000613          	li	a2,0
   1dd40:	000c8413          	mv	s0,s9
   1dd44:	b71ff06f          	j	1d8b4 <_vfiprintf_r+0x8cc>
   1dd48:	07010613          	addi	a2,sp,112
   1dd4c:	000d0593          	mv	a1,s10
   1dd50:	000a8513          	mv	a0,s5
   1dd54:	02613023          	sd	t1,32(sp)
   1dd58:	98cff0ef          	jal	1cee4 <__sprint_r.part.0>
   1dd5c:	ce051ae3          	bnez	a0,1da50 <_vfiprintf_r+0xa68>
   1dd60:	07812583          	lw	a1,120(sp)
   1dd64:	08013783          	ld	a5,128(sp)
   1dd68:	000c8413          	mv	s0,s9
   1dd6c:	0015859b          	addiw	a1,a1,1
   1dd70:	02013303          	ld	t1,32(sp)
   1dd74:	eecff06f          	j	1d460 <_vfiprintf_r+0x478>
   1dd78:	00e13423          	sd	a4,8(sp)
   1dd7c:	00022737          	lui	a4,0x22
   1dd80:	cb870713          	addi	a4,a4,-840 # 21cb8 <zeroes.4123+0x6a8>
   1dd84:	00060313          	mv	t1,a2
   1dd88:	00e13c23          	sd	a4,24(sp)
   1dd8c:	e20796e3          	bnez	a5,1dbb8 <_vfiprintf_r+0xbd0>
   1dd90:	00000593          	li	a1,0
   1dd94:	00200793          	li	a5,2
   1dd98:	e75ff06f          	j	1dc0c <_vfiprintf_r+0xc24>
   1dd9c:	03000613          	li	a2,48
   1dda0:	06e104a3          	sb	a4,105(sp)
   1dda4:	06c10423          	sb	a2,104(sp)
   1dda8:	060103a3          	sb	zero,103(sp)
   1ddac:	00236713          	ori	a4,t1,2
   1ddb0:	1a04c463          	bltz	s1,1df58 <_vfiprintf_r+0xf70>
   1ddb4:	f7f37313          	andi	t1,t1,-129
   1ddb8:	00236313          	ori	t1,t1,2
   1ddbc:	00000593          	li	a1,0
   1ddc0:	dfdff06f          	j	1dbbc <_vfiprintf_r+0xbd4>
   1ddc4:	00022737          	lui	a4,0x22
   1ddc8:	cb870713          	addi	a4,a4,-840 # 21cb8 <zeroes.4123+0x6a8>
   1ddcc:	00000593          	li	a1,0
   1ddd0:	00e13c23          	sd	a4,24(sp)
   1ddd4:	de9ff06f          	j	1dbbc <_vfiprintf_r+0xbd4>
   1ddd8:	000b0493          	mv	s1,s6
   1dddc:	b68ff06f          	j	1d144 <_vfiprintf_r+0x15c>
   1dde0:	00813783          	ld	a5,8(sp)
   1dde4:	00878713          	addi	a4,a5,8
   1dde8:	0007e783          	lwu	a5,0(a5)
   1ddec:	8404d4e3          	bgez	s1,1d634 <_vfiprintf_r+0x64c>
   1ddf0:	e0dff06f          	j	1dbfc <_vfiprintf_r+0xc14>
   1ddf4:	00813783          	ld	a5,8(sp)
   1ddf8:	00878713          	addi	a4,a5,8
   1ddfc:	0007e783          	lwu	a5,0(a5)
   1de00:	f804d263          	bgez	s1,1d584 <_vfiprintf_r+0x59c>
   1de04:	e81ff06f          	j	1dc84 <_vfiprintf_r+0xc9c>
   1de08:	02d00713          	li	a4,45
   1de0c:	06e103a3          	sb	a4,103(sp)
   1de10:	40f007b3          	neg	a5,a5
   1de14:	1804c863          	bltz	s1,1dfa4 <_vfiprintf_r+0xfbc>
   1de18:	f7f37313          	andi	t1,t1,-129
   1de1c:	02d00593          	li	a1,45
   1de20:	f10ff06f          	j	1d530 <_vfiprintf_r+0x548>
   1de24:	0006e783          	lwu	a5,0(a3)
   1de28:	00868693          	addi	a3,a3,8
   1de2c:	00d13423          	sd	a3,8(sp)
   1de30:	905ff06f          	j	1d734 <_vfiprintf_r+0x74c>
   1de34:	00813703          	ld	a4,8(sp)
   1de38:	04037313          	andi	t1,t1,64
   1de3c:	00073783          	ld	a5,0(a4)
   1de40:	00870713          	addi	a4,a4,8
   1de44:	00e13423          	sd	a4,8(sp)
   1de48:	08030063          	beqz	t1,1dec8 <_vfiprintf_r+0xee0>
   1de4c:	05815703          	lhu	a4,88(sp)
   1de50:	00e79023          	sh	a4,0(a5)
   1de54:	a84ff06f          	j	1d0d8 <_vfiprintf_r+0xf0>
   1de58:	00072783          	lw	a5,0(a4)
   1de5c:	00870713          	addi	a4,a4,8
   1de60:	00e13423          	sd	a4,8(sp)
   1de64:	eb8ff06f          	j	1d51c <_vfiprintf_r+0x534>
   1de68:	07010613          	addi	a2,sp,112
   1de6c:	000d0593          	mv	a1,s10
   1de70:	000a8513          	mv	a0,s5
   1de74:	02513823          	sd	t0,48(sp)
   1de78:	02713423          	sd	t2,40(sp)
   1de7c:	02613023          	sd	t1,32(sp)
   1de80:	864ff0ef          	jal	1cee4 <__sprint_r.part.0>
   1de84:	bc0516e3          	bnez	a0,1da50 <_vfiprintf_r+0xa68>
   1de88:	07812603          	lw	a2,120(sp)
   1de8c:	08013783          	ld	a5,128(sp)
   1de90:	000c8413          	mv	s0,s9
   1de94:	0016059b          	addiw	a1,a2,1
   1de98:	03013283          	ld	t0,48(sp)
   1de9c:	02813383          	ld	t2,40(sp)
   1dea0:	02013303          	ld	t1,32(sp)
   1dea4:	9c9ff06f          	j	1d86c <_vfiprintf_r+0x884>
   1dea8:	fff00513          	li	a0,-1
   1deac:	b48ff06f          	j	1d1f4 <_vfiprintf_r+0x20c>
   1deb0:	000c8413          	mv	s0,s9
   1deb4:	acdff06f          	j	1d980 <_vfiprintf_r+0x998>
   1deb8:	00000613          	li	a2,0
   1debc:	00100593          	li	a1,1
   1dec0:	000c8413          	mv	s0,s9
   1dec4:	9e9ff06f          	j	1d8ac <_vfiprintf_r+0x8c4>
   1dec8:	05812703          	lw	a4,88(sp)
   1decc:	00e7a023          	sw	a4,0(a5)
   1ded0:	a08ff06f          	j	1d0d8 <_vfiprintf_r+0xf0>
   1ded4:	08013783          	ld	a5,128(sp)
   1ded8:	b6078ce3          	beqz	a5,1da50 <_vfiprintf_r+0xa68>
   1dedc:	07010613          	addi	a2,sp,112
   1dee0:	000d0593          	mv	a1,s10
   1dee4:	000a8513          	mv	a0,s5
   1dee8:	ffdfe0ef          	jal	1cee4 <__sprint_r.part.0>
   1deec:	b65ff06f          	j	1da50 <_vfiprintf_r+0xa68>
   1def0:	000b8513          	mv	a0,s7
   1def4:	02613023          	sd	t1,32(sp)
   1def8:	b39f30ef          	jal	11a30 <strlen>
   1defc:	00050a1b          	sext.w	s4,a0
   1df00:	06714583          	lbu	a1,103(sp)
   1df04:	01b13423          	sd	s11,8(sp)
   1df08:	00000493          	li	s1,0
   1df0c:	02013303          	ld	t1,32(sp)
   1df10:	ba4ff06f          	j	1d2b4 <_vfiprintf_r+0x2cc>
   1df14:	07010613          	addi	a2,sp,112
   1df18:	000d0593          	mv	a1,s10
   1df1c:	000a8513          	mv	a0,s5
   1df20:	02613023          	sd	t1,32(sp)
   1df24:	fc1fe0ef          	jal	1cee4 <__sprint_r.part.0>
   1df28:	b20514e3          	bnez	a0,1da50 <_vfiprintf_r+0xa68>
   1df2c:	07812603          	lw	a2,120(sp)
   1df30:	08013783          	ld	a5,128(sp)
   1df34:	000c8413          	mv	s0,s9
   1df38:	0016059b          	addiw	a1,a2,1
   1df3c:	02013303          	ld	t1,32(sp)
   1df40:	975ff06f          	j	1d8b4 <_vfiprintf_r+0x8cc>
   1df44:	07812603          	lw	a2,120(sp)
   1df48:	08013783          	ld	a5,128(sp)
   1df4c:	05813823          	sd	s8,80(sp)
   1df50:	0016061b          	addiw	a2,a2,1
   1df54:	bfcff06f          	j	1d350 <_vfiprintf_r+0x368>
   1df58:	00000593          	li	a1,0
   1df5c:	00200613          	li	a2,2
   1df60:	00100513          	li	a0,1
   1df64:	08a60263          	beq	a2,a0,1dfe8 <_vfiprintf_r+0x1000>
   1df68:	00200513          	li	a0,2
   1df6c:	08a61263          	bne	a2,a0,1dff0 <_vfiprintf_r+0x1008>
   1df70:	00070313          	mv	t1,a4
   1df74:	c49ff06f          	j	1dbbc <_vfiprintf_r+0xbd4>
   1df78:	00600793          	li	a5,6
   1df7c:	0097f463          	bleu	s1,a5,1df84 <_vfiprintf_r+0xf9c>
   1df80:	00078493          	mv	s1,a5
   1df84:	00048a13          	mv	s4,s1
   1df88:	00048993          	mv	s3,s1
   1df8c:	0604c663          	bltz	s1,1dff8 <_vfiprintf_r+0x1010>
   1df90:	00022737          	lui	a4,0x22
   1df94:	01b13423          	sd	s11,8(sp)
   1df98:	cd070b93          	addi	s7,a4,-816 # 21cd0 <zeroes.4123+0x6c0>
   1df9c:	00000493          	li	s1,0
   1dfa0:	b28ff06f          	j	1d2c8 <_vfiprintf_r+0x2e0>
   1dfa4:	00030713          	mv	a4,t1
   1dfa8:	02d00593          	li	a1,45
   1dfac:	00100613          	li	a2,1
   1dfb0:	fb1ff06f          	j	1df60 <_vfiprintf_r+0xf78>
   1dfb4:	07812583          	lw	a1,120(sp)
   1dfb8:	05813823          	sd	s8,80(sp)
   1dfbc:	0015859b          	addiw	a1,a1,1
   1dfc0:	a29ff06f          	j	1d9e8 <_vfiprintf_r+0xa00>
   1dfc4:	00021737          	lui	a4,0x21
   1dfc8:	00058513          	mv	a0,a1
   1dfcc:	38870d93          	addi	s11,a4,904 # 21388 <zeroes.4137>
   1dfd0:	c60ff06f          	j	1d430 <_vfiprintf_r+0x448>
   1dfd4:	00048a13          	mv	s4,s1
   1dfd8:	06714583          	lbu	a1,103(sp)
   1dfdc:	01b13423          	sd	s11,8(sp)
   1dfe0:	00000493          	li	s1,0
   1dfe4:	ad0ff06f          	j	1d2b4 <_vfiprintf_r+0x2cc>
   1dfe8:	00070313          	mv	t1,a4
   1dfec:	d44ff06f          	j	1d530 <_vfiprintf_r+0x548>
   1dff0:	00070313          	mv	t1,a4
   1dff4:	da8ff06f          	j	1d59c <_vfiprintf_r+0x5b4>
   1dff8:	00000993          	li	s3,0
   1dffc:	f95ff06f          	j	1df90 <_vfiprintf_r+0xfa8>
   1e000:	00813783          	ld	a5,8(sp)
   1e004:	00080b13          	mv	s6,a6
   1e008:	0007a483          	lw	s1,0(a5)
   1e00c:	00878b93          	addi	s7,a5,8
   1e010:	01713423          	sd	s7,8(sp)
   1e014:	9804de63          	bgez	s1,1d1b0 <_vfiprintf_r+0x1c8>
   1e018:	fff00493          	li	s1,-1
   1e01c:	000b0813          	mv	a6,s6
   1e020:	954ff06f          	j	1d174 <_vfiprintf_r+0x18c>
   1e024:	07d103a3          	sb	t4,103(sp)
   1e028:	f44ff06f          	j	1d76c <_vfiprintf_r+0x784>
   1e02c:	07d103a3          	sb	t4,103(sp)
   1e030:	ee0ff06f          	j	1d710 <_vfiprintf_r+0x728>
   1e034:	07d103a3          	sb	t4,103(sp)
   1e038:	fb0ff06f          	j	1d7e8 <_vfiprintf_r+0x800>
   1e03c:	00137793          	andi	a5,t1,1
   1e040:	00078c63          	beqz	a5,1e058 <_vfiprintf_r+0x1070>
   1e044:	03000793          	li	a5,48
   1e048:	0af107a3          	sb	a5,175(sp)
   1e04c:	05c12a03          	lw	s4,92(sp)
   1e050:	0af10b93          	addi	s7,sp,175
   1e054:	a60ff06f          	j	1d2b4 <_vfiprintf_r+0x2cc>
   1e058:	00000a13          	li	s4,0
   1e05c:	000c8b93          	mv	s7,s9
   1e060:	a54ff06f          	j	1d2b4 <_vfiprintf_r+0x2cc>
   1e064:	07d103a3          	sb	t4,103(sp)
   1e068:	cfcff06f          	j	1d564 <_vfiprintf_r+0x57c>
   1e06c:	07d103a3          	sb	t4,103(sp)
   1e070:	c90ff06f          	j	1d500 <_vfiprintf_r+0x518>
   1e074:	07d103a3          	sb	t4,103(sp)
   1e078:	d94ff06f          	j	1d60c <_vfiprintf_r+0x624>
   1e07c:	07d103a3          	sb	t4,103(sp)
   1e080:	d64ff06f          	j	1d5e4 <_vfiprintf_r+0x5fc>

000000000001e084 <vfiprintf>:
   1e084:	00060693          	mv	a3,a2
   1e088:	00058613          	mv	a2,a1
   1e08c:	00050593          	mv	a1,a0
   1e090:	8101b503          	ld	a0,-2032(gp) # 243e0 <_impure_ptr>
   1e094:	f55fe06f          	j	1cfe8 <_vfiprintf_r>

000000000001e098 <__sbprintf>:
   1e098:	0105d783          	lhu	a5,16(a1)
   1e09c:	0ac5ae03          	lw	t3,172(a1)
   1e0a0:	0125d303          	lhu	t1,18(a1)
   1e0a4:	0305b883          	ld	a7,48(a1)
   1e0a8:	0405b803          	ld	a6,64(a1)
   1e0ac:	b3010113          	addi	sp,sp,-1232
   1e0b0:	ffd7f793          	andi	a5,a5,-3
   1e0b4:	40000713          	li	a4,1024
   1e0b8:	4c813023          	sd	s0,1216(sp)
   1e0bc:	00f11823          	sh	a5,16(sp)
   1e0c0:	00058413          	mv	s0,a1
   1e0c4:	0b010793          	addi	a5,sp,176
   1e0c8:	00010593          	mv	a1,sp
   1e0cc:	4a913c23          	sd	s1,1208(sp)
   1e0d0:	4b213823          	sd	s2,1200(sp)
   1e0d4:	4c113423          	sd	ra,1224(sp)
   1e0d8:	00050913          	mv	s2,a0
   1e0dc:	0bc12623          	sw	t3,172(sp)
   1e0e0:	00611923          	sh	t1,18(sp)
   1e0e4:	03113823          	sd	a7,48(sp)
   1e0e8:	05013023          	sd	a6,64(sp)
   1e0ec:	00f13023          	sd	a5,0(sp)
   1e0f0:	00f13c23          	sd	a5,24(sp)
   1e0f4:	00e12623          	sw	a4,12(sp)
   1e0f8:	02e12023          	sw	a4,32(sp)
   1e0fc:	02012423          	sw	zero,40(sp)
   1e100:	ee9fe0ef          	jal	1cfe8 <_vfiprintf_r>
   1e104:	00050493          	mv	s1,a0
   1e108:	00054a63          	bltz	a0,1e11c <__sbprintf+0x84>
   1e10c:	00010593          	mv	a1,sp
   1e110:	00090513          	mv	a0,s2
   1e114:	bd0f80ef          	jal	164e4 <_fflush_r>
   1e118:	02051c63          	bnez	a0,1e150 <__sbprintf+0xb8>
   1e11c:	01015783          	lhu	a5,16(sp)
   1e120:	0407f793          	andi	a5,a5,64
   1e124:	00078863          	beqz	a5,1e134 <__sbprintf+0x9c>
   1e128:	01045783          	lhu	a5,16(s0)
   1e12c:	0407e793          	ori	a5,a5,64
   1e130:	00f41823          	sh	a5,16(s0)
   1e134:	4c813083          	ld	ra,1224(sp)
   1e138:	00048513          	mv	a0,s1
   1e13c:	4c013403          	ld	s0,1216(sp)
   1e140:	4b813483          	ld	s1,1208(sp)
   1e144:	4b013903          	ld	s2,1200(sp)
   1e148:	4d010113          	addi	sp,sp,1232
   1e14c:	00008067          	ret
   1e150:	fff00493          	li	s1,-1
   1e154:	fc9ff06f          	j	1e11c <__sbprintf+0x84>

000000000001e158 <_calloc_r>:
   1e158:	02c585b3          	mul	a1,a1,a2
   1e15c:	ff010113          	addi	sp,sp,-16
   1e160:	00113423          	sd	ra,8(sp)
   1e164:	00813023          	sd	s0,0(sp)
   1e168:	ba5f20ef          	jal	10d0c <_malloc_r>
   1e16c:	08050c63          	beqz	a0,1e204 <_calloc_r+0xac>
   1e170:	ff853603          	ld	a2,-8(a0)
   1e174:	04800713          	li	a4,72
   1e178:	00050413          	mv	s0,a0
   1e17c:	ffc67613          	andi	a2,a2,-4
   1e180:	ff860613          	addi	a2,a2,-8
   1e184:	04c76e63          	bltu	a4,a2,1e1e0 <_calloc_r+0x88>
   1e188:	02700693          	li	a3,39
   1e18c:	00050793          	mv	a5,a0
   1e190:	02c6f863          	bleu	a2,a3,1e1c0 <_calloc_r+0x68>
   1e194:	00053023          	sd	zero,0(a0)
   1e198:	00053423          	sd	zero,8(a0)
   1e19c:	03700793          	li	a5,55
   1e1a0:	04c7fe63          	bleu	a2,a5,1e1fc <_calloc_r+0xa4>
   1e1a4:	00053823          	sd	zero,16(a0)
   1e1a8:	00053c23          	sd	zero,24(a0)
   1e1ac:	02050793          	addi	a5,a0,32
   1e1b0:	00e61863          	bne	a2,a4,1e1c0 <_calloc_r+0x68>
   1e1b4:	02053023          	sd	zero,32(a0)
   1e1b8:	03050793          	addi	a5,a0,48
   1e1bc:	02053423          	sd	zero,40(a0)
   1e1c0:	0007b023          	sd	zero,0(a5)
   1e1c4:	0007b423          	sd	zero,8(a5)
   1e1c8:	0007b823          	sd	zero,16(a5)
   1e1cc:	00040513          	mv	a0,s0
   1e1d0:	00813083          	ld	ra,8(sp)
   1e1d4:	00013403          	ld	s0,0(sp)
   1e1d8:	01010113          	addi	sp,sp,16
   1e1dc:	00008067          	ret
   1e1e0:	00000593          	li	a1,0
   1e1e4:	aadf90ef          	jal	17c90 <memset>
   1e1e8:	00813083          	ld	ra,8(sp)
   1e1ec:	00040513          	mv	a0,s0
   1e1f0:	00013403          	ld	s0,0(sp)
   1e1f4:	01010113          	addi	sp,sp,16
   1e1f8:	00008067          	ret
   1e1fc:	01050793          	addi	a5,a0,16
   1e200:	fc1ff06f          	j	1e1c0 <_calloc_r+0x68>
   1e204:	00000513          	li	a0,0
   1e208:	fc9ff06f          	j	1e1d0 <_calloc_r+0x78>

000000000001e20c <_fclose_r>:
   1e20c:	0e058e63          	beqz	a1,1e308 <_fclose_r+0xfc>
   1e210:	fe010113          	addi	sp,sp,-32
   1e214:	00813823          	sd	s0,16(sp)
   1e218:	00913423          	sd	s1,8(sp)
   1e21c:	00113c23          	sd	ra,24(sp)
   1e220:	01213023          	sd	s2,0(sp)
   1e224:	00050493          	mv	s1,a0
   1e228:	00058413          	mv	s0,a1
   1e22c:	00050663          	beqz	a0,1e238 <_fclose_r+0x2c>
   1e230:	05052783          	lw	a5,80(a0)
   1e234:	0a078a63          	beqz	a5,1e2e8 <_fclose_r+0xdc>
   1e238:	01041783          	lh	a5,16(s0)
   1e23c:	00000513          	li	a0,0
   1e240:	00079e63          	bnez	a5,1e25c <_fclose_r+0x50>
   1e244:	01813083          	ld	ra,24(sp)
   1e248:	01013403          	ld	s0,16(sp)
   1e24c:	00813483          	ld	s1,8(sp)
   1e250:	00013903          	ld	s2,0(sp)
   1e254:	02010113          	addi	sp,sp,32
   1e258:	00008067          	ret
   1e25c:	00040593          	mv	a1,s0
   1e260:	00048513          	mv	a0,s1
   1e264:	814f80ef          	jal	16278 <__sflush_r>
   1e268:	05043783          	ld	a5,80(s0)
   1e26c:	00050913          	mv	s2,a0
   1e270:	00078a63          	beqz	a5,1e284 <_fclose_r+0x78>
   1e274:	03043583          	ld	a1,48(s0)
   1e278:	00048513          	mv	a0,s1
   1e27c:	000780e7          	jalr	a5
   1e280:	06054863          	bltz	a0,1e2f0 <_fclose_r+0xe4>
   1e284:	01045783          	lhu	a5,16(s0)
   1e288:	0807f793          	andi	a5,a5,128
   1e28c:	06079663          	bnez	a5,1e2f8 <_fclose_r+0xec>
   1e290:	05843583          	ld	a1,88(s0)
   1e294:	00058c63          	beqz	a1,1e2ac <_fclose_r+0xa0>
   1e298:	07440793          	addi	a5,s0,116
   1e29c:	00f58663          	beq	a1,a5,1e2a8 <_fclose_r+0x9c>
   1e2a0:	00048513          	mv	a0,s1
   1e2a4:	9b1f80ef          	jal	16c54 <_free_r>
   1e2a8:	04043c23          	sd	zero,88(s0)
   1e2ac:	07843583          	ld	a1,120(s0)
   1e2b0:	00058863          	beqz	a1,1e2c0 <_fclose_r+0xb4>
   1e2b4:	00048513          	mv	a0,s1
   1e2b8:	99df80ef          	jal	16c54 <_free_r>
   1e2bc:	06043c23          	sd	zero,120(s0)
   1e2c0:	de0f80ef          	jal	168a0 <__sfp_lock_acquire>
   1e2c4:	00041823          	sh	zero,16(s0)
   1e2c8:	ddcf80ef          	jal	168a4 <__sfp_lock_release>
   1e2cc:	01813083          	ld	ra,24(sp)
   1e2d0:	00090513          	mv	a0,s2
   1e2d4:	01013403          	ld	s0,16(sp)
   1e2d8:	00813483          	ld	s1,8(sp)
   1e2dc:	00013903          	ld	s2,0(sp)
   1e2e0:	02010113          	addi	sp,sp,32
   1e2e4:	00008067          	ret
   1e2e8:	da8f80ef          	jal	16890 <__sinit>
   1e2ec:	f4dff06f          	j	1e238 <_fclose_r+0x2c>
   1e2f0:	fff00913          	li	s2,-1
   1e2f4:	f91ff06f          	j	1e284 <_fclose_r+0x78>
   1e2f8:	01843583          	ld	a1,24(s0)
   1e2fc:	00048513          	mv	a0,s1
   1e300:	955f80ef          	jal	16c54 <_free_r>
   1e304:	f8dff06f          	j	1e290 <_fclose_r+0x84>
   1e308:	00000513          	li	a0,0
   1e30c:	00008067          	ret

000000000001e310 <fclose>:
   1e310:	00050593          	mv	a1,a0
   1e314:	8101b503          	ld	a0,-2032(gp) # 243e0 <_impure_ptr>
   1e318:	ef5ff06f          	j	1e20c <_fclose_r>

000000000001e31c <__fputwc>:
   1e31c:	fb010113          	addi	sp,sp,-80
   1e320:	04813023          	sd	s0,64(sp)
   1e324:	03413023          	sd	s4,32(sp)
   1e328:	01513c23          	sd	s5,24(sp)
   1e32c:	04113423          	sd	ra,72(sp)
   1e330:	02913c23          	sd	s1,56(sp)
   1e334:	03213823          	sd	s2,48(sp)
   1e338:	03313423          	sd	s3,40(sp)
   1e33c:	01613823          	sd	s6,16(sp)
   1e340:	00050a93          	mv	s5,a0
   1e344:	00058a13          	mv	s4,a1
   1e348:	00060413          	mv	s0,a2
   1e34c:	af0f90ef          	jal	1763c <__locale_mb_cur_max>
   1e350:	00100793          	li	a5,1
   1e354:	10f50663          	beq	a0,a5,1e460 <__fputwc+0x144>
   1e358:	00810493          	addi	s1,sp,8
   1e35c:	0a440693          	addi	a3,s0,164
   1e360:	000a0613          	mv	a2,s4
   1e364:	00048593          	mv	a1,s1
   1e368:	000a8513          	mv	a0,s5
   1e36c:	565010ef          	jal	200d0 <_wcrtomb_r>
   1e370:	fff00793          	li	a5,-1
   1e374:	00050993          	mv	s3,a0
   1e378:	08f50e63          	beq	a0,a5,1e414 <__fputwc+0xf8>
   1e37c:	10050263          	beqz	a0,1e480 <__fputwc+0x164>
   1e380:	00814583          	lbu	a1,8(sp)
   1e384:	00c42783          	lw	a5,12(s0)
   1e388:	00000913          	li	s2,0
   1e38c:	00a00b13          	li	s6,10
   1e390:	fff7879b          	addiw	a5,a5,-1
   1e394:	00f42623          	sw	a5,12(s0)
   1e398:	0207cc63          	bltz	a5,1e3d0 <__fputwc+0xb4>
   1e39c:	00043783          	ld	a5,0(s0)
   1e3a0:	00b78023          	sb	a1,0(a5)
   1e3a4:	00043783          	ld	a5,0(s0)
   1e3a8:	00178793          	addi	a5,a5,1
   1e3ac:	00f43023          	sd	a5,0(s0)
   1e3b0:	00190913          	addi	s2,s2,1
   1e3b4:	00148493          	addi	s1,s1,1
   1e3b8:	0d397463          	bleu	s3,s2,1e480 <__fputwc+0x164>
   1e3bc:	00c42783          	lw	a5,12(s0)
   1e3c0:	0004c583          	lbu	a1,0(s1)
   1e3c4:	fff7879b          	addiw	a5,a5,-1
   1e3c8:	00f42623          	sw	a5,12(s0)
   1e3cc:	fc07d8e3          	bgez	a5,1e39c <__fputwc+0x80>
   1e3d0:	02842703          	lw	a4,40(s0)
   1e3d4:	06e7ca63          	blt	a5,a4,1e448 <__fputwc+0x12c>
   1e3d8:	00043783          	ld	a5,0(s0)
   1e3dc:	00b78023          	sb	a1,0(a5)
   1e3e0:	00043783          	ld	a5,0(s0)
   1e3e4:	0007c703          	lbu	a4,0(a5)
   1e3e8:	00178793          	addi	a5,a5,1
   1e3ec:	fd6710e3          	bne	a4,s6,1e3ac <__fputwc+0x90>
   1e3f0:	00040613          	mv	a2,s0
   1e3f4:	000b0593          	mv	a1,s6
   1e3f8:	000a8513          	mv	a0,s5
   1e3fc:	e08f60ef          	jal	14a04 <__swbuf_r>
   1e400:	0015051b          	addiw	a0,a0,1
   1e404:	00153513          	seqz	a0,a0
   1e408:	fa0504e3          	beqz	a0,1e3b0 <__fputwc+0x94>
   1e40c:	fff00513          	li	a0,-1
   1e410:	0100006f          	j	1e420 <__fputwc+0x104>
   1e414:	01045783          	lhu	a5,16(s0)
   1e418:	0407e793          	ori	a5,a5,64
   1e41c:	00f41823          	sh	a5,16(s0)
   1e420:	04813083          	ld	ra,72(sp)
   1e424:	04013403          	ld	s0,64(sp)
   1e428:	03813483          	ld	s1,56(sp)
   1e42c:	03013903          	ld	s2,48(sp)
   1e430:	02813983          	ld	s3,40(sp)
   1e434:	02013a03          	ld	s4,32(sp)
   1e438:	01813a83          	ld	s5,24(sp)
   1e43c:	01013b03          	ld	s6,16(sp)
   1e440:	05010113          	addi	sp,sp,80
   1e444:	00008067          	ret
   1e448:	00040613          	mv	a2,s0
   1e44c:	000a8513          	mv	a0,s5
   1e450:	db4f60ef          	jal	14a04 <__swbuf_r>
   1e454:	0015051b          	addiw	a0,a0,1
   1e458:	00153513          	seqz	a0,a0
   1e45c:	fadff06f          	j	1e408 <__fputwc+0xec>
   1e460:	fffa079b          	addiw	a5,s4,-1
   1e464:	0fe00713          	li	a4,254
   1e468:	eef768e3          	bltu	a4,a5,1e358 <__fputwc+0x3c>
   1e46c:	0ffa7593          	andi	a1,s4,255
   1e470:	00b10423          	sb	a1,8(sp)
   1e474:	00100993          	li	s3,1
   1e478:	00810493          	addi	s1,sp,8
   1e47c:	f09ff06f          	j	1e384 <__fputwc+0x68>
   1e480:	000a0513          	mv	a0,s4
   1e484:	f9dff06f          	j	1e420 <__fputwc+0x104>

000000000001e488 <_fputwc_r>:
   1e488:	01061783          	lh	a5,16(a2)
   1e48c:	00002737          	lui	a4,0x2
   1e490:	03279693          	slli	a3,a5,0x32
   1e494:	0006cc63          	bltz	a3,1e4ac <_fputwc_r+0x24>
   1e498:	0ac62683          	lw	a3,172(a2)
   1e49c:	00e7e7b3          	or	a5,a5,a4
   1e4a0:	00f61823          	sh	a5,16(a2)
   1e4a4:	00e6e733          	or	a4,a3,a4
   1e4a8:	0ae62623          	sw	a4,172(a2)
   1e4ac:	e71ff06f          	j	1e31c <__fputwc>

000000000001e4b0 <fputwc>:
   1e4b0:	fd010113          	addi	sp,sp,-48
   1e4b4:	02813023          	sd	s0,32(sp)
   1e4b8:	8101b403          	ld	s0,-2032(gp) # 243e0 <_impure_ptr>
   1e4bc:	00913c23          	sd	s1,24(sp)
   1e4c0:	02113423          	sd	ra,40(sp)
   1e4c4:	00050493          	mv	s1,a0
   1e4c8:	00058613          	mv	a2,a1
   1e4cc:	00040663          	beqz	s0,1e4d8 <fputwc+0x28>
   1e4d0:	05042783          	lw	a5,80(s0)
   1e4d4:	04078263          	beqz	a5,1e518 <fputwc+0x68>
   1e4d8:	01061783          	lh	a5,16(a2)
   1e4dc:	00002737          	lui	a4,0x2
   1e4e0:	03279693          	slli	a3,a5,0x32
   1e4e4:	0006cc63          	bltz	a3,1e4fc <fputwc+0x4c>
   1e4e8:	0ac62683          	lw	a3,172(a2)
   1e4ec:	00e7e7b3          	or	a5,a5,a4
   1e4f0:	00f61823          	sh	a5,16(a2)
   1e4f4:	00e6e733          	or	a4,a3,a4
   1e4f8:	0ae62623          	sw	a4,172(a2)
   1e4fc:	00048593          	mv	a1,s1
   1e500:	00040513          	mv	a0,s0
   1e504:	02813083          	ld	ra,40(sp)
   1e508:	02013403          	ld	s0,32(sp)
   1e50c:	01813483          	ld	s1,24(sp)
   1e510:	03010113          	addi	sp,sp,48
   1e514:	e09ff06f          	j	1e31c <__fputwc>
   1e518:	00040513          	mv	a0,s0
   1e51c:	00b13423          	sd	a1,8(sp)
   1e520:	b70f80ef          	jal	16890 <__sinit>
   1e524:	00813603          	ld	a2,8(sp)
   1e528:	fb1ff06f          	j	1e4d8 <fputwc+0x28>

000000000001e52c <rshift>:
   1e52c:	01452703          	lw	a4,20(a0)
   1e530:	4055d69b          	sraiw	a3,a1,0x5
   1e534:	01850893          	addi	a7,a0,24
   1e538:	08e6d863          	ble	a4,a3,1e5c8 <rshift+0x9c>
   1e53c:	00068613          	mv	a2,a3
   1e540:	00271713          	slli	a4,a4,0x2
   1e544:	00261613          	slli	a2,a2,0x2
   1e548:	01f5f593          	andi	a1,a1,31
   1e54c:	00e88733          	add	a4,a7,a4
   1e550:	00c88633          	add	a2,a7,a2
   1e554:	08058063          	beqz	a1,1e5d4 <rshift+0xa8>
   1e558:	00062783          	lw	a5,0(a2)
   1e55c:	02000e13          	li	t3,32
   1e560:	00460693          	addi	a3,a2,4
   1e564:	40be0e3b          	subw	t3,t3,a1
   1e568:	00b7d7bb          	srlw	a5,a5,a1
   1e56c:	0ae6f663          	bleu	a4,a3,1e618 <rshift+0xec>
   1e570:	00088313          	mv	t1,a7
   1e574:	0006a803          	lw	a6,0(a3)
   1e578:	00430313          	addi	t1,t1,4
   1e57c:	00468693          	addi	a3,a3,4
   1e580:	01c8183b          	sllw	a6,a6,t3
   1e584:	00f867b3          	or	a5,a6,a5
   1e588:	fef32e23          	sw	a5,-4(t1)
   1e58c:	ffc6a783          	lw	a5,-4(a3)
   1e590:	00b7d7bb          	srlw	a5,a5,a1
   1e594:	fee6e0e3          	bltu	a3,a4,1e574 <rshift+0x48>
   1e598:	40c70733          	sub	a4,a4,a2
   1e59c:	ffb70713          	addi	a4,a4,-5 # 1ffb <_ftext-0xe005>
   1e5a0:	ffc77713          	andi	a4,a4,-4
   1e5a4:	00470713          	addi	a4,a4,4
   1e5a8:	00e88733          	add	a4,a7,a4
   1e5ac:	00f72023          	sw	a5,0(a4)
   1e5b0:	00078463          	beqz	a5,1e5b8 <rshift+0x8c>
   1e5b4:	00470713          	addi	a4,a4,4
   1e5b8:	411707b3          	sub	a5,a4,a7
   1e5bc:	4027d793          	srai	a5,a5,0x2
   1e5c0:	0007879b          	sext.w	a5,a5
   1e5c4:	0480006f          	j	1e60c <rshift+0xe0>
   1e5c8:	00052a23          	sw	zero,20(a0)
   1e5cc:	00052c23          	sw	zero,24(a0)
   1e5d0:	00008067          	ret
   1e5d4:	00088793          	mv	a5,a7
   1e5d8:	00060693          	mv	a3,a2
   1e5dc:	fee676e3          	bleu	a4,a2,1e5c8 <rshift+0x9c>
   1e5e0:	00468693          	addi	a3,a3,4
   1e5e4:	ffc6a583          	lw	a1,-4(a3)
   1e5e8:	00478793          	addi	a5,a5,4
   1e5ec:	feb7ae23          	sw	a1,-4(a5)
   1e5f0:	fee6e8e3          	bltu	a3,a4,1e5e0 <rshift+0xb4>
   1e5f4:	fff64793          	not	a5,a2
   1e5f8:	00e787b3          	add	a5,a5,a4
   1e5fc:	ffc7f793          	andi	a5,a5,-4
   1e600:	00478793          	addi	a5,a5,4
   1e604:	4027d793          	srai	a5,a5,0x2
   1e608:	0007879b          	sext.w	a5,a5
   1e60c:	00f52a23          	sw	a5,20(a0)
   1e610:	fa078ee3          	beqz	a5,1e5cc <rshift+0xa0>
   1e614:	00008067          	ret
   1e618:	00088713          	mv	a4,a7
   1e61c:	f91ff06f          	j	1e5ac <rshift+0x80>

000000000001e620 <__gethex>:
   1e620:	f4010113          	addi	sp,sp,-192
   1e624:	00d13c23          	sd	a3,24(sp)
   1e628:	00e13423          	sd	a4,8(sp)
   1e62c:	02f12223          	sw	a5,36(sp)
   1e630:	0a113c23          	sd	ra,184(sp)
   1e634:	0a913423          	sd	s1,168(sp)
   1e638:	0b213023          	sd	s2,160(sp)
   1e63c:	09313c23          	sd	s3,152(sp)
   1e640:	00058913          	mv	s2,a1
   1e644:	09413823          	sd	s4,144(sp)
   1e648:	07713c23          	sd	s7,120(sp)
   1e64c:	00060993          	mv	s3,a2
   1e650:	0a813823          	sd	s0,176(sp)
   1e654:	09513423          	sd	s5,136(sp)
   1e658:	09613023          	sd	s6,128(sp)
   1e65c:	07813823          	sd	s8,112(sp)
   1e660:	07913423          	sd	s9,104(sp)
   1e664:	07a13023          	sd	s10,96(sp)
   1e668:	05b13c23          	sd	s11,88(sp)
   1e66c:	00050a13          	mv	s4,a0
   1e670:	fe9f80ef          	jal	17658 <_localeconv_r>
   1e674:	00053483          	ld	s1,0(a0)
   1e678:	00048513          	mv	a0,s1
   1e67c:	bb4f30ef          	jal	11a30 <strlen>
   1e680:	00093783          	ld	a5,0(s2)
   1e684:	00a486b3          	add	a3,s1,a0
   1e688:	fff6c683          	lbu	a3,-1(a3)
   1e68c:	0027c703          	lbu	a4,2(a5)
   1e690:	00050b93          	mv	s7,a0
   1e694:	00d13823          	sd	a3,16(sp)
   1e698:	03000693          	li	a3,48
   1e69c:	5cd71063          	bne	a4,a3,1ec5c <__gethex+0x63c>
   1e6a0:	00378793          	addi	a5,a5,3
   1e6a4:	00000b13          	li	s6,0
   1e6a8:	00070613          	mv	a2,a4
   1e6ac:	00078d93          	mv	s11,a5
   1e6b0:	00178793          	addi	a5,a5,1
   1e6b4:	fff7c703          	lbu	a4,-1(a5)
   1e6b8:	001b0b1b          	addiw	s6,s6,1
   1e6bc:	fec708e3          	beq	a4,a2,1e6ac <__gethex+0x8c>
   1e6c0:	000218b7          	lui	a7,0x21
   1e6c4:	39888a93          	addi	s5,a7,920 # 21398 <__hexdig>
   1e6c8:	00ea8733          	add	a4,s5,a4
   1e6cc:	00074783          	lbu	a5,0(a4)
   1e6d0:	1e078e63          	beqz	a5,1e8cc <__gethex+0x2ac>
   1e6d4:	000dc783          	lbu	a5,0(s11)
   1e6d8:	00000413          	li	s0,0
   1e6dc:	00000c93          	li	s9,0
   1e6e0:	00fa87b3          	add	a5,s5,a5
   1e6e4:	0007c783          	lbu	a5,0(a5)
   1e6e8:	000d8c13          	mv	s8,s11
   1e6ec:	00078c63          	beqz	a5,1e704 <__gethex+0xe4>
   1e6f0:	001c0c13          	addi	s8,s8,1
   1e6f4:	000c4783          	lbu	a5,0(s8)
   1e6f8:	00fa87b3          	add	a5,s5,a5
   1e6fc:	0007c783          	lbu	a5,0(a5)
   1e700:	fe0798e3          	bnez	a5,1e6f0 <__gethex+0xd0>
   1e704:	000b8613          	mv	a2,s7
   1e708:	00048593          	mv	a1,s1
   1e70c:	000c0513          	mv	a0,s8
   1e710:	101000ef          	jal	1f010 <strncmp>
   1e714:	1a050663          	beqz	a0,1e8c0 <__gethex+0x2a0>
   1e718:	000c4783          	lbu	a5,0(s8)
   1e71c:	500c8a63          	beqz	s9,1ec30 <__gethex+0x610>
   1e720:	419c0cbb          	subw	s9,s8,s9
   1e724:	002c9c9b          	slliw	s9,s9,0x2
   1e728:	41900cbb          	negw	s9,s9
   1e72c:	05000713          	li	a4,80
   1e730:	20e78e63          	beq	a5,a4,1e94c <__gethex+0x32c>
   1e734:	07000713          	li	a4,112
   1e738:	000c0d13          	mv	s10,s8
   1e73c:	20e78863          	beq	a5,a4,1e94c <__gethex+0x32c>
   1e740:	01893023          	sd	s8,0(s2)
   1e744:	1a041c63          	bnez	s0,1e8fc <__gethex+0x2dc>
   1e748:	41bd07b3          	sub	a5,s10,s11
   1e74c:	fff7879b          	addiw	a5,a5,-1
   1e750:	00700713          	li	a4,7
   1e754:	00000593          	li	a1,0
   1e758:	00f75863          	ble	a5,a4,1e768 <__gethex+0x148>
   1e75c:	4017d79b          	sraiw	a5,a5,0x1
   1e760:	0015859b          	addiw	a1,a1,1
   1e764:	fef74ce3          	blt	a4,a5,1e75c <__gethex+0x13c>
   1e768:	000a0513          	mv	a0,s4
   1e76c:	e00f90ef          	jal	17d6c <_Balloc>
   1e770:	01850913          	addi	s2,a0,24
   1e774:	00050b13          	mv	s6,a0
   1e778:	00090313          	mv	t1,s2
   1e77c:	00000793          	li	a5,0
   1e780:	05adf863          	bleu	s10,s11,1e7d0 <__gethex+0x1b0>
   1e784:	01012403          	lw	s0,16(sp)
   1e788:	00100f13          	li	t5,1
   1e78c:	00000c13          	li	s8,0
   1e790:	417f0f33          	sub	t5,t5,s7
   1e794:	02000e13          	li	t3,32
   1e798:	fffd4703          	lbu	a4,-1(s10)
   1e79c:	fffd0f93          	addi	t6,s10,-1
   1e7a0:	0a870c63          	beq	a4,s0,1e858 <__gethex+0x238>
   1e7a4:	11cc0263          	beq	s8,t3,1e8a8 <__gethex+0x288>
   1e7a8:	000c0613          	mv	a2,s8
   1e7ac:	004c0c1b          	addiw	s8,s8,4
   1e7b0:	fffd4683          	lbu	a3,-1(s10)
   1e7b4:	000f8d13          	mv	s10,t6
   1e7b8:	00da86b3          	add	a3,s5,a3
   1e7bc:	0006c703          	lbu	a4,0(a3)
   1e7c0:	00f77713          	andi	a4,a4,15
   1e7c4:	00c7173b          	sllw	a4,a4,a2
   1e7c8:	00e7e7b3          	or	a5,a5,a4
   1e7cc:	fdade6e3          	bltu	s11,s10,1e798 <__gethex+0x178>
   1e7d0:	00430713          	addi	a4,t1,4
   1e7d4:	41270733          	sub	a4,a4,s2
   1e7d8:	40275713          	srai	a4,a4,0x2
   1e7dc:	0007071b          	sext.w	a4,a4
   1e7e0:	00f32023          	sw	a5,0(t1)
   1e7e4:	00eb2a23          	sw	a4,20(s6)
   1e7e8:	00078513          	mv	a0,a5
   1e7ec:	0057141b          	slliw	s0,a4,0x5
   1e7f0:	889f90ef          	jal	18078 <__hi0bits>
   1e7f4:	0009a483          	lw	s1,0(s3)
   1e7f8:	40a4053b          	subw	a0,s0,a0
   1e7fc:	3ca4c663          	blt	s1,a0,1ebc8 <__gethex+0x5a8>
   1e800:	00000c13          	li	s8,0
   1e804:	42954a63          	blt	a0,s1,1ec38 <__gethex+0x618>
   1e808:	0089a783          	lw	a5,8(s3)
   1e80c:	2f97ce63          	blt	a5,s9,1eb08 <__gethex+0x4e8>
   1e810:	0049a783          	lw	a5,4(s3)
   1e814:	36fcd863          	ble	a5,s9,1eb84 <__gethex+0x564>
   1e818:	41978cbb          	subw	s9,a5,s9
   1e81c:	1c9ccc63          	blt	s9,s1,1e9f4 <__gethex+0x3d4>
   1e820:	00c9a703          	lw	a4,12(s3)
   1e824:	00200693          	li	a3,2
   1e828:	4ad70a63          	beq	a4,a3,1ecdc <__gethex+0x6bc>
   1e82c:	00300693          	li	a3,3
   1e830:	46d70c63          	beq	a4,a3,1eca8 <__gethex+0x688>
   1e834:	00100693          	li	a3,1
   1e838:	4ad70863          	beq	a4,a3,1ece8 <__gethex+0x6c8>
   1e83c:	000a0513          	mv	a0,s4
   1e840:	000b0593          	mv	a1,s6
   1e844:	dd4f90ef          	jal	17e18 <_Bfree>
   1e848:	00813783          	ld	a5,8(sp)
   1e84c:	05000513          	li	a0,80
   1e850:	0007b023          	sd	zero,0(a5)
   1e854:	0b40006f          	j	1e908 <__gethex+0x2e8>
   1e858:	01ef8733          	add	a4,t6,t5
   1e85c:	f5b764e3          	bltu	a4,s11,1e7a4 <__gethex+0x184>
   1e860:	00070513          	mv	a0,a4
   1e864:	000b8613          	mv	a2,s7
   1e868:	00048593          	mv	a1,s1
   1e86c:	05c13023          	sd	t3,64(sp)
   1e870:	03e13c23          	sd	t5,56(sp)
   1e874:	02f13823          	sd	a5,48(sp)
   1e878:	02613423          	sd	t1,40(sp)
   1e87c:	00e13823          	sd	a4,16(sp)
   1e880:	05f13423          	sd	t6,72(sp)
   1e884:	78c000ef          	jal	1f010 <strncmp>
   1e888:	01013703          	ld	a4,16(sp)
   1e88c:	02813303          	ld	t1,40(sp)
   1e890:	03013783          	ld	a5,48(sp)
   1e894:	03813f03          	ld	t5,56(sp)
   1e898:	04013e03          	ld	t3,64(sp)
   1e89c:	28050463          	beqz	a0,1eb24 <__gethex+0x504>
   1e8a0:	04813f83          	ld	t6,72(sp)
   1e8a4:	f1cc12e3          	bne	s8,t3,1e7a8 <__gethex+0x188>
   1e8a8:	00f32023          	sw	a5,0(t1)
   1e8ac:	00400c13          	li	s8,4
   1e8b0:	00430313          	addi	t1,t1,4
   1e8b4:	00000793          	li	a5,0
   1e8b8:	00000613          	li	a2,0
   1e8bc:	ef5ff06f          	j	1e7b0 <__gethex+0x190>
   1e8c0:	3a0c8863          	beqz	s9,1ec70 <__gethex+0x650>
   1e8c4:	000c4783          	lbu	a5,0(s8)
   1e8c8:	e59ff06f          	j	1e720 <__gethex+0x100>
   1e8cc:	000b8613          	mv	a2,s7
   1e8d0:	00048593          	mv	a1,s1
   1e8d4:	000d8513          	mv	a0,s11
   1e8d8:	738000ef          	jal	1f010 <strncmp>
   1e8dc:	26050063          	beqz	a0,1eb3c <__gethex+0x51c>
   1e8e0:	000dc783          	lbu	a5,0(s11)
   1e8e4:	000d8c13          	mv	s8,s11
   1e8e8:	05000713          	li	a4,80
   1e8ec:	04e78c63          	beq	a5,a4,1e944 <__gethex+0x324>
   1e8f0:	07000713          	li	a4,112
   1e8f4:	04e78863          	beq	a5,a4,1e944 <__gethex+0x324>
   1e8f8:	01893023          	sd	s8,0(s2)
   1e8fc:	001b3513          	seqz	a0,s6
   1e900:	40a0053b          	negw	a0,a0
   1e904:	00657513          	andi	a0,a0,6
   1e908:	0b813083          	ld	ra,184(sp)
   1e90c:	0b013403          	ld	s0,176(sp)
   1e910:	0a813483          	ld	s1,168(sp)
   1e914:	0a013903          	ld	s2,160(sp)
   1e918:	09813983          	ld	s3,152(sp)
   1e91c:	09013a03          	ld	s4,144(sp)
   1e920:	08813a83          	ld	s5,136(sp)
   1e924:	08013b03          	ld	s6,128(sp)
   1e928:	07813b83          	ld	s7,120(sp)
   1e92c:	07013c03          	ld	s8,112(sp)
   1e930:	06813c83          	ld	s9,104(sp)
   1e934:	06013d03          	ld	s10,96(sp)
   1e938:	05813d83          	ld	s11,88(sp)
   1e93c:	0c010113          	addi	sp,sp,192
   1e940:	00008067          	ret
   1e944:	00000c93          	li	s9,0
   1e948:	00100413          	li	s0,1
   1e94c:	001c4783          	lbu	a5,1(s8)
   1e950:	02b00713          	li	a4,43
   1e954:	26e78663          	beq	a5,a4,1ebc0 <__gethex+0x5a0>
   1e958:	02d00713          	li	a4,45
   1e95c:	00100593          	li	a1,1
   1e960:	1ce79863          	bne	a5,a4,1eb30 <__gethex+0x510>
   1e964:	002c4783          	lbu	a5,2(s8)
   1e968:	002c0513          	addi	a0,s8,2
   1e96c:	00fa87b3          	add	a5,s5,a5
   1e970:	0007c783          	lbu	a5,0(a5)
   1e974:	01800e13          	li	t3,24
   1e978:	000c0d13          	mv	s10,s8
   1e97c:	fff7871b          	addiw	a4,a5,-1
   1e980:	0ff77713          	andi	a4,a4,255
   1e984:	daee6ee3          	bltu	t3,a4,1e740 <__gethex+0x120>
   1e988:	00154703          	lbu	a4,1(a0)
   1e98c:	ff07879b          	addiw	a5,a5,-16
   1e990:	00150513          	addi	a0,a0,1
   1e994:	00ea8733          	add	a4,s5,a4
   1e998:	00074e83          	lbu	t4,0(a4)
   1e99c:	fffe871b          	addiw	a4,t4,-1
   1e9a0:	0ff77713          	andi	a4,a4,255
   1e9a4:	02ee6c63          	bltu	t3,a4,1e9dc <__gethex+0x3bc>
   1e9a8:	00150513          	addi	a0,a0,1
   1e9ac:	00054603          	lbu	a2,0(a0)
   1e9b0:	0017971b          	slliw	a4,a5,0x1
   1e9b4:	0037979b          	slliw	a5,a5,0x3
   1e9b8:	00ca8633          	add	a2,s5,a2
   1e9bc:	00064603          	lbu	a2,0(a2)
   1e9c0:	00f707bb          	addw	a5,a4,a5
   1e9c4:	01d787bb          	addw	a5,a5,t4
   1e9c8:	fff6071b          	addiw	a4,a2,-1
   1e9cc:	0ff77713          	andi	a4,a4,255
   1e9d0:	ff07879b          	addiw	a5,a5,-16
   1e9d4:	00060e93          	mv	t4,a2
   1e9d8:	fcee78e3          	bleu	a4,t3,1e9a8 <__gethex+0x388>
   1e9dc:	00058463          	beqz	a1,1e9e4 <__gethex+0x3c4>
   1e9e0:	40f007bb          	negw	a5,a5
   1e9e4:	000c0d13          	mv	s10,s8
   1e9e8:	00fc8cbb          	addw	s9,s9,a5
   1e9ec:	00050c13          	mv	s8,a0
   1e9f0:	d51ff06f          	j	1e740 <__gethex+0x120>
   1e9f4:	fffc841b          	addiw	s0,s9,-1
   1e9f8:	2a0c1463          	bnez	s8,1eca0 <__gethex+0x680>
   1e9fc:	00040a63          	beqz	s0,1ea10 <__gethex+0x3f0>
   1ea00:	00040593          	mv	a1,s0
   1ea04:	000b0513          	mv	a0,s6
   1ea08:	b44fa0ef          	jal	18d4c <__any_on>
   1ea0c:	00050c13          	mv	s8,a0
   1ea10:	4054579b          	sraiw	a5,s0,0x5
   1ea14:	00279793          	slli	a5,a5,0x2
   1ea18:	00f907b3          	add	a5,s2,a5
   1ea1c:	0007a783          	lw	a5,0(a5)
   1ea20:	00100713          	li	a4,1
   1ea24:	0087173b          	sllw	a4,a4,s0
   1ea28:	00f777b3          	and	a5,a4,a5
   1ea2c:	00078463          	beqz	a5,1ea34 <__gethex+0x414>
   1ea30:	002c6c13          	ori	s8,s8,2
   1ea34:	000c8593          	mv	a1,s9
   1ea38:	000b0513          	mv	a0,s6
   1ea3c:	af1ff0ef          	jal	1e52c <rshift>
   1ea40:	419484bb          	subw	s1,s1,s9
   1ea44:	0049ac83          	lw	s9,4(s3)
   1ea48:	00200413          	li	s0,2
   1ea4c:	140c0e63          	beqz	s8,1eba8 <__gethex+0x588>
   1ea50:	00c9a783          	lw	a5,12(s3)
   1ea54:	00200713          	li	a4,2
   1ea58:	12e78a63          	beq	a5,a4,1eb8c <__gethex+0x56c>
   1ea5c:	00300713          	li	a4,3
   1ea60:	12e78e63          	beq	a5,a4,1eb9c <__gethex+0x57c>
   1ea64:	00100713          	li	a4,1
   1ea68:	12e79e63          	bne	a5,a4,1eba4 <__gethex+0x584>
   1ea6c:	002c7793          	andi	a5,s8,2
   1ea70:	12078a63          	beqz	a5,1eba4 <__gethex+0x584>
   1ea74:	00092783          	lw	a5,0(s2)
   1ea78:	00fc67b3          	or	a5,s8,a5
   1ea7c:	00e7f7b3          	and	a5,a5,a4
   1ea80:	12078263          	beqz	a5,1eba4 <__gethex+0x584>
   1ea84:	014b2c03          	lw	s8,20(s6)
   1ea88:	00090793          	mv	a5,s2
   1ea8c:	fff00693          	li	a3,-1
   1ea90:	002c1b93          	slli	s7,s8,0x2
   1ea94:	01790633          	add	a2,s2,s7
   1ea98:	0100006f          	j	1eaa8 <__gethex+0x488>
   1ea9c:	00478793          	addi	a5,a5,4
   1eaa0:	fe07ae23          	sw	zero,-4(a5)
   1eaa4:	26c7f263          	bleu	a2,a5,1ed08 <__gethex+0x6e8>
   1eaa8:	0007a703          	lw	a4,0(a5)
   1eaac:	fed708e3          	beq	a4,a3,1ea9c <__gethex+0x47c>
   1eab0:	0017071b          	addiw	a4,a4,1
   1eab4:	00e7a023          	sw	a4,0(a5)
   1eab8:	00200793          	li	a5,2
   1eabc:	26f40c63          	beq	s0,a5,1ed34 <__gethex+0x714>
   1eac0:	014b2783          	lw	a5,20(s6)
   1eac4:	02fc4463          	blt	s8,a5,1eaec <__gethex+0x4cc>
   1eac8:	01f4f493          	andi	s1,s1,31
   1eacc:	02100413          	li	s0,33
   1ead0:	0c048c63          	beqz	s1,1eba8 <__gethex+0x588>
   1ead4:	01790933          	add	s2,s2,s7
   1ead8:	ffc92503          	lw	a0,-4(s2)
   1eadc:	d9cf90ef          	jal	18078 <__hi0bits>
   1eae0:	02000793          	li	a5,32
   1eae4:	409784bb          	subw	s1,a5,s1
   1eae8:	0c955063          	ble	s1,a0,1eba8 <__gethex+0x588>
   1eaec:	00100593          	li	a1,1
   1eaf0:	000b0513          	mv	a0,s6
   1eaf4:	a39ff0ef          	jal	1e52c <rshift>
   1eaf8:	0089a783          	lw	a5,8(s3)
   1eafc:	001c8c9b          	addiw	s9,s9,1
   1eb00:	02100413          	li	s0,33
   1eb04:	0b97d263          	ble	s9,a5,1eba8 <__gethex+0x588>
   1eb08:	000a0513          	mv	a0,s4
   1eb0c:	000b0593          	mv	a1,s6
   1eb10:	b08f90ef          	jal	17e18 <_Bfree>
   1eb14:	00813783          	ld	a5,8(sp)
   1eb18:	0a300513          	li	a0,163
   1eb1c:	0007b023          	sd	zero,0(a5)
   1eb20:	de9ff06f          	j	1e908 <__gethex+0x2e8>
   1eb24:	00070d13          	mv	s10,a4
   1eb28:	c7ade8e3          	bltu	s11,s10,1e798 <__gethex+0x178>
   1eb2c:	ca5ff06f          	j	1e7d0 <__gethex+0x1b0>
   1eb30:	001c0513          	addi	a0,s8,1
   1eb34:	00000593          	li	a1,0
   1eb38:	e35ff06f          	j	1e96c <__gethex+0x34c>
   1eb3c:	017d8c33          	add	s8,s11,s7
   1eb40:	000c4703          	lbu	a4,0(s8)
   1eb44:	00ea87b3          	add	a5,s5,a4
   1eb48:	0007c783          	lbu	a5,0(a5)
   1eb4c:	10078e63          	beqz	a5,1ec68 <__gethex+0x648>
   1eb50:	03000693          	li	a3,48
   1eb54:	000c0d93          	mv	s11,s8
   1eb58:	00d71e63          	bne	a4,a3,1eb74 <__gethex+0x554>
   1eb5c:	00070793          	mv	a5,a4
   1eb60:	001d8d93          	addi	s11,s11,1
   1eb64:	000dc703          	lbu	a4,0(s11)
   1eb68:	fef70ce3          	beq	a4,a5,1eb60 <__gethex+0x540>
   1eb6c:	00ea87b3          	add	a5,s5,a4
   1eb70:	0007c783          	lbu	a5,0(a5)
   1eb74:	0017b413          	seqz	s0,a5
   1eb78:	000c0c93          	mv	s9,s8
   1eb7c:	00100b13          	li	s6,1
   1eb80:	b69ff06f          	j	1e6e8 <__gethex+0xc8>
   1eb84:	00100413          	li	s0,1
   1eb88:	ec5ff06f          	j	1ea4c <__gethex+0x42c>
   1eb8c:	02412703          	lw	a4,36(sp)
   1eb90:	00100793          	li	a5,1
   1eb94:	40e787bb          	subw	a5,a5,a4
   1eb98:	02f12223          	sw	a5,36(sp)
   1eb9c:	02412783          	lw	a5,36(sp)
   1eba0:	ee0792e3          	bnez	a5,1ea84 <__gethex+0x464>
   1eba4:	01046413          	ori	s0,s0,16
   1eba8:	00813783          	ld	a5,8(sp)
   1ebac:	00040513          	mv	a0,s0
   1ebb0:	0167b023          	sd	s6,0(a5)
   1ebb4:	01813783          	ld	a5,24(sp)
   1ebb8:	0197a023          	sw	s9,0(a5)
   1ebbc:	d4dff06f          	j	1e908 <__gethex+0x2e8>
   1ebc0:	00000593          	li	a1,0
   1ebc4:	da1ff06f          	j	1e964 <__gethex+0x344>
   1ebc8:	4095043b          	subw	s0,a0,s1
   1ebcc:	00040593          	mv	a1,s0
   1ebd0:	000b0513          	mv	a0,s6
   1ebd4:	978fa0ef          	jal	18d4c <__any_on>
   1ebd8:	00000c13          	li	s8,0
   1ebdc:	04050063          	beqz	a0,1ec1c <__gethex+0x5fc>
   1ebe0:	fff4071b          	addiw	a4,s0,-1
   1ebe4:	4057579b          	sraiw	a5,a4,0x5
   1ebe8:	00279793          	slli	a5,a5,0x2
   1ebec:	00f907b3          	add	a5,s2,a5
   1ebf0:	0007a783          	lw	a5,0(a5)
   1ebf4:	00100c13          	li	s8,1
   1ebf8:	00ec16bb          	sllw	a3,s8,a4
   1ebfc:	00f6f7b3          	and	a5,a3,a5
   1ec00:	00078e63          	beqz	a5,1ec1c <__gethex+0x5fc>
   1ec04:	0cec5863          	ble	a4,s8,1ecd4 <__gethex+0x6b4>
   1ec08:	ffe4059b          	addiw	a1,s0,-2
   1ec0c:	000b0513          	mv	a0,s6
   1ec10:	93cfa0ef          	jal	18d4c <__any_on>
   1ec14:	0c050063          	beqz	a0,1ecd4 <__gethex+0x6b4>
   1ec18:	00300c13          	li	s8,3
   1ec1c:	00040593          	mv	a1,s0
   1ec20:	000b0513          	mv	a0,s6
   1ec24:	909ff0ef          	jal	1e52c <rshift>
   1ec28:	008c8cbb          	addw	s9,s9,s0
   1ec2c:	bddff06f          	j	1e808 <__gethex+0x1e8>
   1ec30:	00000c93          	li	s9,0
   1ec34:	af9ff06f          	j	1e72c <__gethex+0x10c>
   1ec38:	40a4843b          	subw	s0,s1,a0
   1ec3c:	000b0593          	mv	a1,s6
   1ec40:	00040613          	mv	a2,s0
   1ec44:	000a0513          	mv	a0,s4
   1ec48:	8bdf90ef          	jal	18504 <__lshift>
   1ec4c:	00050b13          	mv	s6,a0
   1ec50:	408c8cbb          	subw	s9,s9,s0
   1ec54:	01850913          	addi	s2,a0,24
   1ec58:	bb1ff06f          	j	1e808 <__gethex+0x1e8>
   1ec5c:	00278d93          	addi	s11,a5,2
   1ec60:	00000b13          	li	s6,0
   1ec64:	a5dff06f          	j	1e6c0 <__gethex+0xa0>
   1ec68:	00070793          	mv	a5,a4
   1ec6c:	c7dff06f          	j	1e8e8 <__gethex+0x2c8>
   1ec70:	017c0cb3          	add	s9,s8,s7
   1ec74:	000cc783          	lbu	a5,0(s9)
   1ec78:	000c8c13          	mv	s8,s9
   1ec7c:	00fa8733          	add	a4,s5,a5
   1ec80:	00074703          	lbu	a4,0(a4)
   1ec84:	a8070ee3          	beqz	a4,1e720 <__gethex+0x100>
   1ec88:	001c0c13          	addi	s8,s8,1
   1ec8c:	000c4783          	lbu	a5,0(s8)
   1ec90:	00fa8733          	add	a4,s5,a5
   1ec94:	00074703          	lbu	a4,0(a4)
   1ec98:	fe0718e3          	bnez	a4,1ec88 <__gethex+0x668>
   1ec9c:	a85ff06f          	j	1e720 <__gethex+0x100>
   1eca0:	00100c13          	li	s8,1
   1eca4:	d6dff06f          	j	1ea10 <__gethex+0x3f0>
   1eca8:	02412703          	lw	a4,36(sp)
   1ecac:	b80708e3          	beqz	a4,1e83c <__gethex+0x21c>
   1ecb0:	01813703          	ld	a4,24(sp)
   1ecb4:	06200513          	li	a0,98
   1ecb8:	00f72023          	sw	a5,0(a4)
   1ecbc:	00100793          	li	a5,1
   1ecc0:	00fb2a23          	sw	a5,20(s6)
   1ecc4:	00f92023          	sw	a5,0(s2)
   1ecc8:	00813783          	ld	a5,8(sp)
   1eccc:	0167b023          	sd	s6,0(a5)
   1ecd0:	c39ff06f          	j	1e908 <__gethex+0x2e8>
   1ecd4:	00200c13          	li	s8,2
   1ecd8:	f45ff06f          	j	1ec1c <__gethex+0x5fc>
   1ecdc:	02412703          	lw	a4,36(sp)
   1ece0:	fc0708e3          	beqz	a4,1ecb0 <__gethex+0x690>
   1ece4:	b59ff06f          	j	1e83c <__gethex+0x21c>
   1ece8:	b5949ae3          	bne	s1,s9,1e83c <__gethex+0x21c>
   1ecec:	fc9752e3          	ble	s1,a4,1ecb0 <__gethex+0x690>
   1ecf0:	fff4859b          	addiw	a1,s1,-1
   1ecf4:	000b0513          	mv	a0,s6
   1ecf8:	854fa0ef          	jal	18d4c <__any_on>
   1ecfc:	b40500e3          	beqz	a0,1e83c <__gethex+0x21c>
   1ed00:	0049a783          	lw	a5,4(s3)
   1ed04:	fadff06f          	j	1ecb0 <__gethex+0x690>
   1ed08:	014b2703          	lw	a4,20(s6)
   1ed0c:	00cb2783          	lw	a5,12(s6)
   1ed10:	04f75c63          	ble	a5,a4,1ed68 <__gethex+0x748>
   1ed14:	00470793          	addi	a5,a4,4
   1ed18:	00279793          	slli	a5,a5,0x2
   1ed1c:	0017071b          	addiw	a4,a4,1
   1ed20:	00eb2a23          	sw	a4,20(s6)
   1ed24:	00fb07b3          	add	a5,s6,a5
   1ed28:	00100713          	li	a4,1
   1ed2c:	00e7a423          	sw	a4,8(a5)
   1ed30:	d89ff06f          	j	1eab8 <__gethex+0x498>
   1ed34:	0009a783          	lw	a5,0(s3)
   1ed38:	02200413          	li	s0,34
   1ed3c:	fff7879b          	addiw	a5,a5,-1
   1ed40:	e6f494e3          	bne	s1,a5,1eba8 <__gethex+0x588>
   1ed44:	4054d79b          	sraiw	a5,s1,0x5
   1ed48:	00279793          	slli	a5,a5,0x2
   1ed4c:	00f90933          	add	s2,s2,a5
   1ed50:	00092503          	lw	a0,0(s2)
   1ed54:	02200793          	li	a5,34
   1ed58:	0095553b          	srlw	a0,a0,s1
   1ed5c:	00157413          	andi	s0,a0,1
   1ed60:	4087843b          	subw	s0,a5,s0
   1ed64:	e45ff06f          	j	1eba8 <__gethex+0x588>
   1ed68:	008b2583          	lw	a1,8(s6)
   1ed6c:	000a0513          	mv	a0,s4
   1ed70:	0015859b          	addiw	a1,a1,1
   1ed74:	ff9f80ef          	jal	17d6c <_Balloc>
   1ed78:	014b2603          	lw	a2,20(s6)
   1ed7c:	00050d13          	mv	s10,a0
   1ed80:	010b0593          	addi	a1,s6,16
   1ed84:	00260613          	addi	a2,a2,2
   1ed88:	00261613          	slli	a2,a2,0x2
   1ed8c:	01050513          	addi	a0,a0,16
   1ed90:	eecf20ef          	jal	1147c <memcpy>
   1ed94:	000b0593          	mv	a1,s6
   1ed98:	000a0513          	mv	a0,s4
   1ed9c:	87cf90ef          	jal	17e18 <_Bfree>
   1eda0:	014d2703          	lw	a4,20(s10)
   1eda4:	018d0913          	addi	s2,s10,24
   1eda8:	000d0b13          	mv	s6,s10
   1edac:	f69ff06f          	j	1ed14 <__gethex+0x6f4>

000000000001edb0 <__hexnan>:
   1edb0:	fd010113          	addi	sp,sp,-48
   1edb4:	01213c23          	sd	s2,24(sp)
   1edb8:	0005a903          	lw	s2,0(a1)
   1edbc:	02913023          	sd	s1,32(sp)
   1edc0:	02813423          	sd	s0,40(sp)
   1edc4:	4059549b          	sraiw	s1,s2,0x5
   1edc8:	00249493          	slli	s1,s1,0x2
   1edcc:	01313823          	sd	s3,16(sp)
   1edd0:	01413423          	sd	s4,8(sp)
   1edd4:	01f97913          	andi	s2,s2,31
   1edd8:	009604b3          	add	s1,a2,s1
   1eddc:	00090463          	beqz	s2,1ede4 <__hexnan+0x34>
   1ede0:	00448493          	addi	s1,s1,4
   1ede4:	00053683          	ld	a3,0(a0)
   1ede8:	ffc48313          	addi	t1,s1,-4
   1edec:	00021fb7          	lui	t6,0x21
   1edf0:	fe04ae23          	sw	zero,-4(s1)
   1edf4:	00030f13          	mv	t5,t1
   1edf8:	00030593          	mv	a1,t1
   1edfc:	00000813          	li	a6,0
   1ee00:	00000293          	li	t0,0
   1ee04:	00000e93          	li	t4,0
   1ee08:	398f8f93          	addi	t6,t6,920 # 21398 <__hexdig>
   1ee0c:	00800413          	li	s0,8
   1ee10:	02000393          	li	t2,32
   1ee14:	00700993          	li	s3,7
   1ee18:	00168693          	addi	a3,a3,1
   1ee1c:	0006c703          	lbu	a4,0(a3)
   1ee20:	08070263          	beqz	a4,1eea4 <__hexnan+0xf4>
   1ee24:	02071793          	slli	a5,a4,0x20
   1ee28:	0207d793          	srli	a5,a5,0x20
   1ee2c:	01f787b3          	add	a5,a5,t6
   1ee30:	0007c783          	lbu	a5,0(a5)
   1ee34:	0e079263          	bnez	a5,1ef18 <__hexnan+0x168>
   1ee38:	10e3ea63          	bltu	t2,a4,1ef4c <__hexnan+0x19c>
   1ee3c:	fdd2dee3          	ble	t4,t0,1ee18 <__hexnan+0x68>
   1ee40:	03e5fe63          	bleu	t5,a1,1ee7c <__hexnan+0xcc>
   1ee44:	0309cc63          	blt	s3,a6,1ee7c <__hexnan+0xcc>
   1ee48:	4104083b          	subw	a6,s0,a6
   1ee4c:	0005a883          	lw	a7,0(a1)
   1ee50:	0028181b          	slliw	a6,a6,0x2
   1ee54:	41038a3b          	subw	s4,t2,a6
   1ee58:	00058793          	mv	a5,a1
   1ee5c:	0047ae03          	lw	t3,4(a5)
   1ee60:	00478793          	addi	a5,a5,4
   1ee64:	014e173b          	sllw	a4,t3,s4
   1ee68:	01176733          	or	a4,a4,a7
   1ee6c:	010e58bb          	srlw	a7,t3,a6
   1ee70:	fee7ae23          	sw	a4,-4(a5)
   1ee74:	0117a023          	sw	a7,0(a5)
   1ee78:	ffe7e2e3          	bltu	a5,t5,1ee5c <__hexnan+0xac>
   1ee7c:	00800813          	li	a6,8
   1ee80:	f8b67ce3          	bleu	a1,a2,1ee18 <__hexnan+0x68>
   1ee84:	fe05ae23          	sw	zero,-4(a1)
   1ee88:	00168693          	addi	a3,a3,1
   1ee8c:	0006c703          	lbu	a4,0(a3)
   1ee90:	ffc58f13          	addi	t5,a1,-4
   1ee94:	000e8293          	mv	t0,t4
   1ee98:	000f0593          	mv	a1,t5
   1ee9c:	00000813          	li	a6,0
   1eea0:	f80712e3          	bnez	a4,1ee24 <__hexnan+0x74>
   1eea4:	0a0e8863          	beqz	t4,1ef54 <__hexnan+0x1a4>
   1eea8:	01e5f663          	bleu	t5,a1,1eeb4 <__hexnan+0x104>
   1eeac:	00700793          	li	a5,7
   1eeb0:	1307d063          	ble	a6,a5,1efd0 <__hexnan+0x220>
   1eeb4:	0cb67063          	bleu	a1,a2,1ef74 <__hexnan+0x1c4>
   1eeb8:	00060793          	mv	a5,a2
   1eebc:	00458593          	addi	a1,a1,4
   1eec0:	ffc5a703          	lw	a4,-4(a1)
   1eec4:	00478793          	addi	a5,a5,4
   1eec8:	fee7ae23          	sw	a4,-4(a5)
   1eecc:	feb378e3          	bleu	a1,t1,1eebc <__hexnan+0x10c>
   1eed0:	00478793          	addi	a5,a5,4
   1eed4:	fe07ae23          	sw	zero,-4(a5)
   1eed8:	fef37ce3          	bleu	a5,t1,1eed0 <__hexnan+0x120>
   1eedc:	ffc4a783          	lw	a5,-4(s1)
   1eee0:	00500513          	li	a0,5
   1eee4:	06079a63          	bnez	a5,1ef58 <__hexnan+0x1a8>
   1eee8:	0a660863          	beq	a2,t1,1ef98 <__hexnan+0x1e8>
   1eeec:	ffc30313          	addi	t1,t1,-4
   1eef0:	00032783          	lw	a5,0(t1)
   1eef4:	fe078ae3          	beqz	a5,1eee8 <__hexnan+0x138>
   1eef8:	00500513          	li	a0,5
   1eefc:	02813403          	ld	s0,40(sp)
   1ef00:	02013483          	ld	s1,32(sp)
   1ef04:	01813903          	ld	s2,24(sp)
   1ef08:	01013983          	ld	s3,16(sp)
   1ef0c:	00813a03          	ld	s4,8(sp)
   1ef10:	03010113          	addi	sp,sp,48
   1ef14:	00008067          	ret
   1ef18:	0018081b          	addiw	a6,a6,1
   1ef1c:	001e8e9b          	addiw	t4,t4,1
   1ef20:	01045a63          	ble	a6,s0,1ef34 <__hexnan+0x184>
   1ef24:	eeb67ae3          	bleu	a1,a2,1ee18 <__hexnan+0x68>
   1ef28:	fe05ae23          	sw	zero,-4(a1)
   1ef2c:	00100813          	li	a6,1
   1ef30:	ffc58593          	addi	a1,a1,-4
   1ef34:	0005a703          	lw	a4,0(a1)
   1ef38:	00f7f793          	andi	a5,a5,15
   1ef3c:	0047171b          	slliw	a4,a4,0x4
   1ef40:	00f767b3          	or	a5,a4,a5
   1ef44:	00f5a023          	sw	a5,0(a1)
   1ef48:	ed1ff06f          	j	1ee18 <__hexnan+0x68>
   1ef4c:	02900793          	li	a5,41
   1ef50:	06f70863          	beq	a4,a5,1efc0 <__hexnan+0x210>
   1ef54:	00400513          	li	a0,4
   1ef58:	02813403          	ld	s0,40(sp)
   1ef5c:	02013483          	ld	s1,32(sp)
   1ef60:	01813903          	ld	s2,24(sp)
   1ef64:	01013983          	ld	s3,16(sp)
   1ef68:	00813a03          	ld	s4,8(sp)
   1ef6c:	03010113          	addi	sp,sp,48
   1ef70:	00008067          	ret
   1ef74:	ffc4a783          	lw	a5,-4(s1)
   1ef78:	f60904e3          	beqz	s2,1eee0 <__hexnan+0x130>
   1ef7c:	02000713          	li	a4,32
   1ef80:	4127093b          	subw	s2,a4,s2
   1ef84:	fff00713          	li	a4,-1
   1ef88:	0127573b          	srlw	a4,a4,s2
   1ef8c:	00f777b3          	and	a5,a4,a5
   1ef90:	fef4ae23          	sw	a5,-4(s1)
   1ef94:	f4dff06f          	j	1eee0 <__hexnan+0x130>
   1ef98:	00100793          	li	a5,1
   1ef9c:	00500513          	li	a0,5
   1efa0:	02813403          	ld	s0,40(sp)
   1efa4:	02013483          	ld	s1,32(sp)
   1efa8:	01813903          	ld	s2,24(sp)
   1efac:	01013983          	ld	s3,16(sp)
   1efb0:	00813a03          	ld	s4,8(sp)
   1efb4:	00f32023          	sw	a5,0(t1)
   1efb8:	03010113          	addi	sp,sp,48
   1efbc:	00008067          	ret
   1efc0:	00168693          	addi	a3,a3,1
   1efc4:	00d53023          	sd	a3,0(a0)
   1efc8:	ee0e90e3          	bnez	t4,1eea8 <__hexnan+0xf8>
   1efcc:	f89ff06f          	j	1ef54 <__hexnan+0x1a4>
   1efd0:	00800793          	li	a5,8
   1efd4:	4107883b          	subw	a6,a5,a6
   1efd8:	0005a683          	lw	a3,0(a1)
   1efdc:	0028181b          	slliw	a6,a6,0x2
   1efe0:	02000893          	li	a7,32
   1efe4:	410888bb          	subw	a7,a7,a6
   1efe8:	00058793          	mv	a5,a1
   1efec:	0047a503          	lw	a0,4(a5)
   1eff0:	00478793          	addi	a5,a5,4
   1eff4:	0115173b          	sllw	a4,a0,a7
   1eff8:	00d76733          	or	a4,a4,a3
   1effc:	010556bb          	srlw	a3,a0,a6
   1f000:	fee7ae23          	sw	a4,-4(a5)
   1f004:	00d7a023          	sw	a3,0(a5)
   1f008:	ffe7e2e3          	bltu	a5,t5,1efec <__hexnan+0x23c>
   1f00c:	ea9ff06f          	j	1eeb4 <__hexnan+0x104>

000000000001f010 <strncmp>:
   1f010:	0c060263          	beqz	a2,1f0d4 <strncmp+0xc4>
   1f014:	00b567b3          	or	a5,a0,a1
   1f018:	0077f793          	andi	a5,a5,7
   1f01c:	06079e63          	bnez	a5,1f098 <strncmp+0x88>
   1f020:	00700893          	li	a7,7
   1f024:	06c8fa63          	bleu	a2,a7,1f098 <strncmp+0x88>
   1f028:	00053783          	ld	a5,0(a0)
   1f02c:	0005b703          	ld	a4,0(a1)
   1f030:	06e79463          	bne	a5,a4,1f098 <strncmp+0x88>
   1f034:	ff860613          	addi	a2,a2,-8
   1f038:	08060e63          	beqz	a2,1f0d4 <strncmp+0xc4>
   1f03c:	00024737          	lui	a4,0x24
   1f040:	47873e03          	ld	t3,1144(a4) # 24478 <mask+0x50>
   1f044:	00024737          	lui	a4,0x24
   1f048:	48073303          	ld	t1,1152(a4) # 24480 <mask+0x58>
   1f04c:	fff7c713          	not	a4,a5
   1f050:	01c787b3          	add	a5,a5,t3
   1f054:	00f777b3          	and	a5,a4,a5
   1f058:	0067f7b3          	and	a5,a5,t1
   1f05c:	02078863          	beqz	a5,1f08c <strncmp+0x7c>
   1f060:	0740006f          	j	1f0d4 <strncmp+0xc4>
   1f064:	00053703          	ld	a4,0(a0)
   1f068:	0005b683          	ld	a3,0(a1)
   1f06c:	01c70833          	add	a6,a4,t3
   1f070:	fff74793          	not	a5,a4
   1f074:	00f877b3          	and	a5,a6,a5
   1f078:	0067f7b3          	and	a5,a5,t1
   1f07c:	00d71e63          	bne	a4,a3,1f098 <strncmp+0x88>
   1f080:	ff860613          	addi	a2,a2,-8
   1f084:	04060863          	beqz	a2,1f0d4 <strncmp+0xc4>
   1f088:	04079663          	bnez	a5,1f0d4 <strncmp+0xc4>
   1f08c:	00850513          	addi	a0,a0,8
   1f090:	00858593          	addi	a1,a1,8
   1f094:	fcc8e8e3          	bltu	a7,a2,1f064 <strncmp+0x54>
   1f098:	00054703          	lbu	a4,0(a0)
   1f09c:	0005c783          	lbu	a5,0(a1)
   1f0a0:	fff60613          	addi	a2,a2,-1
   1f0a4:	02e79c63          	bne	a5,a4,1f0dc <strncmp+0xcc>
   1f0a8:	02060663          	beqz	a2,1f0d4 <strncmp+0xc4>
   1f0ac:	02078463          	beqz	a5,1f0d4 <strncmp+0xc4>
   1f0b0:	00150513          	addi	a0,a0,1
   1f0b4:	00158593          	addi	a1,a1,1
   1f0b8:	00054783          	lbu	a5,0(a0)
   1f0bc:	0005c703          	lbu	a4,0(a1)
   1f0c0:	fff60613          	addi	a2,a2,-1
   1f0c4:	fee782e3          	beq	a5,a4,1f0a8 <strncmp+0x98>
   1f0c8:	00070513          	mv	a0,a4
   1f0cc:	40a7853b          	subw	a0,a5,a0
   1f0d0:	00008067          	ret
   1f0d4:	00000513          	li	a0,0
   1f0d8:	00008067          	ret
   1f0dc:	00078513          	mv	a0,a5
   1f0e0:	00070793          	mv	a5,a4
   1f0e4:	fe9ff06f          	j	1f0cc <strncmp+0xbc>

000000000001f0e8 <__ssprint_r>:
   1f0e8:	01063783          	ld	a5,16(a2)
   1f0ec:	fa010113          	addi	sp,sp,-96
   1f0f0:	03413823          	sd	s4,48(sp)
   1f0f4:	04113c23          	sd	ra,88(sp)
   1f0f8:	04813823          	sd	s0,80(sp)
   1f0fc:	04913423          	sd	s1,72(sp)
   1f100:	05213023          	sd	s2,64(sp)
   1f104:	03313c23          	sd	s3,56(sp)
   1f108:	03513423          	sd	s5,40(sp)
   1f10c:	03613023          	sd	s6,32(sp)
   1f110:	01713c23          	sd	s7,24(sp)
   1f114:	01813823          	sd	s8,16(sp)
   1f118:	01913423          	sd	s9,8(sp)
   1f11c:	01a13023          	sd	s10,0(sp)
   1f120:	00060a13          	mv	s4,a2
   1f124:	06078a63          	beqz	a5,1f198 <__ssprint_r+0xb0>
   1f128:	00050a93          	mv	s5,a0
   1f12c:	00063b83          	ld	s7,0(a2)
   1f130:	0005b503          	ld	a0,0(a1)
   1f134:	00c5a403          	lw	s0,12(a1)
   1f138:	00058993          	mv	s3,a1
   1f13c:	00000c13          	li	s8,0
   1f140:	00000493          	li	s1,0
   1f144:	08048a63          	beqz	s1,1f1d8 <__ssprint_r+0xf0>
   1f148:	00040b13          	mv	s6,s0
   1f14c:	0884fe63          	bleu	s0,s1,1f1e8 <__ssprint_r+0x100>
   1f150:	0004841b          	sext.w	s0,s1
   1f154:	00040913          	mv	s2,s0
   1f158:	00090b13          	mv	s6,s2
   1f15c:	000c0593          	mv	a1,s8
   1f160:	000b0613          	mv	a2,s6
   1f164:	a0df80ef          	jal	17b70 <memmove>
   1f168:	00c9a703          	lw	a4,12(s3)
   1f16c:	0009b503          	ld	a0,0(s3)
   1f170:	010a3783          	ld	a5,16(s4)
   1f174:	4087043b          	subw	s0,a4,s0
   1f178:	01650533          	add	a0,a0,s6
   1f17c:	0089a623          	sw	s0,12(s3)
   1f180:	00a9b023          	sd	a0,0(s3)
   1f184:	412787b3          	sub	a5,a5,s2
   1f188:	00fa3823          	sd	a5,16(s4)
   1f18c:	012c0c33          	add	s8,s8,s2
   1f190:	412484b3          	sub	s1,s1,s2
   1f194:	fa0798e3          	bnez	a5,1f144 <__ssprint_r+0x5c>
   1f198:	000a2423          	sw	zero,8(s4)
   1f19c:	00000513          	li	a0,0
   1f1a0:	05813083          	ld	ra,88(sp)
   1f1a4:	05013403          	ld	s0,80(sp)
   1f1a8:	04813483          	ld	s1,72(sp)
   1f1ac:	04013903          	ld	s2,64(sp)
   1f1b0:	03813983          	ld	s3,56(sp)
   1f1b4:	03013a03          	ld	s4,48(sp)
   1f1b8:	02813a83          	ld	s5,40(sp)
   1f1bc:	02013b03          	ld	s6,32(sp)
   1f1c0:	01813b83          	ld	s7,24(sp)
   1f1c4:	01013c03          	ld	s8,16(sp)
   1f1c8:	00813c83          	ld	s9,8(sp)
   1f1cc:	00013d03          	ld	s10,0(sp)
   1f1d0:	06010113          	addi	sp,sp,96
   1f1d4:	00008067          	ret
   1f1d8:	000bbc03          	ld	s8,0(s7)
   1f1dc:	008bb483          	ld	s1,8(s7)
   1f1e0:	010b8b93          	addi	s7,s7,16
   1f1e4:	f61ff06f          	j	1f144 <__ssprint_r+0x5c>
   1f1e8:	0109d703          	lhu	a4,16(s3)
   1f1ec:	0004891b          	sext.w	s2,s1
   1f1f0:	48077793          	andi	a5,a4,1152
   1f1f4:	f60784e3          	beqz	a5,1f15c <__ssprint_r+0x74>
   1f1f8:	0209ab03          	lw	s6,32(s3)
   1f1fc:	0189b583          	ld	a1,24(s3)
   1f200:	00148693          	addi	a3,s1,1
   1f204:	001b179b          	slliw	a5,s6,0x1
   1f208:	01678b3b          	addw	s6,a5,s6
   1f20c:	01fb579b          	srliw	a5,s6,0x1f
   1f210:	40b50533          	sub	a0,a0,a1
   1f214:	01678b3b          	addw	s6,a5,s6
   1f218:	00050c9b          	sext.w	s9,a0
   1f21c:	401b5b1b          	sraiw	s6,s6,0x1
   1f220:	000c8913          	mv	s2,s9
   1f224:	000b0613          	mv	a2,s6
   1f228:	012687b3          	add	a5,a3,s2
   1f22c:	00f67863          	bleu	a5,a2,1f23c <__ssprint_r+0x154>
   1f230:	00148b1b          	addiw	s6,s1,1
   1f234:	019b0b3b          	addw	s6,s6,s9
   1f238:	000b0613          	mv	a2,s6
   1f23c:	40077713          	andi	a4,a4,1024
   1f240:	06070063          	beqz	a4,1f2a0 <__ssprint_r+0x1b8>
   1f244:	00060593          	mv	a1,a2
   1f248:	000a8513          	mv	a0,s5
   1f24c:	ac1f10ef          	jal	10d0c <_malloc_r>
   1f250:	00050d13          	mv	s10,a0
   1f254:	06050463          	beqz	a0,1f2bc <__ssprint_r+0x1d4>
   1f258:	0189b583          	ld	a1,24(s3)
   1f25c:	00090613          	mv	a2,s2
   1f260:	a1cf20ef          	jal	1147c <memcpy>
   1f264:	0109d783          	lhu	a5,16(s3)
   1f268:	b7f7f793          	andi	a5,a5,-1153
   1f26c:	0807e793          	ori	a5,a5,128
   1f270:	00f99823          	sh	a5,16(s3)
   1f274:	0004841b          	sext.w	s0,s1
   1f278:	012d0533          	add	a0,s10,s2
   1f27c:	419b0cbb          	subw	s9,s6,s9
   1f280:	0369a023          	sw	s6,32(s3)
   1f284:	01a9bc23          	sd	s10,24(s3)
   1f288:	00a9b023          	sd	a0,0(s3)
   1f28c:	0199a623          	sw	s9,12(s3)
   1f290:	00040913          	mv	s2,s0
   1f294:	00040b13          	mv	s6,s0
   1f298:	ed24f2e3          	bleu	s2,s1,1f15c <__ssprint_r+0x74>
   1f29c:	ebdff06f          	j	1f158 <__ssprint_r+0x70>
   1f2a0:	000a8513          	mv	a0,s5
   1f2a4:	b2df90ef          	jal	18dd0 <_realloc_r>
   1f2a8:	00050d13          	mv	s10,a0
   1f2ac:	fc0514e3          	bnez	a0,1f274 <__ssprint_r+0x18c>
   1f2b0:	0189b583          	ld	a1,24(s3)
   1f2b4:	000a8513          	mv	a0,s5
   1f2b8:	99df70ef          	jal	16c54 <_free_r>
   1f2bc:	00c00793          	li	a5,12
   1f2c0:	00faa023          	sw	a5,0(s5)
   1f2c4:	0109d783          	lhu	a5,16(s3)
   1f2c8:	fff00513          	li	a0,-1
   1f2cc:	0407e793          	ori	a5,a5,64
   1f2d0:	00f99823          	sh	a5,16(s3)
   1f2d4:	000a3823          	sd	zero,16(s4)
   1f2d8:	000a2423          	sw	zero,8(s4)
   1f2dc:	ec5ff06f          	j	1f1a0 <__ssprint_r+0xb8>

000000000001f2e0 <_svfiprintf_r>:
   1f2e0:	0105d783          	lhu	a5,16(a1)
   1f2e4:	e7010113          	addi	sp,sp,-400
   1f2e8:	16913c23          	sd	s1,376(sp)
   1f2ec:	15613823          	sd	s6,336(sp)
   1f2f0:	15713423          	sd	s7,328(sp)
   1f2f4:	18113423          	sd	ra,392(sp)
   1f2f8:	18813023          	sd	s0,384(sp)
   1f2fc:	17213823          	sd	s2,368(sp)
   1f300:	17313423          	sd	s3,360(sp)
   1f304:	17413023          	sd	s4,352(sp)
   1f308:	15513c23          	sd	s5,344(sp)
   1f30c:	15813023          	sd	s8,320(sp)
   1f310:	13913c23          	sd	s9,312(sp)
   1f314:	13a13823          	sd	s10,304(sp)
   1f318:	13b13423          	sd	s11,296(sp)
   1f31c:	0807f793          	andi	a5,a5,128
   1f320:	02d13023          	sd	a3,32(sp)
   1f324:	00058b13          	mv	s6,a1
   1f328:	00050b93          	mv	s7,a0
   1f32c:	00060493          	mv	s1,a2
   1f330:	00078663          	beqz	a5,1f33c <_svfiprintf_r+0x5c>
   1f334:	0185b783          	ld	a5,24(a1)
   1f338:	440786e3          	beqz	a5,1ff84 <_svfiprintf_r+0xca4>
   1f33c:	0a010993          	addi	s3,sp,160
   1f340:	09f10793          	addi	a5,sp,159
   1f344:	000216b7          	lui	a3,0x21
   1f348:	40f98733          	sub	a4,s3,a5
   1f34c:	49868693          	addi	a3,a3,1176 # 21498 <__hexdig+0x100>
   1f350:	00021937          	lui	s2,0x21
   1f354:	07313023          	sd	s3,96(sp)
   1f358:	06013823          	sd	zero,112(sp)
   1f35c:	06012423          	sw	zero,104(sp)
   1f360:	00098793          	mv	a5,s3
   1f364:	02013823          	sd	zero,48(sp)
   1f368:	00012e23          	sw	zero,28(sp)
   1f36c:	02d13423          	sd	a3,40(sp)
   1f370:	60090913          	addi	s2,s2,1536 # 21600 <blanks.4122>
   1f374:	04e12623          	sw	a4,76(sp)
   1f378:	0004c703          	lbu	a4,0(s1)
   1f37c:	080704e3          	beqz	a4,1fc04 <_svfiprintf_r+0x924>
   1f380:	02500693          	li	a3,37
   1f384:	00048413          	mv	s0,s1
   1f388:	00d71663          	bne	a4,a3,1f394 <_svfiprintf_r+0xb4>
   1f38c:	0580006f          	j	1f3e4 <_svfiprintf_r+0x104>
   1f390:	00d70863          	beq	a4,a3,1f3a0 <_svfiprintf_r+0xc0>
   1f394:	00140413          	addi	s0,s0,1
   1f398:	00044703          	lbu	a4,0(s0)
   1f39c:	fe071ae3          	bnez	a4,1f390 <_svfiprintf_r+0xb0>
   1f3a0:	40940a3b          	subw	s4,s0,s1
   1f3a4:	040a0063          	beqz	s4,1f3e4 <_svfiprintf_r+0x104>
   1f3a8:	07013683          	ld	a3,112(sp)
   1f3ac:	06812703          	lw	a4,104(sp)
   1f3b0:	000a0613          	mv	a2,s4
   1f3b4:	00c686b3          	add	a3,a3,a2
   1f3b8:	0017071b          	addiw	a4,a4,1
   1f3bc:	0097b023          	sd	s1,0(a5)
   1f3c0:	00c7b423          	sd	a2,8(a5)
   1f3c4:	06d13823          	sd	a3,112(sp)
   1f3c8:	06e12423          	sw	a4,104(sp)
   1f3cc:	00700693          	li	a3,7
   1f3d0:	01078793          	addi	a5,a5,16
   1f3d4:	1ae6c4e3          	blt	a3,a4,1fd7c <_svfiprintf_r+0xa9c>
   1f3d8:	01c12703          	lw	a4,28(sp)
   1f3dc:	0147073b          	addw	a4,a4,s4
   1f3e0:	00e12e23          	sw	a4,28(sp)
   1f3e4:	00044703          	lbu	a4,0(s0)
   1f3e8:	020702e3          	beqz	a4,1fc0c <_svfiprintf_r+0x92c>
   1f3ec:	00140493          	addi	s1,s0,1
   1f3f0:	04010ba3          	sb	zero,87(sp)
   1f3f4:	00000513          	li	a0,0
   1f3f8:	00000813          	li	a6,0
   1f3fc:	fff00413          	li	s0,-1
   1f400:	00012a23          	sw	zero,20(sp)
   1f404:	00000a93          	li	s5,0
   1f408:	05800613          	li	a2,88
   1f40c:	00900593          	li	a1,9
   1f410:	02a00893          	li	a7,42
   1f414:	0004c683          	lbu	a3,0(s1)
   1f418:	00148493          	addi	s1,s1,1
   1f41c:	fe06871b          	addiw	a4,a3,-32
   1f420:	1ee66263          	bltu	a2,a4,1f604 <_svfiprintf_r+0x324>
   1f424:	02813303          	ld	t1,40(sp)
   1f428:	02071713          	slli	a4,a4,0x20
   1f42c:	01e75713          	srli	a4,a4,0x1e
   1f430:	00670733          	add	a4,a4,t1
   1f434:	00072703          	lw	a4,0(a4)
   1f438:	00070067          	jr	a4
   1f43c:	010aea93          	ori	s5,s5,16
   1f440:	fd5ff06f          	j	1f414 <_svfiprintf_r+0x134>
   1f444:	02013703          	ld	a4,32(sp)
   1f448:	00072683          	lw	a3,0(a4)
   1f44c:	00870713          	addi	a4,a4,8
   1f450:	02e13023          	sd	a4,32(sp)
   1f454:	00d12a23          	sw	a3,20(sp)
   1f458:	fa06dee3          	bgez	a3,1f414 <_svfiprintf_r+0x134>
   1f45c:	40d0073b          	negw	a4,a3
   1f460:	00e12a23          	sw	a4,20(sp)
   1f464:	004aea93          	ori	s5,s5,4
   1f468:	fadff06f          	j	1f414 <_svfiprintf_r+0x134>
   1f46c:	03000713          	li	a4,48
   1f470:	04e10c23          	sb	a4,88(sp)
   1f474:	07800713          	li	a4,120
   1f478:	04e10ca3          	sb	a4,89(sp)
   1f47c:	02013703          	ld	a4,32(sp)
   1f480:	04010ba3          	sb	zero,87(sp)
   1f484:	002ae613          	ori	a2,s5,2
   1f488:	00870693          	addi	a3,a4,8
   1f48c:	00073703          	ld	a4,0(a4)
   1f490:	280442e3          	bltz	s0,1ff14 <_svfiprintf_r+0xc34>
   1f494:	f7fafa93          	andi	s5,s5,-129
   1f498:	02d13023          	sd	a3,32(sp)
   1f49c:	002aea93          	ori	s5,s5,2
   1f4a0:	1c070ee3          	beqz	a4,1fe7c <_svfiprintf_r+0xb9c>
   1f4a4:	000226b7          	lui	a3,0x22
   1f4a8:	cb868693          	addi	a3,a3,-840 # 21cb8 <zeroes.4123+0x6a8>
   1f4ac:	00000613          	li	a2,0
   1f4b0:	02d13823          	sd	a3,48(sp)
   1f4b4:	00098d13          	mv	s10,s3
   1f4b8:	03013583          	ld	a1,48(sp)
   1f4bc:	00f77693          	andi	a3,a4,15
   1f4c0:	fffd0d13          	addi	s10,s10,-1
   1f4c4:	00d586b3          	add	a3,a1,a3
   1f4c8:	0006c683          	lbu	a3,0(a3)
   1f4cc:	00475713          	srli	a4,a4,0x4
   1f4d0:	00dd0023          	sb	a3,0(s10)
   1f4d4:	fe0712e3          	bnez	a4,1f4b8 <_svfiprintf_r+0x1d8>
   1f4d8:	41a98c33          	sub	s8,s3,s10
   1f4dc:	01812c23          	sw	s8,24(sp)
   1f4e0:	0d00006f          	j	1f5b0 <_svfiprintf_r+0x2d0>
   1f4e4:	00100513          	li	a0,1
   1f4e8:	02b00813          	li	a6,43
   1f4ec:	f29ff06f          	j	1f414 <_svfiprintf_r+0x134>
   1f4f0:	380514e3          	bnez	a0,20078 <_svfiprintf_r+0xd98>
   1f4f4:	010af713          	andi	a4,s5,16
   1f4f8:	44070863          	beqz	a4,1f948 <_svfiprintf_r+0x668>
   1f4fc:	02013703          	ld	a4,32(sp)
   1f500:	04010ba3          	sb	zero,87(sp)
   1f504:	00870693          	addi	a3,a4,8
   1f508:	00073703          	ld	a4,0(a4)
   1f50c:	44044c63          	bltz	s0,1f964 <_svfiprintf_r+0x684>
   1f510:	02d13023          	sd	a3,32(sp)
   1f514:	f7fafa93          	andi	s5,s5,-129
   1f518:	10070ee3          	beqz	a4,1fe34 <_svfiprintf_r+0xb54>
   1f51c:	00000613          	li	a2,0
   1f520:	00098d13          	mv	s10,s3
   1f524:	00777693          	andi	a3,a4,7
   1f528:	fffd0d13          	addi	s10,s10,-1
   1f52c:	0306869b          	addiw	a3,a3,48
   1f530:	00dd0023          	sb	a3,0(s10)
   1f534:	00375713          	srli	a4,a4,0x3
   1f538:	fe0716e3          	bnez	a4,1f524 <_svfiprintf_r+0x244>
   1f53c:	001af713          	andi	a4,s5,1
   1f540:	f8070ce3          	beqz	a4,1f4d8 <_svfiprintf_r+0x1f8>
   1f544:	03000713          	li	a4,48
   1f548:	f8e688e3          	beq	a3,a4,1f4d8 <_svfiprintf_r+0x1f8>
   1f54c:	fffd0693          	addi	a3,s10,-1
   1f550:	40d98c33          	sub	s8,s3,a3
   1f554:	feed0fa3          	sb	a4,-1(s10)
   1f558:	01812c23          	sw	s8,24(sp)
   1f55c:	00068d13          	mv	s10,a3
   1f560:	0500006f          	j	1f5b0 <_svfiprintf_r+0x2d0>
   1f564:	001aea93          	ori	s5,s5,1
   1f568:	eadff06f          	j	1f414 <_svfiprintf_r+0x134>
   1f56c:	34051ee3          	bnez	a0,200c8 <_svfiprintf_r+0xde8>
   1f570:	010aea93          	ori	s5,s5,16
   1f574:	010af713          	andi	a4,s5,16
   1f578:	080702e3          	beqz	a4,1fdfc <_svfiprintf_r+0xb1c>
   1f57c:	02013683          	ld	a3,32(sp)
   1f580:	0006b703          	ld	a4,0(a3)
   1f584:	00868693          	addi	a3,a3,8
   1f588:	02d13023          	sd	a3,32(sp)
   1f58c:	080746e3          	bltz	a4,1fe18 <_svfiprintf_r+0xb38>
   1f590:	05714603          	lbu	a2,87(sp)
   1f594:	38044c63          	bltz	s0,1f92c <_svfiprintf_r+0x64c>
   1f598:	f7fafa93          	andi	s5,s5,-129
   1f59c:	22071a63          	bnez	a4,1f7d0 <_svfiprintf_r+0x4f0>
   1f5a0:	14041ce3          	bnez	s0,1fef8 <_svfiprintf_r+0xc18>
   1f5a4:	00000413          	li	s0,0
   1f5a8:	00012c23          	sw	zero,24(sp)
   1f5ac:	00098d13          	mv	s10,s3
   1f5b0:	01812703          	lw	a4,24(sp)
   1f5b4:	00040c93          	mv	s9,s0
   1f5b8:	00e45463          	ble	a4,s0,1f5c0 <_svfiprintf_r+0x2e0>
   1f5bc:	00070c93          	mv	s9,a4
   1f5c0:	00c03633          	snez	a2,a2
   1f5c4:	00cc8cbb          	addw	s9,s9,a2
   1f5c8:	05c0006f          	j	1f624 <_svfiprintf_r+0x344>
   1f5cc:	00012a23          	sw	zero,20(sp)
   1f5d0:	fd06871b          	addiw	a4,a3,-48
   1f5d4:	01412e03          	lw	t3,20(sp)
   1f5d8:	00148493          	addi	s1,s1,1
   1f5dc:	fff4c683          	lbu	a3,-1(s1)
   1f5e0:	001e131b          	slliw	t1,t3,0x1
   1f5e4:	003e1a1b          	slliw	s4,t3,0x3
   1f5e8:	01430a3b          	addw	s4,t1,s4
   1f5ec:	0147073b          	addw	a4,a4,s4
   1f5f0:	00e12a23          	sw	a4,20(sp)
   1f5f4:	fd06871b          	addiw	a4,a3,-48
   1f5f8:	fce5fee3          	bleu	a4,a1,1f5d4 <_svfiprintf_r+0x2f4>
   1f5fc:	fe06871b          	addiw	a4,a3,-32
   1f600:	e2e672e3          	bleu	a4,a2,1f424 <_svfiprintf_r+0x144>
   1f604:	260516e3          	bnez	a0,20070 <_svfiprintf_r+0xd90>
   1f608:	60068263          	beqz	a3,1fc0c <_svfiprintf_r+0x92c>
   1f60c:	00100c93          	li	s9,1
   1f610:	06d10c23          	sb	a3,120(sp)
   1f614:	04010ba3          	sb	zero,87(sp)
   1f618:	01912c23          	sw	s9,24(sp)
   1f61c:	07810d13          	addi	s10,sp,120
   1f620:	00000413          	li	s0,0
   1f624:	002af713          	andi	a4,s5,2
   1f628:	02e12c23          	sw	a4,56(sp)
   1f62c:	00070463          	beqz	a4,1f634 <_svfiprintf_r+0x354>
   1f630:	002c8c9b          	addiw	s9,s9,2
   1f634:	084af713          	andi	a4,s5,132
   1f638:	04e12423          	sw	a4,72(sp)
   1f63c:	38071463          	bnez	a4,1f9c4 <_svfiprintf_r+0x6e4>
   1f640:	01412703          	lw	a4,20(sp)
   1f644:	41970dbb          	subw	s11,a4,s9
   1f648:	37b05e63          	blez	s11,1f9c4 <_svfiprintf_r+0x6e4>
   1f64c:	01000713          	li	a4,16
   1f650:	07013683          	ld	a3,112(sp)
   1f654:	19b752e3          	ble	s11,a4,1ffd8 <_svfiprintf_r+0xcf8>
   1f658:	01000c13          	li	s8,16
   1f65c:	06812703          	lw	a4,104(sp)
   1f660:	05213023          	sd	s2,64(sp)
   1f664:	00700e13          	li	t3,7
   1f668:	000c0a13          	mv	s4,s8
   1f66c:	00c0006f          	j	1f678 <_svfiprintf_r+0x398>
   1f670:	ff0d8d9b          	addiw	s11,s11,-16
   1f674:	05ba5a63          	ble	s11,s4,1f6c8 <_svfiprintf_r+0x3e8>
   1f678:	01068693          	addi	a3,a3,16
   1f67c:	0017071b          	addiw	a4,a4,1
   1f680:	0127b023          	sd	s2,0(a5)
   1f684:	0187b423          	sd	s8,8(a5)
   1f688:	06d13823          	sd	a3,112(sp)
   1f68c:	06e12423          	sw	a4,104(sp)
   1f690:	01078793          	addi	a5,a5,16
   1f694:	fcee5ee3          	ble	a4,t3,1f670 <_svfiprintf_r+0x390>
   1f698:	06010613          	addi	a2,sp,96
   1f69c:	000b0593          	mv	a1,s6
   1f6a0:	000b8513          	mv	a0,s7
   1f6a4:	01c13423          	sd	t3,8(sp)
   1f6a8:	a41ff0ef          	jal	1f0e8 <__ssprint_r>
   1f6ac:	56051c63          	bnez	a0,1fc24 <_svfiprintf_r+0x944>
   1f6b0:	ff0d8d9b          	addiw	s11,s11,-16
   1f6b4:	07013683          	ld	a3,112(sp)
   1f6b8:	06812703          	lw	a4,104(sp)
   1f6bc:	00098793          	mv	a5,s3
   1f6c0:	00813e03          	ld	t3,8(sp)
   1f6c4:	fbba4ae3          	blt	s4,s11,1f678 <_svfiprintf_r+0x398>
   1f6c8:	04013603          	ld	a2,64(sp)
   1f6cc:	00dd86b3          	add	a3,s11,a3
   1f6d0:	0017071b          	addiw	a4,a4,1
   1f6d4:	00c7b023          	sd	a2,0(a5)
   1f6d8:	01b7b423          	sd	s11,8(a5)
   1f6dc:	06d13823          	sd	a3,112(sp)
   1f6e0:	06e12423          	sw	a4,104(sp)
   1f6e4:	00700613          	li	a2,7
   1f6e8:	01078793          	addi	a5,a5,16
   1f6ec:	2ee65063          	ble	a4,a2,1f9cc <_svfiprintf_r+0x6ec>
   1f6f0:	06010613          	addi	a2,sp,96
   1f6f4:	000b0593          	mv	a1,s6
   1f6f8:	000b8513          	mv	a0,s7
   1f6fc:	9edff0ef          	jal	1f0e8 <__ssprint_r>
   1f700:	52051263          	bnez	a0,1fc24 <_svfiprintf_r+0x944>
   1f704:	07013683          	ld	a3,112(sp)
   1f708:	06812703          	lw	a4,104(sp)
   1f70c:	00098793          	mv	a5,s3
   1f710:	2bc0006f          	j	1f9cc <_svfiprintf_r+0x6ec>
   1f714:	080aea93          	ori	s5,s5,128
   1f718:	cfdff06f          	j	1f414 <_svfiprintf_r+0x134>
   1f71c:	0004c683          	lbu	a3,0(s1)
   1f720:	00148493          	addi	s1,s1,1
   1f724:	131688e3          	beq	a3,a7,20054 <_svfiprintf_r+0xd74>
   1f728:	fd06871b          	addiw	a4,a3,-48
   1f72c:	00000413          	li	s0,0
   1f730:	cee5e6e3          	bltu	a1,a4,1f41c <_svfiprintf_r+0x13c>
   1f734:	00148493          	addi	s1,s1,1
   1f738:	fff4c683          	lbu	a3,-1(s1)
   1f73c:	0014131b          	slliw	t1,s0,0x1
   1f740:	0034141b          	slliw	s0,s0,0x3
   1f744:	0083043b          	addw	s0,t1,s0
   1f748:	00e4043b          	addw	s0,s0,a4
   1f74c:	fd06871b          	addiw	a4,a3,-48
   1f750:	fee5f2e3          	bleu	a4,a1,1f734 <_svfiprintf_r+0x454>
   1f754:	cc0454e3          	bgez	s0,1f41c <_svfiprintf_r+0x13c>
   1f758:	fff00413          	li	s0,-1
   1f75c:	cc1ff06f          	j	1f41c <_svfiprintf_r+0x13c>
   1f760:	140514e3          	bnez	a0,200a8 <_svfiprintf_r+0xdc8>
   1f764:	010af713          	andi	a4,s5,16
   1f768:	76071a63          	bnez	a4,1fedc <_svfiprintf_r+0xbfc>
   1f76c:	02013683          	ld	a3,32(sp)
   1f770:	040afa93          	andi	s5,s5,64
   1f774:	0006b703          	ld	a4,0(a3)
   1f778:	00868693          	addi	a3,a3,8
   1f77c:	02d13023          	sd	a3,32(sp)
   1f780:	7c0a8c63          	beqz	s5,1ff58 <_svfiprintf_r+0xc78>
   1f784:	01c15683          	lhu	a3,28(sp)
   1f788:	00d71023          	sh	a3,0(a4)
   1f78c:	bedff06f          	j	1f378 <_svfiprintf_r+0x98>
   1f790:	c80812e3          	bnez	a6,1f414 <_svfiprintf_r+0x134>
   1f794:	00100513          	li	a0,1
   1f798:	02000813          	li	a6,32
   1f79c:	c79ff06f          	j	1f414 <_svfiprintf_r+0x134>
   1f7a0:	100518e3          	bnez	a0,200b0 <_svfiprintf_r+0xdd0>
   1f7a4:	010af713          	andi	a4,s5,16
   1f7a8:	16070063          	beqz	a4,1f908 <_svfiprintf_r+0x628>
   1f7ac:	02013703          	ld	a4,32(sp)
   1f7b0:	04010ba3          	sb	zero,87(sp)
   1f7b4:	00870693          	addi	a3,a4,8
   1f7b8:	00073703          	ld	a4,0(a4)
   1f7bc:	16044463          	bltz	s0,1f924 <_svfiprintf_r+0x644>
   1f7c0:	02d13023          	sd	a3,32(sp)
   1f7c4:	f7fafa93          	andi	s5,s5,-129
   1f7c8:	00000613          	li	a2,0
   1f7cc:	dc070ae3          	beqz	a4,1f5a0 <_svfiprintf_r+0x2c0>
   1f7d0:	00900693          	li	a3,9
   1f7d4:	00098d13          	mv	s10,s3
   1f7d8:	00a00593          	li	a1,10
   1f7dc:	72e6f063          	bleu	a4,a3,1fefc <_svfiprintf_r+0xc1c>
   1f7e0:	02b776b3          	remu	a3,a4,a1
   1f7e4:	fffd0d13          	addi	s10,s10,-1
   1f7e8:	02b75733          	divu	a4,a4,a1
   1f7ec:	0306869b          	addiw	a3,a3,48
   1f7f0:	00dd0023          	sb	a3,0(s10)
   1f7f4:	ce0702e3          	beqz	a4,1f4d8 <_svfiprintf_r+0x1f8>
   1f7f8:	02b776b3          	remu	a3,a4,a1
   1f7fc:	fffd0d13          	addi	s10,s10,-1
   1f800:	02b75733          	divu	a4,a4,a1
   1f804:	0306869b          	addiw	a3,a3,48
   1f808:	00dd0023          	sb	a3,0(s10)
   1f80c:	fc071ae3          	bnez	a4,1f7e0 <_svfiprintf_r+0x500>
   1f810:	cc9ff06f          	j	1f4d8 <_svfiprintf_r+0x1f8>
   1f814:	02013703          	ld	a4,32(sp)
   1f818:	04010ba3          	sb	zero,87(sp)
   1f81c:	00073d03          	ld	s10,0(a4)
   1f820:	00870d93          	addi	s11,a4,8
   1f824:	780d0063          	beqz	s10,1ffa4 <_svfiprintf_r+0xcc4>
   1f828:	00f13423          	sd	a5,8(sp)
   1f82c:	72044c63          	bltz	s0,1ff64 <_svfiprintf_r+0xc84>
   1f830:	00040613          	mv	a2,s0
   1f834:	00000593          	li	a1,0
   1f838:	000d0513          	mv	a0,s10
   1f83c:	a4cf80ef          	jal	17a88 <memchr>
   1f840:	00813783          	ld	a5,8(sp)
   1f844:	7e050a63          	beqz	a0,20038 <_svfiprintf_r+0xd58>
   1f848:	41a50533          	sub	a0,a0,s10
   1f84c:	00a12c23          	sw	a0,24(sp)
   1f850:	05714603          	lbu	a2,87(sp)
   1f854:	03b13023          	sd	s11,32(sp)
   1f858:	00000413          	li	s0,0
   1f85c:	d55ff06f          	j	1f5b0 <_svfiprintf_r+0x2d0>
   1f860:	02013683          	ld	a3,32(sp)
   1f864:	00100c93          	li	s9,1
   1f868:	04010ba3          	sb	zero,87(sp)
   1f86c:	0006a703          	lw	a4,0(a3)
   1f870:	01912c23          	sw	s9,24(sp)
   1f874:	07810d13          	addi	s10,sp,120
   1f878:	06e10c23          	sb	a4,120(sp)
   1f87c:	00868713          	addi	a4,a3,8
   1f880:	02e13023          	sd	a4,32(sp)
   1f884:	d9dff06f          	j	1f620 <_svfiprintf_r+0x340>
   1f888:	020518e3          	bnez	a0,200b8 <_svfiprintf_r+0xdd8>
   1f88c:	00022737          	lui	a4,0x22
   1f890:	ca070713          	addi	a4,a4,-864 # 21ca0 <zeroes.4123+0x690>
   1f894:	02e13823          	sd	a4,48(sp)
   1f898:	010af713          	andi	a4,s5,16
   1f89c:	0e070863          	beqz	a4,1f98c <_svfiprintf_r+0x6ac>
   1f8a0:	02013603          	ld	a2,32(sp)
   1f8a4:	00063703          	ld	a4,0(a2)
   1f8a8:	00860613          	addi	a2,a2,8
   1f8ac:	02c13023          	sd	a2,32(sp)
   1f8b0:	001af613          	andi	a2,s5,1
   1f8b4:	0e060c63          	beqz	a2,1f9ac <_svfiprintf_r+0x6cc>
   1f8b8:	52070463          	beqz	a4,1fde0 <_svfiprintf_r+0xb00>
   1f8bc:	03000613          	li	a2,48
   1f8c0:	04d10ca3          	sb	a3,89(sp)
   1f8c4:	04c10c23          	sb	a2,88(sp)
   1f8c8:	04010ba3          	sb	zero,87(sp)
   1f8cc:	002ae693          	ori	a3,s5,2
   1f8d0:	74044063          	bltz	s0,20010 <_svfiprintf_r+0xd30>
   1f8d4:	f7fafa93          	andi	s5,s5,-129
   1f8d8:	002aea93          	ori	s5,s5,2
   1f8dc:	00000613          	li	a2,0
   1f8e0:	bd5ff06f          	j	1f4b4 <_svfiprintf_r+0x1d4>
   1f8e4:	040aea93          	ori	s5,s5,64
   1f8e8:	b2dff06f          	j	1f414 <_svfiprintf_r+0x134>
   1f8ec:	c80504e3          	beqz	a0,1f574 <_svfiprintf_r+0x294>
   1f8f0:	05010ba3          	sb	a6,87(sp)
   1f8f4:	c81ff06f          	j	1f574 <_svfiprintf_r+0x294>
   1f8f8:	78051463          	bnez	a0,20080 <_svfiprintf_r+0xda0>
   1f8fc:	010aea93          	ori	s5,s5,16
   1f900:	010af713          	andi	a4,s5,16
   1f904:	ea0714e3          	bnez	a4,1f7ac <_svfiprintf_r+0x4cc>
   1f908:	040af713          	andi	a4,s5,64
   1f90c:	04010ba3          	sb	zero,87(sp)
   1f910:	58070c63          	beqz	a4,1fea8 <_svfiprintf_r+0xbc8>
   1f914:	02013703          	ld	a4,32(sp)
   1f918:	00870693          	addi	a3,a4,8
   1f91c:	00075703          	lhu	a4,0(a4)
   1f920:	ea0450e3          	bgez	s0,1f7c0 <_svfiprintf_r+0x4e0>
   1f924:	02d13023          	sd	a3,32(sp)
   1f928:	00000613          	li	a2,0
   1f92c:	ea0712e3          	bnez	a4,1f7d0 <_svfiprintf_r+0x4f0>
   1f930:	00100713          	li	a4,1
   1f934:	6000006f          	j	1ff34 <_svfiprintf_r+0xc54>
   1f938:	74051a63          	bnez	a0,2008c <_svfiprintf_r+0xdac>
   1f93c:	010aea93          	ori	s5,s5,16
   1f940:	010af713          	andi	a4,s5,16
   1f944:	ba071ce3          	bnez	a4,1f4fc <_svfiprintf_r+0x21c>
   1f948:	040af713          	andi	a4,s5,64
   1f94c:	04010ba3          	sb	zero,87(sp)
   1f950:	54070263          	beqz	a4,1fe94 <_svfiprintf_r+0xbb4>
   1f954:	02013703          	ld	a4,32(sp)
   1f958:	00870693          	addi	a3,a4,8
   1f95c:	00075703          	lhu	a4,0(a4)
   1f960:	ba0458e3          	bgez	s0,1f510 <_svfiprintf_r+0x230>
   1f964:	02d13023          	sd	a3,32(sp)
   1f968:	00000613          	li	a2,0
   1f96c:	ba071ae3          	bnez	a4,1f520 <_svfiprintf_r+0x240>
   1f970:	5c40006f          	j	1ff34 <_svfiprintf_r+0xc54>
   1f974:	74051663          	bnez	a0,200c0 <_svfiprintf_r+0xde0>
   1f978:	00022737          	lui	a4,0x22
   1f97c:	cb870713          	addi	a4,a4,-840 # 21cb8 <zeroes.4123+0x6a8>
   1f980:	02e13823          	sd	a4,48(sp)
   1f984:	010af713          	andi	a4,s5,16
   1f988:	f0071ce3          	bnez	a4,1f8a0 <_svfiprintf_r+0x5c0>
   1f98c:	040af713          	andi	a4,s5,64
   1f990:	02013603          	ld	a2,32(sp)
   1f994:	52070463          	beqz	a4,1febc <_svfiprintf_r+0xbdc>
   1f998:	00065703          	lhu	a4,0(a2)
   1f99c:	00860613          	addi	a2,a2,8
   1f9a0:	02c13023          	sd	a2,32(sp)
   1f9a4:	001af613          	andi	a2,s5,1
   1f9a8:	f00618e3          	bnez	a2,1f8b8 <_svfiprintf_r+0x5d8>
   1f9ac:	04010ba3          	sb	zero,87(sp)
   1f9b0:	56044c63          	bltz	s0,1ff28 <_svfiprintf_r+0xc48>
   1f9b4:	f7fafa93          	andi	s5,s5,-129
   1f9b8:	42070a63          	beqz	a4,1fdec <_svfiprintf_r+0xb0c>
   1f9bc:	00000613          	li	a2,0
   1f9c0:	af5ff06f          	j	1f4b4 <_svfiprintf_r+0x1d4>
   1f9c4:	07013683          	ld	a3,112(sp)
   1f9c8:	06812703          	lw	a4,104(sp)
   1f9cc:	05714603          	lbu	a2,87(sp)
   1f9d0:	02060863          	beqz	a2,1fa00 <_svfiprintf_r+0x720>
   1f9d4:	05710613          	addi	a2,sp,87
   1f9d8:	00c7b023          	sd	a2,0(a5)
   1f9dc:	00168693          	addi	a3,a3,1
   1f9e0:	00100613          	li	a2,1
   1f9e4:	0017071b          	addiw	a4,a4,1
   1f9e8:	00c7b423          	sd	a2,8(a5)
   1f9ec:	06d13823          	sd	a3,112(sp)
   1f9f0:	06e12423          	sw	a4,104(sp)
   1f9f4:	00700613          	li	a2,7
   1f9f8:	01078793          	addi	a5,a5,16
   1f9fc:	38e64e63          	blt	a2,a4,1fd98 <_svfiprintf_r+0xab8>
   1fa00:	03812603          	lw	a2,56(sp)
   1fa04:	02060863          	beqz	a2,1fa34 <_svfiprintf_r+0x754>
   1fa08:	05810613          	addi	a2,sp,88
   1fa0c:	00c7b023          	sd	a2,0(a5)
   1fa10:	00268693          	addi	a3,a3,2
   1fa14:	00200613          	li	a2,2
   1fa18:	0017071b          	addiw	a4,a4,1
   1fa1c:	00c7b423          	sd	a2,8(a5)
   1fa20:	06d13823          	sd	a3,112(sp)
   1fa24:	06e12423          	sw	a4,104(sp)
   1fa28:	00700613          	li	a2,7
   1fa2c:	01078793          	addi	a5,a5,16
   1fa30:	38e64663          	blt	a2,a4,1fdbc <_svfiprintf_r+0xadc>
   1fa34:	04812583          	lw	a1,72(sp)
   1fa38:	08000613          	li	a2,128
   1fa3c:	22c58a63          	beq	a1,a2,1fc70 <_svfiprintf_r+0x990>
   1fa40:	01812603          	lw	a2,24(sp)
   1fa44:	40c4043b          	subw	s0,s0,a2
   1fa48:	0c805063          	blez	s0,1fb08 <_svfiprintf_r+0x828>
   1fa4c:	01000613          	li	a2,16
   1fa50:	4e865e63          	ble	s0,a2,1ff4c <_svfiprintf_r+0xc6c>
   1fa54:	01000a13          	li	s4,16
   1fa58:	00021637          	lui	a2,0x21
   1fa5c:	61060d93          	addi	s11,a2,1552 # 21610 <zeroes.4123>
   1fa60:	00700e13          	li	t3,7
   1fa64:	000a0c13          	mv	s8,s4
   1fa68:	00c0006f          	j	1fa74 <_svfiprintf_r+0x794>
   1fa6c:	ff04041b          	addiw	s0,s0,-16
   1fa70:	048c5a63          	ble	s0,s8,1fac4 <_svfiprintf_r+0x7e4>
   1fa74:	01068693          	addi	a3,a3,16
   1fa78:	0017071b          	addiw	a4,a4,1
   1fa7c:	01b7b023          	sd	s11,0(a5)
   1fa80:	0147b423          	sd	s4,8(a5)
   1fa84:	06d13823          	sd	a3,112(sp)
   1fa88:	06e12423          	sw	a4,104(sp)
   1fa8c:	01078793          	addi	a5,a5,16
   1fa90:	fcee5ee3          	ble	a4,t3,1fa6c <_svfiprintf_r+0x78c>
   1fa94:	06010613          	addi	a2,sp,96
   1fa98:	000b0593          	mv	a1,s6
   1fa9c:	000b8513          	mv	a0,s7
   1faa0:	01c13423          	sd	t3,8(sp)
   1faa4:	e44ff0ef          	jal	1f0e8 <__ssprint_r>
   1faa8:	16051e63          	bnez	a0,1fc24 <_svfiprintf_r+0x944>
   1faac:	ff04041b          	addiw	s0,s0,-16
   1fab0:	07013683          	ld	a3,112(sp)
   1fab4:	06812703          	lw	a4,104(sp)
   1fab8:	00098793          	mv	a5,s3
   1fabc:	00813e03          	ld	t3,8(sp)
   1fac0:	fa8c4ae3          	blt	s8,s0,1fa74 <_svfiprintf_r+0x794>
   1fac4:	008686b3          	add	a3,a3,s0
   1fac8:	0017071b          	addiw	a4,a4,1
   1facc:	01b7b023          	sd	s11,0(a5)
   1fad0:	0087b423          	sd	s0,8(a5)
   1fad4:	06d13823          	sd	a3,112(sp)
   1fad8:	06e12423          	sw	a4,104(sp)
   1fadc:	00700613          	li	a2,7
   1fae0:	01078793          	addi	a5,a5,16
   1fae4:	02e65263          	ble	a4,a2,1fb08 <_svfiprintf_r+0x828>
   1fae8:	06010613          	addi	a2,sp,96
   1faec:	000b0593          	mv	a1,s6
   1faf0:	000b8513          	mv	a0,s7
   1faf4:	df4ff0ef          	jal	1f0e8 <__ssprint_r>
   1faf8:	12051663          	bnez	a0,1fc24 <_svfiprintf_r+0x944>
   1fafc:	07013683          	ld	a3,112(sp)
   1fb00:	06812703          	lw	a4,104(sp)
   1fb04:	00098793          	mv	a5,s3
   1fb08:	01812c03          	lw	s8,24(sp)
   1fb0c:	0017071b          	addiw	a4,a4,1
   1fb10:	01a7b023          	sd	s10,0(a5)
   1fb14:	00dc06b3          	add	a3,s8,a3
   1fb18:	0187b423          	sd	s8,8(a5)
   1fb1c:	06d13823          	sd	a3,112(sp)
   1fb20:	06e12423          	sw	a4,104(sp)
   1fb24:	00700613          	li	a2,7
   1fb28:	01078793          	addi	a5,a5,16
   1fb2c:	20e64c63          	blt	a2,a4,1fd44 <_svfiprintf_r+0xa64>
   1fb30:	004afa93          	andi	s5,s5,4
   1fb34:	0a0a8263          	beqz	s5,1fbd8 <_svfiprintf_r+0x8f8>
   1fb38:	01412703          	lw	a4,20(sp)
   1fb3c:	4197043b          	subw	s0,a4,s9
   1fb40:	08805c63          	blez	s0,1fbd8 <_svfiprintf_r+0x8f8>
   1fb44:	01000713          	li	a4,16
   1fb48:	4c875c63          	ble	s0,a4,20020 <_svfiprintf_r+0xd40>
   1fb4c:	01000a93          	li	s5,16
   1fb50:	06812703          	lw	a4,104(sp)
   1fb54:	05213023          	sd	s2,64(sp)
   1fb58:	00700c13          	li	s8,7
   1fb5c:	000a8d13          	mv	s10,s5
   1fb60:	00c0006f          	j	1fb6c <_svfiprintf_r+0x88c>
   1fb64:	ff04041b          	addiw	s0,s0,-16
   1fb68:	048d5663          	ble	s0,s10,1fbb4 <_svfiprintf_r+0x8d4>
   1fb6c:	01068693          	addi	a3,a3,16
   1fb70:	0017071b          	addiw	a4,a4,1
   1fb74:	0127b023          	sd	s2,0(a5)
   1fb78:	0157b423          	sd	s5,8(a5)
   1fb7c:	06d13823          	sd	a3,112(sp)
   1fb80:	06e12423          	sw	a4,104(sp)
   1fb84:	01078793          	addi	a5,a5,16
   1fb88:	fcec5ee3          	ble	a4,s8,1fb64 <_svfiprintf_r+0x884>
   1fb8c:	06010613          	addi	a2,sp,96
   1fb90:	000b0593          	mv	a1,s6
   1fb94:	000b8513          	mv	a0,s7
   1fb98:	d50ff0ef          	jal	1f0e8 <__ssprint_r>
   1fb9c:	08051463          	bnez	a0,1fc24 <_svfiprintf_r+0x944>
   1fba0:	ff04041b          	addiw	s0,s0,-16
   1fba4:	07013683          	ld	a3,112(sp)
   1fba8:	06812703          	lw	a4,104(sp)
   1fbac:	00098793          	mv	a5,s3
   1fbb0:	fa8d4ee3          	blt	s10,s0,1fb6c <_svfiprintf_r+0x88c>
   1fbb4:	04013603          	ld	a2,64(sp)
   1fbb8:	008686b3          	add	a3,a3,s0
   1fbbc:	0017071b          	addiw	a4,a4,1
   1fbc0:	00c7b023          	sd	a2,0(a5)
   1fbc4:	0087b423          	sd	s0,8(a5)
   1fbc8:	06d13823          	sd	a3,112(sp)
   1fbcc:	06e12423          	sw	a4,104(sp)
   1fbd0:	00700793          	li	a5,7
   1fbd4:	28e7c663          	blt	a5,a4,1fe60 <_svfiprintf_r+0xb80>
   1fbd8:	01412a03          	lw	s4,20(sp)
   1fbdc:	019a5463          	ble	s9,s4,1fbe4 <_svfiprintf_r+0x904>
   1fbe0:	000c8a13          	mv	s4,s9
   1fbe4:	01c12783          	lw	a5,28(sp)
   1fbe8:	014787bb          	addw	a5,a5,s4
   1fbec:	00f12e23          	sw	a5,28(sp)
   1fbf0:	16069a63          	bnez	a3,1fd64 <_svfiprintf_r+0xa84>
   1fbf4:	0004c703          	lbu	a4,0(s1)
   1fbf8:	06012423          	sw	zero,104(sp)
   1fbfc:	00098793          	mv	a5,s3
   1fc00:	f8071063          	bnez	a4,1f380 <_svfiprintf_r+0xa0>
   1fc04:	00048413          	mv	s0,s1
   1fc08:	fdcff06f          	j	1f3e4 <_svfiprintf_r+0x104>
   1fc0c:	07013783          	ld	a5,112(sp)
   1fc10:	00078a63          	beqz	a5,1fc24 <_svfiprintf_r+0x944>
   1fc14:	06010613          	addi	a2,sp,96
   1fc18:	000b0593          	mv	a1,s6
   1fc1c:	000b8513          	mv	a0,s7
   1fc20:	cc8ff0ef          	jal	1f0e8 <__ssprint_r>
   1fc24:	010b5783          	lhu	a5,16(s6)
   1fc28:	01c12503          	lw	a0,28(sp)
   1fc2c:	0407f793          	andi	a5,a5,64
   1fc30:	3a079a63          	bnez	a5,1ffe4 <_svfiprintf_r+0xd04>
   1fc34:	18813083          	ld	ra,392(sp)
   1fc38:	18013403          	ld	s0,384(sp)
   1fc3c:	17813483          	ld	s1,376(sp)
   1fc40:	17013903          	ld	s2,368(sp)
   1fc44:	16813983          	ld	s3,360(sp)
   1fc48:	16013a03          	ld	s4,352(sp)
   1fc4c:	15813a83          	ld	s5,344(sp)
   1fc50:	15013b03          	ld	s6,336(sp)
   1fc54:	14813b83          	ld	s7,328(sp)
   1fc58:	14013c03          	ld	s8,320(sp)
   1fc5c:	13813c83          	ld	s9,312(sp)
   1fc60:	13013d03          	ld	s10,304(sp)
   1fc64:	12813d83          	ld	s11,296(sp)
   1fc68:	19010113          	addi	sp,sp,400
   1fc6c:	00008067          	ret
   1fc70:	01412603          	lw	a2,20(sp)
   1fc74:	41960a3b          	subw	s4,a2,s9
   1fc78:	dd4054e3          	blez	s4,1fa40 <_svfiprintf_r+0x760>
   1fc7c:	01000613          	li	a2,16
   1fc80:	3b465663          	ble	s4,a2,2002c <_svfiprintf_r+0xd4c>
   1fc84:	01000e13          	li	t3,16
   1fc88:	00021637          	lui	a2,0x21
   1fc8c:	61060d93          	addi	s11,a2,1552 # 21610 <zeroes.4123>
   1fc90:	00700e93          	li	t4,7
   1fc94:	000e0c13          	mv	s8,t3
   1fc98:	00c0006f          	j	1fca4 <_svfiprintf_r+0x9c4>
   1fc9c:	ff0a0a1b          	addiw	s4,s4,-16
   1fca0:	054c5e63          	ble	s4,s8,1fcfc <_svfiprintf_r+0xa1c>
   1fca4:	01068693          	addi	a3,a3,16
   1fca8:	0017071b          	addiw	a4,a4,1
   1fcac:	01b7b023          	sd	s11,0(a5)
   1fcb0:	01c7b423          	sd	t3,8(a5)
   1fcb4:	06d13823          	sd	a3,112(sp)
   1fcb8:	06e12423          	sw	a4,104(sp)
   1fcbc:	01078793          	addi	a5,a5,16
   1fcc0:	fceedee3          	ble	a4,t4,1fc9c <_svfiprintf_r+0x9bc>
   1fcc4:	06010613          	addi	a2,sp,96
   1fcc8:	000b0593          	mv	a1,s6
   1fccc:	000b8513          	mv	a0,s7
   1fcd0:	03d13c23          	sd	t4,56(sp)
   1fcd4:	01c13423          	sd	t3,8(sp)
   1fcd8:	c10ff0ef          	jal	1f0e8 <__ssprint_r>
   1fcdc:	f40514e3          	bnez	a0,1fc24 <_svfiprintf_r+0x944>
   1fce0:	ff0a0a1b          	addiw	s4,s4,-16
   1fce4:	07013683          	ld	a3,112(sp)
   1fce8:	06812703          	lw	a4,104(sp)
   1fcec:	00098793          	mv	a5,s3
   1fcf0:	03813e83          	ld	t4,56(sp)
   1fcf4:	00813e03          	ld	t3,8(sp)
   1fcf8:	fb4c46e3          	blt	s8,s4,1fca4 <_svfiprintf_r+0x9c4>
   1fcfc:	014686b3          	add	a3,a3,s4
   1fd00:	0017071b          	addiw	a4,a4,1
   1fd04:	01b7b023          	sd	s11,0(a5)
   1fd08:	0147b423          	sd	s4,8(a5)
   1fd0c:	06d13823          	sd	a3,112(sp)
   1fd10:	06e12423          	sw	a4,104(sp)
   1fd14:	00700613          	li	a2,7
   1fd18:	01078793          	addi	a5,a5,16
   1fd1c:	d2e652e3          	ble	a4,a2,1fa40 <_svfiprintf_r+0x760>
   1fd20:	06010613          	addi	a2,sp,96
   1fd24:	000b0593          	mv	a1,s6
   1fd28:	000b8513          	mv	a0,s7
   1fd2c:	bbcff0ef          	jal	1f0e8 <__ssprint_r>
   1fd30:	ee051ae3          	bnez	a0,1fc24 <_svfiprintf_r+0x944>
   1fd34:	07013683          	ld	a3,112(sp)
   1fd38:	06812703          	lw	a4,104(sp)
   1fd3c:	00098793          	mv	a5,s3
   1fd40:	d01ff06f          	j	1fa40 <_svfiprintf_r+0x760>
   1fd44:	06010613          	addi	a2,sp,96
   1fd48:	000b0593          	mv	a1,s6
   1fd4c:	000b8513          	mv	a0,s7
   1fd50:	b98ff0ef          	jal	1f0e8 <__ssprint_r>
   1fd54:	ec0518e3          	bnez	a0,1fc24 <_svfiprintf_r+0x944>
   1fd58:	07013683          	ld	a3,112(sp)
   1fd5c:	00098793          	mv	a5,s3
   1fd60:	dd1ff06f          	j	1fb30 <_svfiprintf_r+0x850>
   1fd64:	06010613          	addi	a2,sp,96
   1fd68:	000b0593          	mv	a1,s6
   1fd6c:	000b8513          	mv	a0,s7
   1fd70:	b78ff0ef          	jal	1f0e8 <__ssprint_r>
   1fd74:	e80500e3          	beqz	a0,1fbf4 <_svfiprintf_r+0x914>
   1fd78:	eadff06f          	j	1fc24 <_svfiprintf_r+0x944>
   1fd7c:	06010613          	addi	a2,sp,96
   1fd80:	000b0593          	mv	a1,s6
   1fd84:	000b8513          	mv	a0,s7
   1fd88:	b60ff0ef          	jal	1f0e8 <__ssprint_r>
   1fd8c:	e8051ce3          	bnez	a0,1fc24 <_svfiprintf_r+0x944>
   1fd90:	00098793          	mv	a5,s3
   1fd94:	e44ff06f          	j	1f3d8 <_svfiprintf_r+0xf8>
   1fd98:	06010613          	addi	a2,sp,96
   1fd9c:	000b0593          	mv	a1,s6
   1fda0:	000b8513          	mv	a0,s7
   1fda4:	b44ff0ef          	jal	1f0e8 <__ssprint_r>
   1fda8:	e6051ee3          	bnez	a0,1fc24 <_svfiprintf_r+0x944>
   1fdac:	07013683          	ld	a3,112(sp)
   1fdb0:	06812703          	lw	a4,104(sp)
   1fdb4:	00098793          	mv	a5,s3
   1fdb8:	c49ff06f          	j	1fa00 <_svfiprintf_r+0x720>
   1fdbc:	06010613          	addi	a2,sp,96
   1fdc0:	000b0593          	mv	a1,s6
   1fdc4:	000b8513          	mv	a0,s7
   1fdc8:	b20ff0ef          	jal	1f0e8 <__ssprint_r>
   1fdcc:	e4051ce3          	bnez	a0,1fc24 <_svfiprintf_r+0x944>
   1fdd0:	07013683          	ld	a3,112(sp)
   1fdd4:	06812703          	lw	a4,104(sp)
   1fdd8:	00098793          	mv	a5,s3
   1fddc:	c59ff06f          	j	1fa34 <_svfiprintf_r+0x754>
   1fde0:	04010ba3          	sb	zero,87(sp)
   1fde4:	22044263          	bltz	s0,20008 <_svfiprintf_r+0xd28>
   1fde8:	f7fafa93          	andi	s5,s5,-129
   1fdec:	00000613          	li	a2,0
   1fdf0:	fa040a63          	beqz	s0,1f5a4 <_svfiprintf_r+0x2c4>
   1fdf4:	00000713          	li	a4,0
   1fdf8:	ebcff06f          	j	1f4b4 <_svfiprintf_r+0x1d4>
   1fdfc:	040af713          	andi	a4,s5,64
   1fe00:	02013683          	ld	a3,32(sp)
   1fe04:	0c070463          	beqz	a4,1fecc <_svfiprintf_r+0xbec>
   1fe08:	00069703          	lh	a4,0(a3)
   1fe0c:	00868693          	addi	a3,a3,8
   1fe10:	02d13023          	sd	a3,32(sp)
   1fe14:	f6075e63          	bgez	a4,1f590 <_svfiprintf_r+0x2b0>
   1fe18:	02d00693          	li	a3,45
   1fe1c:	04d10ba3          	sb	a3,87(sp)
   1fe20:	40e00733          	neg	a4,a4
   1fe24:	1c044463          	bltz	s0,1ffec <_svfiprintf_r+0xd0c>
   1fe28:	f7fafa93          	andi	s5,s5,-129
   1fe2c:	02d00613          	li	a2,45
   1fe30:	9a1ff06f          	j	1f7d0 <_svfiprintf_r+0x4f0>
   1fe34:	00000613          	li	a2,0
   1fe38:	00000713          	li	a4,0
   1fe3c:	ee041263          	bnez	s0,1f520 <_svfiprintf_r+0x240>
   1fe40:	001af713          	andi	a4,s5,1
   1fe44:	18070463          	beqz	a4,1ffcc <_svfiprintf_r+0xcec>
   1fe48:	03000713          	li	a4,48
   1fe4c:	08e10fa3          	sb	a4,159(sp)
   1fe50:	04c12703          	lw	a4,76(sp)
   1fe54:	09f10d13          	addi	s10,sp,159
   1fe58:	00e12c23          	sw	a4,24(sp)
   1fe5c:	f54ff06f          	j	1f5b0 <_svfiprintf_r+0x2d0>
   1fe60:	06010613          	addi	a2,sp,96
   1fe64:	000b0593          	mv	a1,s6
   1fe68:	000b8513          	mv	a0,s7
   1fe6c:	a7cff0ef          	jal	1f0e8 <__ssprint_r>
   1fe70:	da051ae3          	bnez	a0,1fc24 <_svfiprintf_r+0x944>
   1fe74:	07013683          	ld	a3,112(sp)
   1fe78:	d61ff06f          	j	1fbd8 <_svfiprintf_r+0x8f8>
   1fe7c:	00022737          	lui	a4,0x22
   1fe80:	cb870713          	addi	a4,a4,-840 # 21cb8 <zeroes.4123+0x6a8>
   1fe84:	02e13823          	sd	a4,48(sp)
   1fe88:	00000613          	li	a2,0
   1fe8c:	f60414e3          	bnez	s0,1fdf4 <_svfiprintf_r+0xb14>
   1fe90:	f14ff06f          	j	1f5a4 <_svfiprintf_r+0x2c4>
   1fe94:	02013703          	ld	a4,32(sp)
   1fe98:	00870693          	addi	a3,a4,8
   1fe9c:	00076703          	lwu	a4,0(a4)
   1fea0:	e6045863          	bgez	s0,1f510 <_svfiprintf_r+0x230>
   1fea4:	ac1ff06f          	j	1f964 <_svfiprintf_r+0x684>
   1fea8:	02013703          	ld	a4,32(sp)
   1feac:	00870693          	addi	a3,a4,8
   1feb0:	00076703          	lwu	a4,0(a4)
   1feb4:	900456e3          	bgez	s0,1f7c0 <_svfiprintf_r+0x4e0>
   1feb8:	a6dff06f          	j	1f924 <_svfiprintf_r+0x644>
   1febc:	00066703          	lwu	a4,0(a2)
   1fec0:	00860613          	addi	a2,a2,8
   1fec4:	02c13023          	sd	a2,32(sp)
   1fec8:	9e9ff06f          	j	1f8b0 <_svfiprintf_r+0x5d0>
   1fecc:	0006a703          	lw	a4,0(a3)
   1fed0:	00868693          	addi	a3,a3,8
   1fed4:	02d13023          	sd	a3,32(sp)
   1fed8:	eb4ff06f          	j	1f58c <_svfiprintf_r+0x2ac>
   1fedc:	02013603          	ld	a2,32(sp)
   1fee0:	01c12683          	lw	a3,28(sp)
   1fee4:	00063703          	ld	a4,0(a2)
   1fee8:	00860613          	addi	a2,a2,8
   1feec:	02c13023          	sd	a2,32(sp)
   1fef0:	00d73023          	sd	a3,0(a4)
   1fef4:	c84ff06f          	j	1f378 <_svfiprintf_r+0x98>
   1fef8:	00000713          	li	a4,0
   1fefc:	0307071b          	addiw	a4,a4,48
   1ff00:	08e10fa3          	sb	a4,159(sp)
   1ff04:	04c12703          	lw	a4,76(sp)
   1ff08:	09f10d13          	addi	s10,sp,159
   1ff0c:	00e12c23          	sw	a4,24(sp)
   1ff10:	ea0ff06f          	j	1f5b0 <_svfiprintf_r+0x2d0>
   1ff14:	02d13023          	sd	a3,32(sp)
   1ff18:	000226b7          	lui	a3,0x22
   1ff1c:	cb868693          	addi	a3,a3,-840 # 21cb8 <zeroes.4123+0x6a8>
   1ff20:	00060a93          	mv	s5,a2
   1ff24:	02d13823          	sd	a3,48(sp)
   1ff28:	00000613          	li	a2,0
   1ff2c:	d8071463          	bnez	a4,1f4b4 <_svfiprintf_r+0x1d4>
   1ff30:	00200713          	li	a4,2
   1ff34:	00100693          	li	a3,1
   1ff38:	fcd700e3          	beq	a4,a3,1fef8 <_svfiprintf_r+0xc18>
   1ff3c:	00200693          	li	a3,2
   1ff40:	ead70ae3          	beq	a4,a3,1fdf4 <_svfiprintf_r+0xb14>
   1ff44:	00000713          	li	a4,0
   1ff48:	dd8ff06f          	j	1f520 <_svfiprintf_r+0x240>
   1ff4c:	00021637          	lui	a2,0x21
   1ff50:	61060d93          	addi	s11,a2,1552 # 21610 <zeroes.4123>
   1ff54:	b71ff06f          	j	1fac4 <_svfiprintf_r+0x7e4>
   1ff58:	01c12683          	lw	a3,28(sp)
   1ff5c:	00d72023          	sw	a3,0(a4)
   1ff60:	c18ff06f          	j	1f378 <_svfiprintf_r+0x98>
   1ff64:	000d0513          	mv	a0,s10
   1ff68:	ac9f10ef          	jal	11a30 <strlen>
   1ff6c:	00a12c23          	sw	a0,24(sp)
   1ff70:	05714603          	lbu	a2,87(sp)
   1ff74:	03b13023          	sd	s11,32(sp)
   1ff78:	00000413          	li	s0,0
   1ff7c:	00813783          	ld	a5,8(sp)
   1ff80:	e30ff06f          	j	1f5b0 <_svfiprintf_r+0x2d0>
   1ff84:	04000593          	li	a1,64
   1ff88:	d85f00ef          	jal	10d0c <_malloc_r>
   1ff8c:	00ab3023          	sd	a0,0(s6)
   1ff90:	00ab3c23          	sd	a0,24(s6)
   1ff94:	10050263          	beqz	a0,20098 <_svfiprintf_r+0xdb8>
   1ff98:	04000793          	li	a5,64
   1ff9c:	02fb2023          	sw	a5,32(s6)
   1ffa0:	b9cff06f          	j	1f33c <_svfiprintf_r+0x5c>
   1ffa4:	00600713          	li	a4,6
   1ffa8:	00877463          	bleu	s0,a4,1ffb0 <_svfiprintf_r+0xcd0>
   1ffac:	00070413          	mv	s0,a4
   1ffb0:	00812c23          	sw	s0,24(sp)
   1ffb4:	00040c93          	mv	s9,s0
   1ffb8:	08044a63          	bltz	s0,2004c <_svfiprintf_r+0xd6c>
   1ffbc:	000228b7          	lui	a7,0x22
   1ffc0:	03b13023          	sd	s11,32(sp)
   1ffc4:	cd088d13          	addi	s10,a7,-816 # 21cd0 <zeroes.4123+0x6c0>
   1ffc8:	e58ff06f          	j	1f620 <_svfiprintf_r+0x340>
   1ffcc:	00012c23          	sw	zero,24(sp)
   1ffd0:	00098d13          	mv	s10,s3
   1ffd4:	ddcff06f          	j	1f5b0 <_svfiprintf_r+0x2d0>
   1ffd8:	06812703          	lw	a4,104(sp)
   1ffdc:	05213023          	sd	s2,64(sp)
   1ffe0:	ee8ff06f          	j	1f6c8 <_svfiprintf_r+0x3e8>
   1ffe4:	fff00513          	li	a0,-1
   1ffe8:	c4dff06f          	j	1fc34 <_svfiprintf_r+0x954>
   1ffec:	02d00613          	li	a2,45
   1fff0:	00100693          	li	a3,1
   1fff4:	00100593          	li	a1,1
   1fff8:	fcb68c63          	beq	a3,a1,1f7d0 <_svfiprintf_r+0x4f0>
   1fffc:	00200593          	li	a1,2
   20000:	cab68a63          	beq	a3,a1,1f4b4 <_svfiprintf_r+0x1d4>
   20004:	d1cff06f          	j	1f520 <_svfiprintf_r+0x240>
   20008:	00000613          	li	a2,0
   2000c:	f25ff06f          	j	1ff30 <_svfiprintf_r+0xc50>
   20010:	00068a93          	mv	s5,a3
   20014:	00000613          	li	a2,0
   20018:	00200693          	li	a3,2
   2001c:	fd9ff06f          	j	1fff4 <_svfiprintf_r+0xd14>
   20020:	06812703          	lw	a4,104(sp)
   20024:	05213023          	sd	s2,64(sp)
   20028:	b8dff06f          	j	1fbb4 <_svfiprintf_r+0x8d4>
   2002c:	00021637          	lui	a2,0x21
   20030:	61060d93          	addi	s11,a2,1552 # 21610 <zeroes.4123>
   20034:	cc9ff06f          	j	1fcfc <_svfiprintf_r+0xa1c>
   20038:	00812c23          	sw	s0,24(sp)
   2003c:	05714603          	lbu	a2,87(sp)
   20040:	03b13023          	sd	s11,32(sp)
   20044:	00000413          	li	s0,0
   20048:	d68ff06f          	j	1f5b0 <_svfiprintf_r+0x2d0>
   2004c:	00000c93          	li	s9,0
   20050:	f6dff06f          	j	1ffbc <_svfiprintf_r+0xcdc>
   20054:	02013703          	ld	a4,32(sp)
   20058:	00072403          	lw	s0,0(a4)
   2005c:	00870d93          	addi	s11,a4,8
   20060:	03b13023          	sd	s11,32(sp)
   20064:	ba045863          	bgez	s0,1f414 <_svfiprintf_r+0x134>
   20068:	fff00413          	li	s0,-1
   2006c:	ba8ff06f          	j	1f414 <_svfiprintf_r+0x134>
   20070:	05010ba3          	sb	a6,87(sp)
   20074:	d94ff06f          	j	1f608 <_svfiprintf_r+0x328>
   20078:	05010ba3          	sb	a6,87(sp)
   2007c:	c78ff06f          	j	1f4f4 <_svfiprintf_r+0x214>
   20080:	05010ba3          	sb	a6,87(sp)
   20084:	010aea93          	ori	s5,s5,16
   20088:	879ff06f          	j	1f900 <_svfiprintf_r+0x620>
   2008c:	05010ba3          	sb	a6,87(sp)
   20090:	010aea93          	ori	s5,s5,16
   20094:	8adff06f          	j	1f940 <_svfiprintf_r+0x660>
   20098:	00c00793          	li	a5,12
   2009c:	00fba023          	sw	a5,0(s7)
   200a0:	fff00513          	li	a0,-1
   200a4:	b91ff06f          	j	1fc34 <_svfiprintf_r+0x954>
   200a8:	05010ba3          	sb	a6,87(sp)
   200ac:	eb8ff06f          	j	1f764 <_svfiprintf_r+0x484>
   200b0:	05010ba3          	sb	a6,87(sp)
   200b4:	ef0ff06f          	j	1f7a4 <_svfiprintf_r+0x4c4>
   200b8:	05010ba3          	sb	a6,87(sp)
   200bc:	fd0ff06f          	j	1f88c <_svfiprintf_r+0x5ac>
   200c0:	05010ba3          	sb	a6,87(sp)
   200c4:	8b5ff06f          	j	1f978 <_svfiprintf_r+0x698>
   200c8:	05010ba3          	sb	a6,87(sp)
   200cc:	ca4ff06f          	j	1f570 <_svfiprintf_r+0x290>

00000000000200d0 <_wcrtomb_r>:
   200d0:	fc010113          	addi	sp,sp,-64
   200d4:	02913423          	sd	s1,40(sp)
   200d8:	03213023          	sd	s2,32(sp)
   200dc:	02113c23          	sd	ra,56(sp)
   200e0:	02813823          	sd	s0,48(sp)
   200e4:	01313c23          	sd	s3,24(sp)
   200e8:	01413823          	sd	s4,16(sp)
   200ec:	00050493          	mv	s1,a0
   200f0:	00068913          	mv	s2,a3
   200f4:	06058663          	beqz	a1,20160 <_wcrtomb_r+0x90>
   200f8:	8401ba03          	ld	s4,-1984(gp) # 24410 <__wctomb>
   200fc:	00058413          	mv	s0,a1
   20100:	00060993          	mv	s3,a2
   20104:	d2cf70ef          	jal	17630 <__locale_charset>
   20108:	00050693          	mv	a3,a0
   2010c:	00090713          	mv	a4,s2
   20110:	00098613          	mv	a2,s3
   20114:	00040593          	mv	a1,s0
   20118:	00048513          	mv	a0,s1
   2011c:	000a00e7          	jalr	s4
   20120:	00050793          	mv	a5,a0
   20124:	fff00713          	li	a4,-1
   20128:	00078513          	mv	a0,a5
   2012c:	00e79a63          	bne	a5,a4,20140 <_wcrtomb_r+0x70>
   20130:	00092023          	sw	zero,0(s2)
   20134:	08a00793          	li	a5,138
   20138:	00f4a023          	sw	a5,0(s1)
   2013c:	fff00513          	li	a0,-1
   20140:	03813083          	ld	ra,56(sp)
   20144:	03013403          	ld	s0,48(sp)
   20148:	02813483          	ld	s1,40(sp)
   2014c:	02013903          	ld	s2,32(sp)
   20150:	01813983          	ld	s3,24(sp)
   20154:	01013a03          	ld	s4,16(sp)
   20158:	04010113          	addi	sp,sp,64
   2015c:	00008067          	ret
   20160:	8401b403          	ld	s0,-1984(gp) # 24410 <__wctomb>
   20164:	cccf70ef          	jal	17630 <__locale_charset>
   20168:	00050693          	mv	a3,a0
   2016c:	00090713          	mv	a4,s2
   20170:	00000613          	li	a2,0
   20174:	00010593          	mv	a1,sp
   20178:	00048513          	mv	a0,s1
   2017c:	000400e7          	jalr	s0
   20180:	00050793          	mv	a5,a0
   20184:	fa1ff06f          	j	20124 <_wcrtomb_r+0x54>

0000000000020188 <wcrtomb>:
   20188:	fc010113          	addi	sp,sp,-64
   2018c:	02913423          	sd	s1,40(sp)
   20190:	03213023          	sd	s2,32(sp)
   20194:	02113c23          	sd	ra,56(sp)
   20198:	02813823          	sd	s0,48(sp)
   2019c:	01313c23          	sd	s3,24(sp)
   201a0:	01413823          	sd	s4,16(sp)
   201a4:	00060913          	mv	s2,a2
   201a8:	8101b483          	ld	s1,-2032(gp) # 243e0 <_impure_ptr>
   201ac:	06050663          	beqz	a0,20218 <wcrtomb+0x90>
   201b0:	8401ba03          	ld	s4,-1984(gp) # 24410 <__wctomb>
   201b4:	00058993          	mv	s3,a1
   201b8:	00050413          	mv	s0,a0
   201bc:	c74f70ef          	jal	17630 <__locale_charset>
   201c0:	00050693          	mv	a3,a0
   201c4:	00090713          	mv	a4,s2
   201c8:	00098613          	mv	a2,s3
   201cc:	00040593          	mv	a1,s0
   201d0:	00048513          	mv	a0,s1
   201d4:	000a00e7          	jalr	s4
   201d8:	00050793          	mv	a5,a0
   201dc:	fff00713          	li	a4,-1
   201e0:	00078513          	mv	a0,a5
   201e4:	00e79a63          	bne	a5,a4,201f8 <wcrtomb+0x70>
   201e8:	00092023          	sw	zero,0(s2)
   201ec:	08a00793          	li	a5,138
   201f0:	00f4a023          	sw	a5,0(s1)
   201f4:	fff00513          	li	a0,-1
   201f8:	03813083          	ld	ra,56(sp)
   201fc:	03013403          	ld	s0,48(sp)
   20200:	02813483          	ld	s1,40(sp)
   20204:	02013903          	ld	s2,32(sp)
   20208:	01813983          	ld	s3,24(sp)
   2020c:	01013a03          	ld	s4,16(sp)
   20210:	04010113          	addi	sp,sp,64
   20214:	00008067          	ret
   20218:	8401b403          	ld	s0,-1984(gp) # 24410 <__wctomb>
   2021c:	c14f70ef          	jal	17630 <__locale_charset>
   20220:	00050693          	mv	a3,a0
   20224:	00090713          	mv	a4,s2
   20228:	00000613          	li	a2,0
   2022c:	00010593          	mv	a1,sp
   20230:	00048513          	mv	a0,s1
   20234:	000400e7          	jalr	s0
   20238:	00050793          	mv	a5,a0
   2023c:	fa1ff06f          	j	201dc <wcrtomb+0x54>

0000000000020240 <__ascii_wctomb>:
   20240:	00058c63          	beqz	a1,20258 <__ascii_wctomb+0x18>
   20244:	0ff00793          	li	a5,255
   20248:	00c7ec63          	bltu	a5,a2,20260 <__ascii_wctomb+0x20>
   2024c:	00c58023          	sb	a2,0(a1)
   20250:	00100513          	li	a0,1
   20254:	00008067          	ret
   20258:	00000513          	li	a0,0
   2025c:	00008067          	ret
   20260:	08a00793          	li	a5,138
   20264:	00f52023          	sw	a5,0(a0)
   20268:	fff00513          	li	a0,-1
   2026c:	00008067          	ret

0000000000020270 <_wctomb_r>:
   20270:	fd010113          	addi	sp,sp,-48
   20274:	02813023          	sd	s0,32(sp)
   20278:	8401b403          	ld	s0,-1984(gp) # 24410 <__wctomb>
   2027c:	02113423          	sd	ra,40(sp)
   20280:	00913c23          	sd	s1,24(sp)
   20284:	01213823          	sd	s2,16(sp)
   20288:	01313423          	sd	s3,8(sp)
   2028c:	01413023          	sd	s4,0(sp)
   20290:	00050493          	mv	s1,a0
   20294:	00068a13          	mv	s4,a3
   20298:	00058913          	mv	s2,a1
   2029c:	00060993          	mv	s3,a2
   202a0:	b90f70ef          	jal	17630 <__locale_charset>
   202a4:	000a0713          	mv	a4,s4
   202a8:	00050693          	mv	a3,a0
   202ac:	00098613          	mv	a2,s3
   202b0:	00090593          	mv	a1,s2
   202b4:	00048513          	mv	a0,s1
   202b8:	00040313          	mv	t1,s0
   202bc:	02813083          	ld	ra,40(sp)
   202c0:	02013403          	ld	s0,32(sp)
   202c4:	01813483          	ld	s1,24(sp)
   202c8:	01013903          	ld	s2,16(sp)
   202cc:	00813983          	ld	s3,8(sp)
   202d0:	00013a03          	ld	s4,0(sp)
   202d4:	03010113          	addi	sp,sp,48
   202d8:	00030067          	jr	t1

00000000000202dc <__syscall_error>:
   202dc:	ff010113          	addi	sp,sp,-16
   202e0:	00113423          	sd	ra,8(sp)
   202e4:	00813023          	sd	s0,0(sp)
   202e8:	00050413          	mv	s0,a0
   202ec:	3c4000ef          	jal	206b0 <__errno>
   202f0:	00813083          	ld	ra,8(sp)
   202f4:	408007bb          	negw	a5,s0
   202f8:	00f52023          	sw	a5,0(a0)
   202fc:	00013403          	ld	s0,0(sp)
   20300:	fff00513          	li	a0,-1
   20304:	01010113          	addi	sp,sp,16
   20308:	00008067          	ret

000000000002030c <open>:
   2030c:	00000693          	li	a3,0
   20310:	40000893          	li	a7,1024
   20314:	00000073          	ecall
   20318:	fc0542e3          	bltz	a0,202dc <__syscall_error>
   2031c:	0005051b          	sext.w	a0,a0
   20320:	00008067          	ret

0000000000020324 <openat>:
   20324:	03800893          	li	a7,56
   20328:	00000073          	ecall
   2032c:	fa0548e3          	bltz	a0,202dc <__syscall_error>
   20330:	0005051b          	sext.w	a0,a0
   20334:	00008067          	ret

0000000000020338 <lseek>:
   20338:	00000693          	li	a3,0
   2033c:	03e00893          	li	a7,62
   20340:	00000073          	ecall
   20344:	f8054ce3          	bltz	a0,202dc <__syscall_error>
   20348:	00008067          	ret

000000000002034c <read>:
   2034c:	00000693          	li	a3,0
   20350:	03f00893          	li	a7,63
   20354:	00000073          	ecall
   20358:	f80542e3          	bltz	a0,202dc <__syscall_error>
   2035c:	00008067          	ret

0000000000020360 <write>:
   20360:	00000693          	li	a3,0
   20364:	04000893          	li	a7,64
   20368:	00000073          	ecall
   2036c:	f60548e3          	bltz	a0,202dc <__syscall_error>
   20370:	00008067          	ret

0000000000020374 <fstat>:
   20374:	00000613          	li	a2,0
   20378:	00000693          	li	a3,0
   2037c:	05000893          	li	a7,80
   20380:	00000073          	ecall
   20384:	f4054ce3          	bltz	a0,202dc <__syscall_error>
   20388:	0005051b          	sext.w	a0,a0
   2038c:	00008067          	ret

0000000000020390 <stat>:
   20390:	00000613          	li	a2,0
   20394:	00000693          	li	a3,0
   20398:	40e00893          	li	a7,1038
   2039c:	00000073          	ecall
   203a0:	f2054ee3          	bltz	a0,202dc <__syscall_error>
   203a4:	0005051b          	sext.w	a0,a0
   203a8:	00008067          	ret

00000000000203ac <lstat>:
   203ac:	00000613          	li	a2,0
   203b0:	00000693          	li	a3,0
   203b4:	40f00893          	li	a7,1039
   203b8:	00000073          	ecall
   203bc:	f20540e3          	bltz	a0,202dc <__syscall_error>
   203c0:	0005051b          	sext.w	a0,a0
   203c4:	00008067          	ret

00000000000203c8 <fstatat>:
   203c8:	04f00893          	li	a7,79
   203cc:	00000073          	ecall
   203d0:	f00546e3          	bltz	a0,202dc <__syscall_error>
   203d4:	0005051b          	sext.w	a0,a0
   203d8:	00008067          	ret

00000000000203dc <access>:
   203dc:	00000613          	li	a2,0
   203e0:	00000693          	li	a3,0
   203e4:	40900893          	li	a7,1033
   203e8:	00000073          	ecall
   203ec:	ee0548e3          	bltz	a0,202dc <__syscall_error>
   203f0:	0005051b          	sext.w	a0,a0
   203f4:	00008067          	ret

00000000000203f8 <faccessat>:
   203f8:	03000893          	li	a7,48
   203fc:	00000073          	ecall
   20400:	ec054ee3          	bltz	a0,202dc <__syscall_error>
   20404:	0005051b          	sext.w	a0,a0
   20408:	00008067          	ret

000000000002040c <close>:
   2040c:	00000593          	li	a1,0
   20410:	00000613          	li	a2,0
   20414:	00000693          	li	a3,0
   20418:	03900893          	li	a7,57
   2041c:	00000073          	ecall
   20420:	ea054ee3          	bltz	a0,202dc <__syscall_error>
   20424:	0005051b          	sext.w	a0,a0
   20428:	00008067          	ret

000000000002042c <link>:
   2042c:	00000613          	li	a2,0
   20430:	00000693          	li	a3,0
   20434:	40100893          	li	a7,1025
   20438:	00000073          	ecall
   2043c:	ea0540e3          	bltz	a0,202dc <__syscall_error>
   20440:	0005051b          	sext.w	a0,a0
   20444:	00008067          	ret

0000000000020448 <unlink>:
   20448:	00000593          	li	a1,0
   2044c:	00000613          	li	a2,0
   20450:	00000693          	li	a3,0
   20454:	40200893          	li	a7,1026
   20458:	00000073          	ecall
   2045c:	e80540e3          	bltz	a0,202dc <__syscall_error>
   20460:	0005051b          	sext.w	a0,a0
   20464:	00008067          	ret

0000000000020468 <execve>:
   20468:	ff010113          	addi	sp,sp,-16
   2046c:	00113423          	sd	ra,8(sp)
   20470:	240000ef          	jal	206b0 <__errno>
   20474:	00813083          	ld	ra,8(sp)
   20478:	00c00793          	li	a5,12
   2047c:	00f52023          	sw	a5,0(a0)
   20480:	01010113          	addi	sp,sp,16
   20484:	fff00513          	li	a0,-1
   20488:	00008067          	ret

000000000002048c <fork>:
   2048c:	ff010113          	addi	sp,sp,-16
   20490:	00113423          	sd	ra,8(sp)
   20494:	21c000ef          	jal	206b0 <__errno>
   20498:	00813083          	ld	ra,8(sp)
   2049c:	00b00793          	li	a5,11
   204a0:	00f52023          	sw	a5,0(a0)
   204a4:	01010113          	addi	sp,sp,16
   204a8:	fff00513          	li	a0,-1
   204ac:	00008067          	ret

00000000000204b0 <getpid>:
   204b0:	00100513          	li	a0,1
   204b4:	00008067          	ret

00000000000204b8 <kill>:
   204b8:	ff010113          	addi	sp,sp,-16
   204bc:	00113423          	sd	ra,8(sp)
   204c0:	1f0000ef          	jal	206b0 <__errno>
   204c4:	00813083          	ld	ra,8(sp)
   204c8:	01600793          	li	a5,22
   204cc:	00f52023          	sw	a5,0(a0)
   204d0:	01010113          	addi	sp,sp,16
   204d4:	fff00513          	li	a0,-1
   204d8:	00008067          	ret

00000000000204dc <wait>:
   204dc:	ff010113          	addi	sp,sp,-16
   204e0:	00113423          	sd	ra,8(sp)
   204e4:	1cc000ef          	jal	206b0 <__errno>
   204e8:	00813083          	ld	ra,8(sp)
   204ec:	00a00793          	li	a5,10
   204f0:	00f52023          	sw	a5,0(a0)
   204f4:	01010113          	addi	sp,sp,16
   204f8:	fff00513          	li	a0,-1
   204fc:	00008067          	ret

0000000000020500 <isatty>:
   20500:	f8010113          	addi	sp,sp,-128
   20504:	00010593          	mv	a1,sp
   20508:	00000613          	li	a2,0
   2050c:	00000693          	li	a3,0
   20510:	05000893          	li	a7,80
   20514:	00000073          	ecall
   20518:	dc0542e3          	bltz	a0,202dc <__syscall_error>
   2051c:	fff00793          	li	a5,-1
   20520:	0005051b          	sext.w	a0,a0
   20524:	00f50863          	beq	a0,a5,20534 <isatty+0x34>
   20528:	01012503          	lw	a0,16(sp)
   2052c:	40d5551b          	sraiw	a0,a0,0xd
   20530:	00157513          	andi	a0,a0,1
   20534:	08010113          	addi	sp,sp,128
   20538:	00008067          	ret

000000000002053c <times>:
   2053c:	99018313          	addi	t1,gp,-1648 # 24560 <t0.2343>
   20540:	00033703          	ld	a4,0(t1)
   20544:	ff010113          	addi	sp,sp,-16
   20548:	00050813          	mv	a6,a0
   2054c:	02071063          	bnez	a4,2056c <times+0x30>
   20550:	99018513          	addi	a0,gp,-1648 # 24560 <t0.2343>
   20554:	00000593          	li	a1,0
   20558:	00000613          	li	a2,0
   2055c:	00000693          	li	a3,0
   20560:	0a900893          	li	a7,169
   20564:	00000073          	ecall
   20568:	d6054ae3          	bltz	a0,202dc <__syscall_error>
   2056c:	00010513          	mv	a0,sp
   20570:	00000593          	li	a1,0
   20574:	00000613          	li	a2,0
   20578:	00000693          	li	a3,0
   2057c:	0a900893          	li	a7,169
   20580:	00000073          	ecall
   20584:	d4054ce3          	bltz	a0,202dc <__syscall_error>
   20588:	00033703          	ld	a4,0(t1)
   2058c:	00013783          	ld	a5,0(sp)
   20590:	fff00513          	li	a0,-1
   20594:	00083823          	sd	zero,16(a6)
   20598:	40e786b3          	sub	a3,a5,a4
   2059c:	000f47b7          	lui	a5,0xf4
   205a0:	24078793          	addi	a5,a5,576 # f4240 <_end+0xcd498>
   205a4:	02f68733          	mul	a4,a3,a5
   205a8:	00833683          	ld	a3,8(t1)
   205ac:	00813783          	ld	a5,8(sp)
   205b0:	00083c23          	sd	zero,24(a6)
   205b4:	00083423          	sd	zero,8(a6)
   205b8:	40d787b3          	sub	a5,a5,a3
   205bc:	01010113          	addi	sp,sp,16
   205c0:	00f707b3          	add	a5,a4,a5
   205c4:	00f83023          	sd	a5,0(a6)
   205c8:	00008067          	ret

00000000000205cc <gettimeofday>:
   205cc:	00000593          	li	a1,0
   205d0:	00000613          	li	a2,0
   205d4:	00000693          	li	a3,0
   205d8:	0a900893          	li	a7,169
   205dc:	00000073          	ecall
   205e0:	ce054ee3          	bltz	a0,202dc <__syscall_error>
   205e4:	0005051b          	sext.w	a0,a0
   205e8:	00008067          	ret

00000000000205ec <ftime>:
   205ec:	00051423          	sh	zero,8(a0)
   205f0:	00053023          	sd	zero,0(a0)
   205f4:	00000513          	li	a0,0
   205f8:	00008067          	ret

00000000000205fc <utime>:
   205fc:	fff00513          	li	a0,-1
   20600:	00008067          	ret

0000000000020604 <chown>:
   20604:	fff00513          	li	a0,-1
   20608:	00008067          	ret

000000000002060c <chmod>:
   2060c:	fff00513          	li	a0,-1
   20610:	00008067          	ret

0000000000020614 <chdir>:
   20614:	fff00513          	li	a0,-1
   20618:	00008067          	ret

000000000002061c <getcwd>:
   2061c:	00000513          	li	a0,0
   20620:	00008067          	ret

0000000000020624 <sysconf>:
   20624:	00200793          	li	a5,2
   20628:	00f51863          	bne	a0,a5,20638 <sysconf+0x14>
   2062c:	000f4537          	lui	a0,0xf4
   20630:	24050513          	addi	a0,a0,576 # f4240 <_end+0xcd498>
   20634:	00008067          	ret
   20638:	fff00513          	li	a0,-1
   2063c:	00008067          	ret

0000000000020640 <sbrk>:
   20640:	9281b703          	ld	a4,-1752(gp) # 244f8 <heap_end.2381>
   20644:	00050793          	mv	a5,a0
   20648:	00071863          	bnez	a4,20658 <sbrk+0x18>
   2064c:	00027737          	lui	a4,0x27
   20650:	da870713          	addi	a4,a4,-600 # 26da8 <_end>
   20654:	92e1b423          	sd	a4,-1752(gp) # 244f8 <heap_end.2381>
   20658:	00e78533          	add	a0,a5,a4
   2065c:	00000593          	li	a1,0
   20660:	00000613          	li	a2,0
   20664:	00000693          	li	a3,0
   20668:	0d600893          	li	a7,214
   2066c:	00000073          	ecall
   20670:	c60546e3          	bltz	a0,202dc <__syscall_error>
   20674:	9281b683          	ld	a3,-1752(gp) # 244f8 <heap_end.2381>
   20678:	fff00713          	li	a4,-1
   2067c:	00d787b3          	add	a5,a5,a3
   20680:	00f51663          	bne	a0,a5,2068c <sbrk+0x4c>
   20684:	92a1b423          	sd	a0,-1752(gp) # 244f8 <heap_end.2381>
   20688:	00068713          	mv	a4,a3
   2068c:	00070513          	mv	a0,a4
   20690:	00008067          	ret

0000000000020694 <_exit>:
   20694:	00000593          	li	a1,0
   20698:	00000613          	li	a2,0
   2069c:	00000693          	li	a3,0
   206a0:	05d00893          	li	a7,93
   206a4:	00000073          	ecall
   206a8:	c2054ae3          	bltz	a0,202dc <__syscall_error>
   206ac:	0000006f          	j	206ac <_exit+0x18>

00000000000206b0 <__errno>:
   206b0:	8101b503          	ld	a0,-2032(gp) # 243e0 <_impure_ptr>
   206b4:	00008067          	ret

00000000000206b8 <sulp>:
   206b8:	f2050553          	fmv.d.x	fa0,a0
   206bc:	fe010113          	addi	sp,sp,-32
   206c0:	00913423          	sd	s1,8(sp)
   206c4:	00058493          	mv	s1,a1
   206c8:	00813823          	sd	s0,16(sp)
   206cc:	00113c23          	sd	ra,24(sp)
   206d0:	00050413          	mv	s0,a0
   206d4:	a00f80ef          	jal	188d4 <__ulp>
   206d8:	02048a63          	beqz	s1,2070c <sulp+0x54>
   206dc:	42045413          	srai	s0,s0,0x20
   206e0:	02141413          	slli	s0,s0,0x21
   206e4:	03545413          	srli	s0,s0,0x35
   206e8:	06b00793          	li	a5,107
   206ec:	408787bb          	subw	a5,a5,s0
   206f0:	00f05e63          	blez	a5,2070c <sulp+0x54>
   206f4:	0147979b          	slliw	a5,a5,0x14
   206f8:	3ff00737          	lui	a4,0x3ff00
   206fc:	00e787bb          	addw	a5,a5,a4
   20700:	02079793          	slli	a5,a5,0x20
   20704:	f20787d3          	fmv.d.x	fa5,a5
   20708:	12f57553          	fmul.d	fa0,fa0,fa5
   2070c:	01813083          	ld	ra,24(sp)
   20710:	01013403          	ld	s0,16(sp)
   20714:	00813483          	ld	s1,8(sp)
   20718:	02010113          	addi	sp,sp,32
   2071c:	00008067          	ret
